
D8M_Camera_Test.elf:     file format elf32-littlenios2
D8M_Camera_Test.elf
architecture: nios2:r1, flags 0x00000112:
EXEC_P, HAS_SYMS, D_PAGED
start address 0x00020188

Program Header:
    LOAD off    0x00001000 vaddr 0x00020000 paddr 0x00020000 align 2**12
         filesz 0x00000020 memsz 0x00000020 flags r-x
    LOAD off    0x00001020 vaddr 0x00020020 paddr 0x00020020 align 2**12
         filesz 0x000157dc memsz 0x000157dc flags r-x
    LOAD off    0x000167fc vaddr 0x000357fc paddr 0x00036a94 align 2**12
         filesz 0x00001298 memsz 0x00001298 flags rw-
    LOAD off    0x00017d2c vaddr 0x00037d2c paddr 0x00037d2c align 2**12
         filesz 0x00000000 memsz 0x0000019c flags rw-

Sections:
Idx Name          Size      VMA       LMA       File off  Algn
  0 .entry        00000020  00020000  00020000  00001000  2**5
                  CONTENTS, ALLOC, LOAD, READONLY, CODE
  1 .exceptions   00000168  00020020  00020020  00001020  2**2
                  CONTENTS, ALLOC, LOAD, READONLY, CODE
  2 .text         00014d40  00020188  00020188  00001188  2**2
                  CONTENTS, ALLOC, LOAD, READONLY, CODE
  3 .rodata       00000934  00034ec8  00034ec8  00015ec8  2**2
                  CONTENTS, ALLOC, LOAD, READONLY, DATA
  4 .rwdata       00001298  000357fc  00036a94  000167fc  2**2
                  CONTENTS, ALLOC, LOAD, DATA, SMALL_DATA
  5 .bss          0000019c  00037d2c  00037d2c  00017d2c  2**2
                  ALLOC, SMALL_DATA
  6 .onchip_memory2_0 00000000  00037ec8  00037ec8  00017a94  2**0
                  CONTENTS
  7 .comment      00000046  00000000  00000000  00017a94  2**0
                  CONTENTS, READONLY
  8 .debug_aranges 00001218  00000000  00000000  00017ae0  2**3
                  CONTENTS, READONLY, DEBUGGING
  9 .debug_info   0003064b  00000000  00000000  00018cf8  2**0
                  CONTENTS, READONLY, DEBUGGING
 10 .debug_abbrev 0000bf8a  00000000  00000000  00049343  2**0
                  CONTENTS, READONLY, DEBUGGING
 11 .debug_line   0000f48b  00000000  00000000  000552cd  2**0
                  CONTENTS, READONLY, DEBUGGING
 12 .debug_frame  00002818  00000000  00000000  00064758  2**2
                  CONTENTS, READONLY, DEBUGGING
 13 .debug_str    000042ab  00000000  00000000  00066f70  2**0
                  CONTENTS, READONLY, DEBUGGING
 14 .debug_loc    0001f0ec  00000000  00000000  0006b21b  2**0
                  CONTENTS, READONLY, DEBUGGING
 15 .debug_alt_sim_info 00000060  00000000  00000000  0008a308  2**2
                  CONTENTS, READONLY, DEBUGGING
 16 .debug_ranges 00001d50  00000000  00000000  0008a368  2**3
                  CONTENTS, READONLY, DEBUGGING
 17 .thread_model 00000003  00000000  00000000  0008fd5a  2**0
                  CONTENTS, READONLY
 18 .cpu          0000000a  00000000  00000000  0008fd5d  2**0
                  CONTENTS, READONLY
 19 .qsys         00000001  00000000  00000000  0008fd67  2**0
                  CONTENTS, READONLY
 20 .simulation_enabled 00000001  00000000  00000000  0008fd68  2**0
                  CONTENTS, READONLY
 21 .sysid_hash   00000004  00000000  00000000  0008fd69  2**0
                  CONTENTS, READONLY
 22 .sysid_base   00000004  00000000  00000000  0008fd6d  2**0
                  CONTENTS, READONLY
 23 .sysid_time   00000004  00000000  00000000  0008fd71  2**0
                  CONTENTS, READONLY
 24 .stderr_dev   00000009  00000000  00000000  0008fd75  2**0
                  CONTENTS, READONLY
 25 .stdin_dev    00000009  00000000  00000000  0008fd7e  2**0
                  CONTENTS, READONLY
 26 .stdout_dev   00000005  00000000  00000000  0008fd87  2**0
                  CONTENTS, READONLY
 27 .sopc_system_name 00000004  00000000  00000000  0008fd8c  2**0
                  CONTENTS, READONLY
 28 .quartus_project_dir 00000043  00000000  00000000  0008fd90  2**0
                  CONTENTS, READONLY
 29 .jdi          0000414a  00000000  00000000  0008fdd3  2**0
                  CONTENTS, READONLY
 30 .sopcinfo     000a0485  00000000  00000000  00093f1d  2**0
                  CONTENTS, READONLY
SYMBOL TABLE:
00020000 l    d  .entry	00000000 .entry
00020020 l    d  .exceptions	00000000 .exceptions
00020188 l    d  .text	00000000 .text
00034ec8 l    d  .rodata	00000000 .rodata
000357fc l    d  .rwdata	00000000 .rwdata
00037d2c l    d  .bss	00000000 .bss
00037ec8 l    d  .onchip_memory2_0	00000000 .onchip_memory2_0
00000000 l    d  .comment	00000000 .comment
00000000 l    d  .debug_aranges	00000000 .debug_aranges
00000000 l    d  .debug_info	00000000 .debug_info
00000000 l    d  .debug_abbrev	00000000 .debug_abbrev
00000000 l    d  .debug_line	00000000 .debug_line
00000000 l    d  .debug_frame	00000000 .debug_frame
00000000 l    d  .debug_str	00000000 .debug_str
00000000 l    d  .debug_loc	00000000 .debug_loc
00000000 l    d  .debug_alt_sim_info	00000000 .debug_alt_sim_info
00000000 l    d  .debug_ranges	00000000 .debug_ranges
00000000 l    df *ABS*	00000000 ../D8M_Camera_Test_bsp//obj/HAL/src/crt0.o
000201d0 l       .text	00000000 alt_after_alt_main
00000000 l    df *ABS*	00000000 alt_irq_handler.c
00000000 l    df *ABS*	00000000 alt_instruction_exception_entry.c
00000000 l    df *ABS*	00000000 I2C_core.c
00000000 l    df *ABS*	00000000 auto_focus.c
00000000 l    df *ABS*	00000000 main.c
00000000 l    df *ABS*	00000000 mipi_bridge_config.c
000357fc l     O .rwdata	00000034 MipiBridgeReg
00000000 l    df *ABS*	00000000 mipi_camera_config.c
00035830 l     O .rwdata	00000774 MipiCameraReg
00000000 l    df *ABS*	00000000 queue.c
00000000 l    df *ABS*	00000000 lib2-divmod.c
00000000 l    df *ABS*	00000000 fopen.c
00000000 l    df *ABS*	00000000 fseek.c
00000000 l    df *ABS*	00000000 fseeko.c
00000000 l    df *ABS*	00000000 fstatr.c
00000000 l    df *ABS*	00000000 getc.c
00000000 l    df *ABS*	00000000 impure.c
00035fa4 l     O .rwdata	00000424 impure_data
00000000 l    df *ABS*	00000000 int_errno.c
00000000 l    df *ABS*	00000000 makebuf.c
00000000 l    df *ABS*	00000000 malloc.c
00000000 l    df *ABS*	00000000 mallocr.c
00000000 l    df *ABS*	00000000 memset.c
00000000 l    df *ABS*	00000000 openr.c
00000000 l    df *ABS*	00000000 printf.c
00000000 l    df *ABS*	00000000 putchar.c
00000000 l    df *ABS*	00000000 puts.c
00000000 l    df *ABS*	00000000 refill.c
00024238 l     F .text	0000001c lflush
00000000 l    df *ABS*	00000000 rget.c
00000000 l    df *ABS*	00000000 sbrkr.c
00000000 l    df *ABS*	00000000 snprintf.c
00000000 l    df *ABS*	00000000 stdio.c
00000000 l    df *ABS*	00000000 strlen.c
00000000 l    df *ABS*	00000000 vfprintf.c
00035512 l     O .rodata	00000010 zeroes.4389
00035522 l     O .rodata	00000010 blanks.4388
00000000 l    df *ABS*	00000000 vfprintf.c
00035532 l     O .rodata	00000010 zeroes.4404
00028c80 l     F .text	000000bc __sbprintf
00035542 l     O .rodata	00000010 blanks.4403
00000000 l    df *ABS*	00000000 writer.c
00000000 l    df *ABS*	00000000 wsetup.c
00000000 l    df *ABS*	00000000 closer.c
00000000 l    df *ABS*	00000000 dtoa.c
00028f44 l     F .text	00000200 quorem
00000000 l    df *ABS*	00000000 fflush.c
00000000 l    df *ABS*	00000000 findfp.c
0002aa74 l     F .text	00000008 __fp_unlock
0002aa88 l     F .text	0000019c __sinit.part.1
0002ac24 l     F .text	00000008 __fp_lock
00000000 l    df *ABS*	00000000 flags.c
00000000 l    df *ABS*	00000000 mallocr.c
00000000 l    df *ABS*	00000000 fvwrite.c
00000000 l    df *ABS*	00000000 fwalk.c
00000000 l    df *ABS*	00000000 isattyr.c
00000000 l    df *ABS*	00000000 locale.c
000367f0 l     O .rwdata	00000020 lc_ctype_charset
000367d0 l     O .rwdata	00000020 lc_message_charset
00036810 l     O .rwdata	00000038 lconv
00000000 l    df *ABS*	00000000 lseekr.c
00000000 l    df *ABS*	00000000 memchr.c
00000000 l    df *ABS*	00000000 memcpy.c
00000000 l    df *ABS*	00000000 memmove.c
00000000 l    df *ABS*	00000000 mprec.c
00035570 l     O .rodata	0000000c p05.2768
00000000 l    df *ABS*	00000000 putc.c
00000000 l    df *ABS*	00000000 readr.c
00000000 l    df *ABS*	00000000 mallocr.c
00000000 l    df *ABS*	00000000 s_fpclassify.c
00000000 l    df *ABS*	00000000 strcmp.c
00000000 l    df *ABS*	00000000 vfprintf.c
000356a4 l     O .rodata	00000010 blanks.4332
00035694 l     O .rodata	00000010 zeroes.4333
00000000 l    df *ABS*	00000000 vfprintf.c
0002ead4 l     F .text	000000fc __sprint_r.part.0
000356c4 l     O .rodata	00000010 blanks.4348
000356b4 l     O .rodata	00000010 zeroes.4349
00030060 l     F .text	000000bc __sbprintf
00000000 l    df *ABS*	00000000 wbuf.c
00000000 l    df *ABS*	00000000 mallocr.c
00000000 l    df *ABS*	00000000 fclose.c
00000000 l    df *ABS*	00000000 fputwc.c
00000000 l    df *ABS*	00000000 wcrtomb.c
00000000 l    df *ABS*	00000000 wctomb_r.c
00000000 l    df *ABS*	00000000 libgcc2.c
00000000 l    df *ABS*	00000000 libgcc2.c
00000000 l    df *ABS*	00000000 adddf3.c
00000000 l    df *ABS*	00000000 divdf3.c
00000000 l    df *ABS*	00000000 eqdf2.c
00000000 l    df *ABS*	00000000 gedf2.c
00000000 l    df *ABS*	00000000 ledf2.c
00000000 l    df *ABS*	00000000 muldf3.c
00000000 l    df *ABS*	00000000 subdf3.c
00000000 l    df *ABS*	00000000 fixdfsi.c
00000000 l    df *ABS*	00000000 floatsidf.c
00000000 l    df *ABS*	00000000 floatunsidf.c
00000000 l    df *ABS*	00000000 libgcc2.c
00000000 l    df *ABS*	00000000 libgcc2.c
00000000 l    df *ABS*	00000000 alt_close.c
00000000 l    df *ABS*	00000000 alt_dev.c
00033a08 l     F .text	00000008 alt_dev_null_write
00000000 l    df *ABS*	00000000 alt_errno.c
00000000 l    df *ABS*	00000000 alt_fcntl.c
00000000 l    df *ABS*	00000000 alt_fstat.c
00000000 l    df *ABS*	00000000 alt_isatty.c
00000000 l    df *ABS*	00000000 alt_load.c
00000000 l    df *ABS*	00000000 alt_lseek.c
00000000 l    df *ABS*	00000000 alt_main.c
00000000 l    df *ABS*	00000000 alt_malloc_lock.c
00000000 l    df *ABS*	00000000 alt_open.c
00000000 l    df *ABS*	00000000 alt_putstr.c
00000000 l    df *ABS*	00000000 alt_read.c
00033f50 l     F .text	00000020 alt_get_errno
00000000 l    df *ABS*	00000000 alt_release_fd.c
00000000 l    df *ABS*	00000000 alt_sbrk.c
00036a84 l     O .rwdata	00000004 heap_end
00000000 l    df *ABS*	00000000 alt_tick.c
00000000 l    df *ABS*	00000000 alt_usleep.c
00000000 l    df *ABS*	00000000 alt_write.c
0003415c l     F .text	00000020 alt_get_errno
00000000 l    df *ABS*	00000000 alt_sys_init.c
00036a1c l     O .rwdata	0000002c jtag_uart
000369f0 l     O .rwdata	0000002c uart0
00000000 l    df *ABS*	00000000 altera_avalon_jtag_uart_fd.c
00000000 l    df *ABS*	00000000 altera_avalon_jtag_uart_read.c
00000000 l    df *ABS*	00000000 altera_avalon_jtag_uart_write.c
00000000 l    df *ABS*	00000000 altera_avalon_timer_sc.c
0003432c l     F .text	0000003c alt_avalon_timer_sc_irq
00000000 l    df *ABS*	00000000 altera_avalon_uart_fd.c
00000000 l    df *ABS*	00000000 altera_avalon_uart_read.c
00000000 l    df *ABS*	00000000 altera_avalon_uart_write.c
00000000 l    df *ABS*	00000000 alt_busy_sleep.c
00000000 l    df *ABS*	00000000 alt_dcache_flush_all.c
00000000 l    df *ABS*	00000000 alt_dev_llist_insert.c
00000000 l    df *ABS*	00000000 alt_do_ctors.c
00000000 l    df *ABS*	00000000 alt_do_dtors.c
00000000 l    df *ABS*	00000000 alt_find_dev.c
00000000 l    df *ABS*	00000000 alt_find_file.c
00000000 l    df *ABS*	00000000 alt_get_fd.c
00000000 l    df *ABS*	00000000 alt_icache_flush_all.c
00000000 l    df *ABS*	00000000 alt_iic.c
00000000 l    df *ABS*	00000000 alt_iic_isr_register.c
00000000 l    df *ABS*	00000000 alt_io_redirect.c
00034908 l     F .text	00000070 alt_open_fd.constprop.0
00000000 l    df *ABS*	00000000 alt_irq_vars.c
00000000 l    df *ABS*	00000000 altera_nios2_gen2_irq.c
00000000 l    df *ABS*	00000000 alt_icache_flush.c
00000000 l    df *ABS*	00000000 atexit.c
00000000 l    df *ABS*	00000000 exit.c
00000000 l    df *ABS*	00000000 fputs.c
00000000 l    df *ABS*	00000000 memcmp.c
00000000 l    df *ABS*	00000000 __atexit.c
00000000 l    df *ABS*	00000000 __call_atexit.c
00000000 l    df *ABS*	00000000 alt_exit.c
00037d7c g     O .bss	00000004 alt_instruction_exception_handler
0002414c g     F .text	00000018 putchar
0002ccd4 g     F .text	00000074 _mprec_log10
0002cdc0 g     F .text	0000008c __any_on
0002b938 g     F .text	00000054 _isatty_r
0003557c g     O .rodata	00000028 __mprec_tinytens
00033d54 g     F .text	00000064 alt_main
00024164 g     F .text	000000c0 _puts_r
00037dc8 g     O .bss	00000100 alt_irq
0002ba68 g     F .text	00000060 _lseek_r
00021288 g     F .text	000000b0 Focus_Released
00020528 g     F .text	00000060 ACK_check
00036a94 g       *ABS*	00000000 __flash_rwdata_start
0002049c g     F .text	0000008c ACK_single_check
0002ae14 g     F .text	000000ac __sflags
00032470 g     F .text	00000088 .hidden __eqdf2
000210a8 g     F .text	000001e0 Focus_Window
00022240 g     F .text	0000006c OV8865_write_AF
00037ec8 g       *ABS*	00000000 __alt_heap_start
00022b10 g     F .text	00000064 QUEUE_IsFull
00024108 g     F .text	0000003c printf
00030644 g     F .text	0000009c _wcrtomb_r
00024798 g     F .text	0000005c __sseek
0002adc4 g     F .text	00000010 __sinit
0003011c g     F .text	00000140 __swbuf_r
0002b98c g     F .text	0000007c _setlocale_r
0002ac2c g     F .text	00000068 __sfmoreglue
00033dbc g     F .text	00000004 __malloc_unlock
0002bcf4 g     F .text	0000015c memmove
00020588 g     F .text	00000200 OC_I2C_Write
0002adac g     F .text	00000018 _cleanup
000245dc g     F .text	000000e4 snprintf
0002be50 g     F .text	000000a8 _Balloc
00020f80 g     F .text	00000128 Focus_Init
00033f3c g     F .text	00000014 alt_putstr
000324f8 g     F .text	000000dc .hidden __gtdf2
000349ec g     F .text	00000008 altera_nios2_gen2_irq_init
00020000 g     F .entry	0000001c __reset
00020020 g       *ABS*	00000000 __flash_exceptions_start
0002340c g     F .text	0000005c _fstat_r
00036a50 g     O .rwdata	00000001 focus_scal
00037d48 g     O .bss	00000004 errno
0002449c g     F .text	00000014 __srget
00024714 g     F .text	00000008 __seofread
0002d898 g     F .text	0000123c ___svfiprintf_internal_r
00037d68 g     O .bss	00000004 alt_argv
0003ea48 g       *ABS*	00000000 _gp
00034158 g     F .text	00000004 usleep
00036848 g     O .rwdata	00000180 alt_fd_list
00023468 g     F .text	00000070 _getc_r
000234d8 g     F .text	00000088 getc
00024144 g     F .text	00000008 _putchar_r
0003468c g     F .text	00000074 alt_find_dev
0002bbac g     F .text	00000148 memcpy
000202dc g     F .text	0000013c oc_i2c_init_ex
0002aa7c g     F .text	0000000c _cleanup_r
0003375c g     F .text	000000dc .hidden __floatsidf
00034978 g     F .text	00000074 alt_io_redirect
000325d4 g     F .text	000000f4 .hidden __ltdf2
00034ec8 g       *ABS*	00000000 __DTOR_END__
00024224 g     F .text	00000014 puts
00034a2c g     F .text	00000074 alt_exception_cause_generated_bad_addr
0002d578 g     F .text	00000074 __fpclassifyd
0002cc30 g     F .text	000000a4 __ratio
00030044 g     F .text	0000001c __vfiprintf_internal
00022ad0 g     F .text	00000040 QUEUE_IsEmpty
0003429c g     F .text	0000005c altera_avalon_jtag_uart_read
0002371c g     F .text	00000014 malloc
000240d8 g     F .text	00000030 _printf_r
00020000 g       *ABS*	00000000 __alt_mem_onchip_memory2_0
00022dc4 g     F .text	00000064 .hidden __udivsi3
00033b64 g     F .text	00000080 isatty
000355cc g     O .rodata	000000c8 __mprec_tens
0002ba08 g     F .text	0000000c __locale_charset
000349f4 g     F .text	00000038 alt_icache_flush
00037d54 g     O .bss	00000004 __malloc_top_pad
00022c98 g     F .text	00000034 QUEUE_Empty
00037d2c g     O .bss	00000002 x_len
0002232c g     F .text	000000d0 OV8865_FOCUS_Move_to
00036a64 g     O .rwdata	00000004 __mb_cur_max
0002ba38 g     F .text	0000000c _localeconv_r
00037d2e g     O .bss	00000002 prevhori
0002c25c g     F .text	0000003c __i2b
0002b2f4 g     F .text	000004bc __sfvwrite_r
00022c08 g     F .text	00000090 QUEUE_Pop
000244b0 g     F .text	00000054 _sbrk_r
0002cfb4 g     F .text	00000060 _read_r
00036a4e g     O .rwdata	00000002 focus_height
00036a6c g     O .rwdata	00000004 alt_max_fd
00037d30 g     O .bss	00000004 col_and_det
00030338 g     F .text	000000f0 _fclose_r
000221d4 g     F .text	0000006c OV8865_write_cmos_sensor_8
0002aa44 g     F .text	00000030 fflush
00037d50 g     O .bss	00000004 __malloc_max_sbrked_mem
00037d34 g     O .bss	00000004 x_values
000312dc g     F .text	000008ac .hidden __adddf3
0002c9d8 g     F .text	0000010c __b2d
00030da4 g     F .text	00000538 .hidden __umoddi3
00033cc4 g     F .text	00000090 lseek
00036a54 g     O .rwdata	00000004 _global_impure_ptr
0002d014 g     F .text	00000564 _realloc_r
00037ec8 g       *ABS*	00000000 __bss_end
000348a0 g     F .text	00000068 alt_iic_isr_register
000340a0 g     F .text	000000b8 alt_tick
0003082c g     F .text	00000578 .hidden __udivdi3
000305a0 g     F .text	00000024 _fputwc_r
000355a4 g     O .rodata	00000028 __mprec_bigtens
0002c040 g     F .text	00000104 __s2b
00033838 g     F .text	000000a8 .hidden __floatunsidf
00036a4a g     O .rwdata	00000002 video_h
0002c718 g     F .text	00000060 __mcmp
0002ade4 g     F .text	00000018 __fp_lock_all
00034888 g     F .text	00000018 alt_ic_irq_enabled
00021338 g     F .text	000000b8 mipi_clear_error
00020af0 g     F .text	00000210 OC_I2CL_Write
0003406c g     F .text	00000034 alt_alarm_stop
00037d78 g     O .bss	00000004 alt_irq_active
00022fac g     F .text	00000444 _fseeko_r
00020788 g     F .text	00000064 ACK_judge_for_read
000200fc g     F .exceptions	00000060 alt_irq_handler
000224dc g     F .text	000000cc OV8865SetGain
000369c8 g     O .rwdata	00000028 alt_dev_null
000201d4 g     F .text	00000058 Write32_Data
00037d38 g     O .bss	00000002 hori_dist
0003456c g     F .text	00000018 alt_dcache_flush_all
0002c144 g     F .text	00000068 __hi0bits
000336dc g     F .text	00000080 .hidden __fixdfsi
00036a51 g     O .rwdata	00000001 focus_scal_f
00036a94 g       *ABS*	00000000 __ram_rwdata_end
00036a70 g     O .rwdata	00000008 alt_dev_list
0003417c g     F .text	00000088 write
0002ce4c g     F .text	000000a0 _putc_r
000357fc g       *ABS*	00000000 __ram_rodata_end
00033ae0 g     F .text	00000084 fstat
000325d4 g     F .text	000000f4 .hidden __ledf2
0002c490 g     F .text	00000140 __pow5mult
0002ebe8 g     F .text	0000145c ___vfiprintf_internal_r
00037d60 g     O .bss	00000004 __nlocale_changed
00022e28 g     F .text	00000058 .hidden __umodsi3
00021488 g     F .text	00000178 mipi_show_error_info_more
00037ec8 g       *ABS*	00000000 end
000233f0 g     F .text	0000001c fseeko
00037d3a g     O .bss	00000002 pix_dist_from_cen
00034464 g     F .text	00000090 altera_avalon_uart_write
00022f90 g     F .text	0000001c fseek
0002015c g     F .exceptions	0000002c alt_instruction_exception_entry
00034ec8 g       *ABS*	00000000 __CTOR_LIST__
00040000 g       *ABS*	00000000 __alt_stack_pointer
00034368 g     F .text	00000050 alt_avalon_timer_sc_init
000343c8 g     F .text	00000010 altera_avalon_uart_write_fd
000338e0 g     F .text	00000064 .hidden __clzsi2
00024504 g     F .text	000000d8 _snprintf_r
000342f8 g     F .text	00000034 altera_avalon_jtag_uart_write
0002add4 g     F .text	00000004 __sfp_lock_acquire
0002bac8 g     F .text	000000e4 memchr
00026a6c g     F .text	000021f8 ___vfprintf_internal_r
0002afe4 g     F .text	00000310 _free_r
0002ba14 g     F .text	00000010 __locale_mb_cur_max
00037d3c g     O .bss	00000002 detected
00034d34 g     F .text	00000180 __call_exitprocs
00024428 g     F .text	00000074 __srget_r
00037d5c g     O .bss	00000004 __mlocale_changed
00036a5c g     O .rwdata	00000004 __malloc_sbrk_base
00020188 g     F .text	0000004c _start
00037d74 g     O .bss	00000004 _alt_tick_rate
00037d3e g     O .bss	00000002 x_cen
0002c5d0 g     F .text	00000148 __lshift
00022b74 g     F .text	00000094 QUEUE_Push
00037d70 g     O .bss	00000004 _alt_nticks
00033f70 g     F .text	0000008c read
00034224 g     F .text	00000058 alt_sys_init
0002d6c8 g     F .text	000001d0 __ssprint_r
00024078 g     F .text	00000060 _open_r
00034c1c g     F .text	00000118 __register_exitproc
00022170 g     F .text	00000064 OV8865_read_cmos_sensor_8
0002c298 g     F .text	000001f8 __multiply
00021f5c g     F .text	0000006c MipiBridgeRegWrite
000357fc g       *ABS*	00000000 __ram_rwdata_start
00034ec8 g       *ABS*	00000000 __ram_rodata_start
00037d80 g     O .bss	00000028 __malloc_current_mallinfo
0002cae4 g     F .text	0000014c __d2b
0003427c g     F .text	00000010 altera_avalon_jtag_uart_read_fd
000347ac g     F .text	0000004c alt_get_fd
000344f4 g     F .text	00000078 alt_busy_sleep
00028ef0 g     F .text	00000054 _close_r
00021688 g     F .text	000001b0 sendToControl
00034ba0 g     F .text	0000007c memcmp
00037ec8 g       *ABS*	00000000 __alt_stack_base
00028d9c g     F .text	00000154 __swsetup_r
00020284 g     F .text	00000058 oc_i2c_init
00031b88 g     F .text	000008e8 .hidden __divdf3
0002ac94 g     F .text	00000118 __sfp
0002cd48 g     F .text	00000078 __copybits
000363c8 g     O .rwdata	00000408 __malloc_av_
0002ade0 g     F .text	00000004 __sinit_lock_release
000326c8 g     F .text	00000718 .hidden __muldf3
000246c0 g     F .text	00000054 __sread
00034700 g     F .text	000000ac alt_find_file
00034584 g     F .text	00000078 alt_dev_llist_insert
00033db8 g     F .text	00000004 __malloc_lock
00034020 g     F .text	0000004c sbrk
00024894 g     F .text	000021d8 ___svfprintf_internal_r
00022824 g     F .text	00000208 MipiCameraInit
00021f10 g     F .text	0000004c nSWAP16
0002a9e8 g     F .text	0000005c _fflush_r
00030274 g     F .text	000000c4 _calloc_r
00022a2c g     F .text	00000070 QUEUE_New
00022f74 g     F .text	00000018 fopen
00037d2c g       *ABS*	00000000 __bss_start
00023f50 g     F .text	00000128 memset
00021838 g     F .text	000006d8 main
00037d64 g     O .bss	00000004 alt_envp
00037d4c g     O .bss	00000004 __malloc_max_total_mem
0003428c g     F .text	00000010 altera_avalon_jtag_uart_write_fd
0003025c g     F .text	00000018 __swbuf
00037d40 g     O .bss	00000002 prevdiag
000247f4 g     F .text	00000008 __sclose
00040000 g       *ABS*	00000000 __alt_heap_limit
00030428 g     F .text	00000014 fclose
00029144 g     F .text	00001688 _dtoa_r
00023744 g     F .text	0000080c _malloc_r
000307a0 g     F .text	00000030 __ascii_wctomb
00036a80 g     O .rwdata	00000004 alt_errno
0002b7b0 g     F .text	000000c4 _fwalk
0002ceec g     F .text	000000c8 putc
00022ccc g     F .text	00000084 .hidden __divsi3
00020418 g     F .text	00000084 oc_i2c_uninit
0002aec0 g     F .text	00000124 _malloc_trim_r
00034ec8 g       *ABS*	00000000 __CTOR_END__
00022664 g     F .text	000001c0 MIPI_BIN_LEVEL
0002d5ec g     F .text	000000dc strcmp
00034ec8 g       *ABS*	00000000 __flash_rodata_start
00034ec8 g       *ABS*	00000000 __DTOR_LIST__
00037d42 g     O .bss	00000002 color
00032470 g     F .text	00000088 .hidden __nedf2
00034204 g     F .text	00000020 alt_irq_init
00033ffc g     F .text	00000024 alt_release_fd
00022040 g     F .text	00000130 MipiBridgeInit
000356d4 g     O .rodata	00000100 .hidden __clz_tab
00037d58 g     O .bss	00000004 _PathLocale
00034aa0 g     F .text	00000014 atexit
00028d3c g     F .text	00000060 _write_r
00037d44 g     O .bss	00000002 diag_dist
0002ba44 g     F .text	00000018 setlocale
00036a58 g     O .rwdata	00000004 _impure_ptr
00037d6c g     O .bss	00000004 alt_argc
00021fc8 g     F .text	00000078 MipiBridgeRegRead
0002a7cc g     F .text	0000021c __sflush_r
00034644 g     F .text	00000048 _do_dtors
0002ba30 g     F .text	00000008 __locale_cjk_lang
00022f8c g     F .text	00000004 _fseek_r
00036a48 g     O .rwdata	00000002 video_w
00024254 g     F .text	000001d4 __srefill_r
00020020 g       .exceptions	00000000 alt_irq_entry
0002c974 g     F .text	00000064 __ulp
0002adfc g     F .text	00000018 __fp_unlock_all
00036a78 g     O .rwdata	00000008 alt_fs_list
0002022c g     F .text	00000058 Read32_Data
000207ec g     F .text	000001cc OC_I2C_Read
00020020 g       *ABS*	00000000 __ram_exceptions_start
0002ba5c g     F .text	0000000c localeconv
00034804 g     F .text	00000004 alt_ic_isr_register
00036a94 g       *ABS*	00000000 _edata
000343b8 g     F .text	00000010 altera_avalon_uart_read_fd
00037ec8 g       *ABS*	00000000 _end
000225a8 g     F .text	000000bc OV8865ReadExposure
0003043c g     F .text	00000164 __fputwc
00020188 g       *ABS*	00000000 __ram_exceptions_end
00034aec g     F .text	0000009c _fputs_r
00037da8 g     O .bss	00000020 msgVision
00034848 g     F .text	00000040 alt_ic_irq_disable
0002471c g     F .text	0000007c __swrite
00036a60 g     O .rwdata	00000004 __malloc_trim_threshold
000209b8 g     F .text	00000138 OC_I2C_Read_Continue
0002ba24 g     F .text	0000000c __locale_msgcharset
00034ab4 g     F .text	00000038 exit
00036a52 g     O .rwdata	00000001 focus_th
0002b874 g     F .text	000000c4 _fwalk_reent
0002c778 g     F .text	000001fc __mdiff
00022d50 g     F .text	00000074 .hidden __modsi3
00040000 g       *ABS*	00000000 __alt_data_end
00020020 g     F .exceptions	00000000 alt_exception
0002add8 g     F .text	00000004 __sfp_lock_release
000213f0 g     F .text	00000098 mipi_show_error_info
00022a9c g     F .text	00000034 QUEUE_Delete
00020d00 g     F .text	00000280 OC_I2CL_Read
00022e80 g     F .text	000000f4 _fopen_r
00034eb4 g     F .text	00000014 _exit
00023560 g     F .text	000001bc __smakebuf_r
000247fc g     F .text	00000098 strlen
00033dc0 g     F .text	0000017c open
000324f8 g     F .text	000000dc .hidden __gedf2
00036a68 g     O .rwdata	00000004 __wctomb
0002ebd0 g     F .text	00000018 __sprint_r
000347f8 g     F .text	0000000c alt_icache_flush_all
000223fc g     F .text	000000e0 OV8865SetExposure
00034b88 g     F .text	00000018 fputs
00036a90 g     O .rwdata	00000004 alt_priority_mask
00036a4c g     O .rwdata	00000002 focus_width
00034808 g     F .text	00000040 alt_ic_irq_enable
00028c64 g     F .text	0000001c __vfprintf_internal
000343d8 g     F .text	0000008c altera_avalon_uart_read
000307d0 g     F .text	0000005c _wctomb_r
00021600 g     F .text	00000088 MIPI_Init
00032de0 g     F .text	000008fc .hidden __subdf3
00033a10 g     F .text	000000d0 fcntl
0002c1ac g     F .text	000000b0 __lo0bits
00036a88 g     O .rwdata	00000008 alt_alarm_list
000345fc g     F .text	00000048 _do_ctors
000306e0 g     F .text	000000c0 wcrtomb
00033944 g     F .text	000000c4 close
000222ac g     F .text	00000080 OV8865_read_AF
00033be4 g     F .text	000000e0 alt_load
000305c4 g     F .text	00000080 fputwc
00023730 g     F .text	00000014 free
0002addc g     F .text	00000004 __sinit_lock_acquire
0002bf20 g     F .text	00000120 __multadd
0002bef8 g     F .text	00000028 _Bfree



Disassembly of section .entry:

00020000 <__reset>:
   20000:	00840014 	movui	r2,4096
   20004:	1001483a 	initi	r2
   20008:	10bff804 	addi	r2,r2,-32
   2000c:	00bffd16 	blt	zero,r2,20004 <__alt_data_end+0xfffe0004>
   20010:	004000b4 	movhi	at,2
   20014:	08406214 	ori	at,at,392
   20018:	0800683a 	jmp	at
   2001c:	00000000 	call	0 <__alt_mem_onchip_memory2_0-0x20000>

Disassembly of section .exceptions:

00020020 <alt_exception>:
   20020:	deffed04 	addi	sp,sp,-76
   20024:	dfc00015 	stw	ra,0(sp)
   20028:	d8400215 	stw	at,8(sp)
   2002c:	d8800315 	stw	r2,12(sp)
   20030:	d8c00415 	stw	r3,16(sp)
   20034:	d9000515 	stw	r4,20(sp)
   20038:	d9400615 	stw	r5,24(sp)
   2003c:	d9800715 	stw	r6,28(sp)
   20040:	d9c00815 	stw	r7,32(sp)
   20044:	000b307a 	rdctl	r5,estatus
   20048:	da000915 	stw	r8,36(sp)
   2004c:	da400a15 	stw	r9,40(sp)
   20050:	da800b15 	stw	r10,44(sp)
   20054:	dac00c15 	stw	r11,48(sp)
   20058:	db000d15 	stw	r12,52(sp)
   2005c:	db400e15 	stw	r13,56(sp)
   20060:	db800f15 	stw	r14,60(sp)
   20064:	dbc01015 	stw	r15,64(sp)
   20068:	d9401115 	stw	r5,68(sp)
   2006c:	ebffff04 	addi	r15,ea,-4
   20070:	dbc01215 	stw	r15,72(sp)
   20074:	0009313a 	rdctl	r4,ipending
   20078:	2880004c 	andi	r2,r5,1
   2007c:	10000326 	beq	r2,zero,2008c <alt_exception+0x6c>
   20080:	20000226 	beq	r4,zero,2008c <alt_exception+0x6c>
   20084:	00200fc0 	call	200fc <alt_irq_handler>
   20088:	00000706 	br	200a8 <alt_exception+0x88>
   2008c:	df401215 	stw	ea,72(sp)
   20090:	e8bfff17 	ldw	r2,-4(ea)
   20094:	e93fff04 	addi	r4,ea,-4
   20098:	002015c0 	call	2015c <alt_instruction_exception_entry>
   2009c:	1000021e 	bne	r2,zero,200a8 <alt_exception+0x88>
   200a0:	ebffff04 	addi	r15,ea,-4
   200a4:	dbc01215 	stw	r15,72(sp)
   200a8:	d9401117 	ldw	r5,68(sp)
   200ac:	df401217 	ldw	ea,72(sp)
   200b0:	dfc00017 	ldw	ra,0(sp)
   200b4:	2801707a 	wrctl	estatus,r5
   200b8:	d8400217 	ldw	at,8(sp)
   200bc:	d8800317 	ldw	r2,12(sp)
   200c0:	d8c00417 	ldw	r3,16(sp)
   200c4:	d9000517 	ldw	r4,20(sp)
   200c8:	d9400617 	ldw	r5,24(sp)
   200cc:	d9800717 	ldw	r6,28(sp)
   200d0:	d9c00817 	ldw	r7,32(sp)
   200d4:	da000917 	ldw	r8,36(sp)
   200d8:	da400a17 	ldw	r9,40(sp)
   200dc:	da800b17 	ldw	r10,44(sp)
   200e0:	dac00c17 	ldw	r11,48(sp)
   200e4:	db000d17 	ldw	r12,52(sp)
   200e8:	db400e17 	ldw	r13,56(sp)
   200ec:	db800f17 	ldw	r14,60(sp)
   200f0:	dbc01017 	ldw	r15,64(sp)
   200f4:	dec01304 	addi	sp,sp,76
   200f8:	ef80083a 	eret

000200fc <alt_irq_handler>:
   200fc:	defffe04 	addi	sp,sp,-8
   20100:	dfc00115 	stw	ra,4(sp)
   20104:	dc000015 	stw	r16,0(sp)
   20108:	0009313a 	rdctl	r4,ipending
   2010c:	040000f4 	movhi	r16,3
   20110:	841f7204 	addi	r16,r16,32200
   20114:	0005883a 	mov	r2,zero
   20118:	00c00044 	movi	r3,1
   2011c:	20ca703a 	and	r5,r4,r3
   20120:	28000b26 	beq	r5,zero,20150 <alt_irq_handler+0x54>
   20124:	100490fa 	slli	r2,r2,3
   20128:	8085883a 	add	r2,r16,r2
   2012c:	10c00017 	ldw	r3,0(r2)
   20130:	11000117 	ldw	r4,4(r2)
   20134:	183ee83a 	callr	r3
   20138:	0009313a 	rdctl	r4,ipending
   2013c:	203ff51e 	bne	r4,zero,20114 <__alt_data_end+0xfffe0114>
   20140:	dfc00117 	ldw	ra,4(sp)
   20144:	dc000017 	ldw	r16,0(sp)
   20148:	dec00204 	addi	sp,sp,8
   2014c:	f800283a 	ret
   20150:	18c7883a 	add	r3,r3,r3
   20154:	10800044 	addi	r2,r2,1
   20158:	003ff006 	br	2011c <__alt_data_end+0xfffe011c>

0002015c <alt_instruction_exception_entry>:
   2015c:	000531fa 	rdctl	r2,exception
   20160:	000d333a 	rdctl	r6,badaddr
   20164:	d0e4cd17 	ldw	r3,-27852(gp)
   20168:	18000426 	beq	r3,zero,2017c <alt_instruction_exception_entry+0x20>
   2016c:	10801f0c 	andi	r2,r2,124
   20170:	200b883a 	mov	r5,r4
   20174:	1008d0ba 	srli	r4,r2,2
   20178:	1800683a 	jmp	r3
   2017c:	003da03a 	break	0
   20180:	0005883a 	mov	r2,zero
   20184:	f800283a 	ret

Disassembly of section .text:

00020188 <_start>:
   20188:	00820014 	movui	r2,2048
   2018c:	10000033 	initd	0(r2)
   20190:	10bff804 	addi	r2,r2,-32
   20194:	00bffd16 	blt	zero,r2,2018c <__alt_data_end+0xfffe018c>
   20198:	06c00134 	movhi	sp,4
   2019c:	dec00014 	ori	sp,sp,0
   201a0:	068000f4 	movhi	gp,3
   201a4:	d6ba9214 	ori	gp,gp,59976
   201a8:	008000f4 	movhi	r2,3
   201ac:	109f4b14 	ori	r2,r2,32044
   201b0:	00c000f4 	movhi	r3,3
   201b4:	18dfb214 	ori	r3,r3,32456
   201b8:	10c00326 	beq	r2,r3,201c8 <_start+0x40>
   201bc:	10000015 	stw	zero,0(r2)
   201c0:	10800104 	addi	r2,r2,4
   201c4:	10fffd36 	bltu	r2,r3,201bc <__alt_data_end+0xfffe01bc>
   201c8:	0033be40 	call	33be4 <alt_load>
   201cc:	0033d540 	call	33d54 <alt_main>

000201d0 <alt_after_alt_main>:
   201d0:	003fff06 	br	201d0 <__alt_data_end+0xfffe01d0>

000201d4 <Write32_Data>:
#define SLEEP_TIME 250  //us
#define ACK_SLEEP_TIME 250 //us
#define TRUE 1
#define FALSE 0

bool Write32_Data(alt_32 base_address, alt_32 offset_address, alt_32 Data){
   201d4:	defffb04 	addi	sp,sp,-20
   201d8:	df000415 	stw	fp,16(sp)
   201dc:	df000404 	addi	fp,sp,16
   201e0:	e13ffd15 	stw	r4,-12(fp)
   201e4:	e17ffe15 	stw	r5,-8(fp)
   201e8:	e1bfff15 	stw	r6,-4(fp)
	bool bPass;
    IOWR(base_address, offset_address,Data);
   201ec:	e0bffe17 	ldw	r2,-8(fp)
   201f0:	1085883a 	add	r2,r2,r2
   201f4:	1085883a 	add	r2,r2,r2
   201f8:	1007883a 	mov	r3,r2
   201fc:	e0bffd17 	ldw	r2,-12(fp)
   20200:	1885883a 	add	r2,r3,r2
   20204:	1007883a 	mov	r3,r2
   20208:	e0bfff17 	ldw	r2,-4(fp)
   2020c:	18800035 	stwio	r2,0(r3)
    bPass=TRUE;
   20210:	00800044 	movi	r2,1
   20214:	e0bffc15 	stw	r2,-16(fp)
    return bPass;
   20218:	e0bffc17 	ldw	r2,-16(fp)
}
   2021c:	e037883a 	mov	sp,fp
   20220:	df000017 	ldw	fp,0(sp)
   20224:	dec00104 	addi	sp,sp,4
   20228:	f800283a 	ret

0002022c <Read32_Data>:



bool  Read32_Data(alt_32 base_address, alt_32 offset_address, alt_32 *pData32){
   2022c:	defffb04 	addi	sp,sp,-20
   20230:	df000415 	stw	fp,16(sp)
   20234:	df000404 	addi	fp,sp,16
   20238:	e13ffd15 	stw	r4,-12(fp)
   2023c:	e17ffe15 	stw	r5,-8(fp)
   20240:	e1bfff15 	stw	r6,-4(fp)
	bool bPass;
	*pData32 =IORD(base_address ,offset_address  );
   20244:	e0bffe17 	ldw	r2,-8(fp)
   20248:	1085883a 	add	r2,r2,r2
   2024c:	1085883a 	add	r2,r2,r2
   20250:	1007883a 	mov	r3,r2
   20254:	e0bffd17 	ldw	r2,-12(fp)
   20258:	1885883a 	add	r2,r3,r2
   2025c:	10c00037 	ldwio	r3,0(r2)
   20260:	e0bfff17 	ldw	r2,-4(fp)
   20264:	10c00015 	stw	r3,0(r2)
	bPass=TRUE;
   20268:	00800044 	movi	r2,1
   2026c:	e0bffc15 	stw	r2,-16(fp)
    return bPass;
   20270:	e0bffc17 	ldw	r2,-16(fp)
}
   20274:	e037883a 	mov	sp,fp
   20278:	df000017 	ldw	fp,0(sp)
   2027c:	dec00104 	addi	sp,sp,4
   20280:	f800283a 	ret

00020284 <oc_i2c_init>:

bool oc_i2c_init(alt_32 i2c_base){
   20284:	defffa04 	addi	sp,sp,-24
   20288:	dfc00515 	stw	ra,20(sp)
   2028c:	df000415 	stw	fp,16(sp)
   20290:	df000404 	addi	fp,sp,16
   20294:	e13fff15 	stw	r4,-4(fp)
	bool bSuccess;
	const alt_32 ref_clk = 50*1000*1000; // 50MHz
   20298:	0080bef4 	movhi	r2,763
   2029c:	10bc2004 	addi	r2,r2,-3968
   202a0:	e0bffc15 	stw	r2,-16(fp)
	const alt_32 i2c_clk = 400*1000; // 400KHz
   202a4:	008001b4 	movhi	r2,6
   202a8:	1086a004 	addi	r2,r2,6784
   202ac:	e0bffd15 	stw	r2,-12(fp)

	bSuccess = oc_i2c_init_ex(i2c_base, ref_clk, i2c_clk);
   202b0:	e1bffd17 	ldw	r6,-12(fp)
   202b4:	e17ffc17 	ldw	r5,-16(fp)
   202b8:	e13fff17 	ldw	r4,-4(fp)
   202bc:	00202dc0 	call	202dc <oc_i2c_init_ex>
   202c0:	e0bffe15 	stw	r2,-8(fp)

	return bSuccess;
   202c4:	e0bffe17 	ldw	r2,-8(fp)
}
   202c8:	e037883a 	mov	sp,fp
   202cc:	dfc00117 	ldw	ra,4(sp)
   202d0:	df000017 	ldw	fp,0(sp)
   202d4:	dec00204 	addi	sp,sp,8
   202d8:	f800283a 	ret

000202dc <oc_i2c_init_ex>:

bool  oc_i2c_init_ex(alt_32 i2c_base, alt_32 ref_clk, alt_32 i2c_clk)
{
   202dc:	defff604 	addi	sp,sp,-40
   202e0:	dfc00915 	stw	ra,36(sp)
   202e4:	df000815 	stw	fp,32(sp)
   202e8:	df000804 	addi	fp,sp,32
   202ec:	e13ffd15 	stw	r4,-12(fp)
   202f0:	e17ffe15 	stw	r5,-8(fp)
   202f4:	e1bfff15 	stw	r6,-4(fp)
	bool bSuccess=TRUE;
   202f8:	00800044 	movi	r2,1
   202fc:	e0bff815 	stw	r2,-32(fp)
	alt_32 read_data;
	alt_32 prescale;
	alt_u8 prescale_high;
	alt_u8 prescale_low;
	const alt_u8 ControlValue = 0x80;
   20300:	00bfe004 	movi	r2,-128
   20304:	e0bff905 	stb	r2,-28(fp)

    // I2c sysclock =50M hz
	// i2c scl max 400k
	//scl =sysclock/(prescale*5)
	prescale = (ref_clk/(5*i2c_clk))-1;
   20308:	e0bfff17 	ldw	r2,-4(fp)
   2030c:	10800164 	muli	r2,r2,5
   20310:	100b883a 	mov	r5,r2
   20314:	e13ffe17 	ldw	r4,-8(fp)
   20318:	0022ccc0 	call	22ccc <__divsi3>
   2031c:	10bfffc4 	addi	r2,r2,-1
   20320:	e0bffa15 	stw	r2,-24(fp)
	prescale_low = prescale & 0xFF;
   20324:	e0bffa17 	ldw	r2,-24(fp)
   20328:	e0bffb05 	stb	r2,-20(fp)
	prescale_high = (prescale >> 8) & 0xFF;
   2032c:	e0bffa17 	ldw	r2,-24(fp)
   20330:	1005d23a 	srai	r2,r2,8
   20334:	e0bffb45 	stb	r2,-19(fp)

   IOWR(i2c_base, 0, prescale_low);//write low byte of  prescale (reg 0)
   20338:	e0bffd17 	ldw	r2,-12(fp)
   2033c:	e0fffb03 	ldbu	r3,-20(fp)
   20340:	10c00035 	stwio	r3,0(r2)
   IOWR(i2c_base, 1, prescale_high);//write high byte of prescale (reg 1)
   20344:	e0bffd17 	ldw	r2,-12(fp)
   20348:	10800104 	addi	r2,r2,4
   2034c:	1007883a 	mov	r3,r2
   20350:	e0bffb43 	ldbu	r2,-19(fp)
   20354:	18800035 	stwio	r2,0(r3)

   //enable the I2C core, but disable the IRQ
   IOWR( i2c_base, 2, ControlValue);
   20358:	e0bffd17 	ldw	r2,-12(fp)
   2035c:	10800204 	addi	r2,r2,8
   20360:	1007883a 	mov	r3,r2
   20364:	e0bff903 	ldbu	r2,-28(fp)
   20368:	18800035 	stwio	r2,0(r3)


    // check prescale low byte
    if (bSuccess){
   2036c:	e0bff817 	ldw	r2,-32(fp)
   20370:	10000826 	beq	r2,zero,20394 <oc_i2c_init_ex+0xb8>
    	read_data =IORD(i2c_base, 0);
   20374:	e0bffd17 	ldw	r2,-12(fp)
   20378:	10800037 	ldwio	r2,0(r2)
   2037c:	e0bffc15 	stw	r2,-16(fp)
        if( (read_data & 0x00ff) != prescale_low ){
   20380:	e0bffc17 	ldw	r2,-16(fp)
   20384:	10c03fcc 	andi	r3,r2,255
   20388:	e0bffb03 	ldbu	r2,-20(fp)
   2038c:	18800126 	beq	r3,r2,20394 <oc_i2c_init_ex+0xb8>
            bSuccess = FALSE;
   20390:	e03ff815 	stw	zero,-32(fp)
        }
    }

    // check prescale high byte
    if (bSuccess){
   20394:	e0bff817 	ldw	r2,-32(fp)
   20398:	10000926 	beq	r2,zero,203c0 <oc_i2c_init_ex+0xe4>
    	read_data =IORD(i2c_base, 1);
   2039c:	e0bffd17 	ldw	r2,-12(fp)
   203a0:	10800104 	addi	r2,r2,4
   203a4:	10800037 	ldwio	r2,0(r2)
   203a8:	e0bffc15 	stw	r2,-16(fp)
        if( (read_data & 0x00ff) != prescale_high ){
   203ac:	e0bffc17 	ldw	r2,-16(fp)
   203b0:	10c03fcc 	andi	r3,r2,255
   203b4:	e0bffb43 	ldbu	r2,-19(fp)
   203b8:	18800126 	beq	r3,r2,203c0 <oc_i2c_init_ex+0xe4>
            bSuccess = FALSE;
   203bc:	e03ff815 	stw	zero,-32(fp)
        }
    }

    // check control
    if (bSuccess){
   203c0:	e0bff817 	ldw	r2,-32(fp)
   203c4:	10000926 	beq	r2,zero,203ec <oc_i2c_init_ex+0x110>
    	read_data =IORD(i2c_base, 2);
   203c8:	e0bffd17 	ldw	r2,-12(fp)
   203cc:	10800204 	addi	r2,r2,8
   203d0:	10800037 	ldwio	r2,0(r2)
   203d4:	e0bffc15 	stw	r2,-16(fp)
        if( (read_data & 0x00ff) != ControlValue ){
   203d8:	e0bffc17 	ldw	r2,-16(fp)
   203dc:	10c03fcc 	andi	r3,r2,255
   203e0:	e0bff903 	ldbu	r2,-28(fp)
   203e4:	18800126 	beq	r3,r2,203ec <oc_i2c_init_ex+0x110>
            bSuccess = FALSE;
   203e8:	e03ff815 	stw	zero,-32(fp)
        }
    }

   if (bSuccess){
   203ec:	e0bff817 	ldw	r2,-32(fp)
   203f0:	1000031e 	bne	r2,zero,20400 <oc_i2c_init_ex+0x124>
//       printf("\nI2C core is enabled! \r\n");
   }
   else
       printf("\nI2C core is not enabled successfully! \r\n");
   203f4:	010000f4 	movhi	r4,3
   203f8:	2113b204 	addi	r4,r4,20168
   203fc:	00242240 	call	24224 <puts>

   return bSuccess;
   20400:	e0bff817 	ldw	r2,-32(fp)

}
   20404:	e037883a 	mov	sp,fp
   20408:	dfc00117 	ldw	ra,4(sp)
   2040c:	df000017 	ldw	fp,0(sp)
   20410:	dec00204 	addi	sp,sp,8
   20414:	f800283a 	ret

00020418 <oc_i2c_uninit>:

bool oc_i2c_uninit(alt_32 i2c_base)
{
   20418:	defffa04 	addi	sp,sp,-24
   2041c:	dfc00515 	stw	ra,20(sp)
   20420:	df000415 	stw	fp,16(sp)
   20424:	df000404 	addi	fp,sp,16
   20428:	e13fff15 	stw	r4,-4(fp)
	bool bSuccess=TRUE;
   2042c:	00800044 	movi	r2,1
   20430:	e0bffc15 	stw	r2,-16(fp)
	alt_32 read_data;
	const alt_u8 ControlValue = 0x00;
   20434:	e03ffd05 	stb	zero,-12(fp)

    IOWR( i2c_base, 2, ControlValue);
   20438:	e0bfff17 	ldw	r2,-4(fp)
   2043c:	10800204 	addi	r2,r2,8
   20440:	1007883a 	mov	r3,r2
   20444:	e0bffd03 	ldbu	r2,-12(fp)
   20448:	18800035 	stwio	r2,0(r3)
   	read_data =IORD(i2c_base, 2);
   2044c:	e0bfff17 	ldw	r2,-4(fp)
   20450:	10800204 	addi	r2,r2,8
   20454:	10800037 	ldwio	r2,0(r2)
   20458:	e0bffe15 	stw	r2,-8(fp)
	if( (read_data & 0x00ff) != ControlValue ){
   2045c:	e0bffe17 	ldw	r2,-8(fp)
   20460:	10c03fcc 	andi	r3,r2,255
   20464:	e0bffd03 	ldbu	r2,-12(fp)
   20468:	18800126 	beq	r3,r2,20470 <oc_i2c_uninit+0x58>
            bSuccess = FALSE;
   2046c:	e03ffc15 	stw	zero,-16(fp)
    }

   if (bSuccess){
   20470:	e0bffc17 	ldw	r2,-16(fp)
   20474:	1000031e 	bne	r2,zero,20484 <oc_i2c_uninit+0x6c>
//       printf("\I2C core  is disabled! \r\n");
   }
   else
       printf("\I2C core is failed to disable! \r\n");
   20478:	010000f4 	movhi	r4,3
   2047c:	2113bd04 	addi	r4,r4,20212
   20480:	00242240 	call	24224 <puts>

   return bSuccess;
   20484:	e0bffc17 	ldw	r2,-16(fp)

}
   20488:	e037883a 	mov	sp,fp
   2048c:	dfc00117 	ldw	ra,4(sp)
   20490:	df000017 	ldw	fp,0(sp)
   20494:	dec00204 	addi	sp,sp,8
   20498:	f800283a 	ret

0002049c <ACK_single_check>:




bool  ACK_single_check(alt_32 i2c_base)
{
   2049c:	defffb04 	addi	sp,sp,-20
   204a0:	dfc00415 	stw	ra,16(sp)
   204a4:	df000315 	stw	fp,12(sp)
   204a8:	df000304 	addi	fp,sp,12
   204ac:	e13fff15 	stw	r4,-4(fp)
	bool bSuccess=TRUE;
   204b0:	00800044 	movi	r2,1
   204b4:	e0bffd15 	stw	r2,-12(fp)
	alt_32 read_data;

    usleep(ACK_SLEEP_TIME);
   204b8:	01003e84 	movi	r4,250
   204bc:	00341580 	call	34158 <usleep>
    read_data =IORD(i2c_base, 4);
   204c0:	e0bfff17 	ldw	r2,-4(fp)
   204c4:	10800404 	addi	r2,r2,16
   204c8:	10800037 	ldwio	r2,0(r2)
   204cc:	e0bffe15 	stw	r2,-8(fp)
    if(read_data & 0x02)
   204d0:	e0bffe17 	ldw	r2,-8(fp)
   204d4:	1080008c 	andi	r2,r2,2
   204d8:	10000126 	beq	r2,zero,204e0 <ACK_single_check+0x44>
            bSuccess = FALSE;
   204dc:	e03ffd15 	stw	zero,-12(fp)
     if (bSuccess){
   204e0:	e0bffd17 	ldw	r2,-12(fp)
   204e4:	10000a26 	beq	r2,zero,20510 <ACK_single_check+0x74>
            usleep(ACK_SLEEP_TIME);
   204e8:	01003e84 	movi	r4,250
   204ec:	00341580 	call	34158 <usleep>
            read_data =IORD(i2c_base, 4);
   204f0:	e0bfff17 	ldw	r2,-4(fp)
   204f4:	10800404 	addi	r2,r2,16
   204f8:	10800037 	ldwio	r2,0(r2)
   204fc:	e0bffe15 	stw	r2,-8(fp)
                if(read_data & 0x80)
   20500:	e0bffe17 	ldw	r2,-8(fp)
   20504:	1080200c 	andi	r2,r2,128
   20508:	10000126 	beq	r2,zero,20510 <ACK_single_check+0x74>
                    bSuccess = FALSE;
   2050c:	e03ffd15 	stw	zero,-12(fp)
     }
    return bSuccess;
   20510:	e0bffd17 	ldw	r2,-12(fp)
}
   20514:	e037883a 	mov	sp,fp
   20518:	dfc00117 	ldw	ra,4(sp)
   2051c:	df000017 	ldw	fp,0(sp)
   20520:	dec00204 	addi	sp,sp,8
   20524:	f800283a 	ret

00020528 <ACK_check>:


bool  ACK_check(alt_32 i2c_base){
   20528:	defffb04 	addi	sp,sp,-20
   2052c:	dfc00415 	stw	ra,16(sp)
   20530:	df000315 	stw	fp,12(sp)
   20534:	df000304 	addi	fp,sp,12
   20538:	e13fff15 	stw	r4,-4(fp)
    bool bSuccess = FALSE;
   2053c:	e03ffd15 	stw	zero,-12(fp)
    int i=0;
   20540:	e03ffe15 	stw	zero,-8(fp)

    while(!bSuccess && i++ < 10){
   20544:	00000306 	br	20554 <ACK_check+0x2c>
        bSuccess = ACK_single_check(i2c_base);
   20548:	e13fff17 	ldw	r4,-4(fp)
   2054c:	002049c0 	call	2049c <ACK_single_check>
   20550:	e0bffd15 	stw	r2,-12(fp)

bool  ACK_check(alt_32 i2c_base){
    bool bSuccess = FALSE;
    int i=0;

    while(!bSuccess && i++ < 10){
   20554:	e0bffd17 	ldw	r2,-12(fp)
   20558:	1000051e 	bne	r2,zero,20570 <ACK_check+0x48>
   2055c:	e0bffe17 	ldw	r2,-8(fp)
   20560:	10c00044 	addi	r3,r2,1
   20564:	e0fffe15 	stw	r3,-8(fp)
   20568:	10800290 	cmplti	r2,r2,10
   2056c:	103ff61e 	bne	r2,zero,20548 <__alt_data_end+0xfffe0548>
        bSuccess = ACK_single_check(i2c_base);
    }

    return bSuccess;
   20570:	e0bffd17 	ldw	r2,-12(fp)
}
   20574:	e037883a 	mov	sp,fp
   20578:	dfc00117 	ldw	ra,4(sp)
   2057c:	df000017 	ldw	fp,0(sp)
   20580:	dec00204 	addi	sp,sp,8
   20584:	f800283a 	ret

00020588 <OC_I2C_Write>:

bool  OC_I2C_Write(alt_32 i2c_base,alt_u8 device_address,alt_u8 sub_address, alt_u8 *pData, int nWriteLength)
{
   20588:	defff904 	addi	sp,sp,-28
   2058c:	dfc00615 	stw	ra,24(sp)
   20590:	df000515 	stw	fp,20(sp)
   20594:	df000504 	addi	fp,sp,20
   20598:	e13ffc15 	stw	r4,-16(fp)
   2059c:	2807883a 	mov	r3,r5
   205a0:	3005883a 	mov	r2,r6
   205a4:	e1ffff15 	stw	r7,-4(fp)
   205a8:	e0fffd05 	stb	r3,-12(fp)
   205ac:	e0bffe05 	stb	r2,-8(fp)
    //DWORD reg_data = 0x0;
    int i;

   //set the tx reg audio chip dev address with write bit
   if (!Write32_Data( i2c_base, 3,device_address)){
   205b0:	e0bffd03 	ldbu	r2,-12(fp)
   205b4:	100d883a 	mov	r6,r2
   205b8:	014000c4 	movi	r5,3
   205bc:	e13ffc17 	ldw	r4,-16(fp)
   205c0:	00201d40 	call	201d4 <Write32_Data>
   205c4:	1000051e 	bne	r2,zero,205dc <OC_I2C_Write+0x54>
       printf("OC_I2C_Write error[0]\r\n");
   205c8:	010000f4 	movhi	r4,3
   205cc:	2113c604 	addi	r4,r4,20248
   205d0:	00242240 	call	24224 <puts>
       return FALSE;
   205d4:	0005883a 	mov	r2,zero
   205d8:	00006606 	br	20774 <OC_I2C_Write+0x1ec>
   }
   //set STA and WR bits(bit7 and bit4)
   if (!Write32_Data( i2c_base, 4,0x90)){
   205dc:	01802404 	movi	r6,144
   205e0:	01400104 	movi	r5,4
   205e4:	e13ffc17 	ldw	r4,-16(fp)
   205e8:	00201d40 	call	201d4 <Write32_Data>
   205ec:	1000051e 	bne	r2,zero,20604 <OC_I2C_Write+0x7c>
       printf("OC_I2C_Write error[1]\r\n");
   205f0:	010000f4 	movhi	r4,3
   205f4:	2113cc04 	addi	r4,r4,20272
   205f8:	00242240 	call	24224 <puts>
       return FALSE;
   205fc:	0005883a 	mov	r2,zero
   20600:	00005c06 	br	20774 <OC_I2C_Write+0x1ec>
   }

   //wait TIP bit go to 0 to end Tx
    if(!ACK_check( i2c_base)){
   20604:	e13ffc17 	ldw	r4,-16(fp)
   20608:	00205280 	call	20528 <ACK_check>
   2060c:	1000051e 	bne	r2,zero,20624 <OC_I2C_Write+0x9c>
        printf("OC_I2C_Write error[2]\r\n");
   20610:	010000f4 	movhi	r4,3
   20614:	2113d204 	addi	r4,r4,20296
   20618:	00242240 	call	24224 <puts>
        return FALSE;
   2061c:	0005883a 	mov	r2,zero
   20620:	00005406 	br	20774 <OC_I2C_Write+0x1ec>
    }
  // printf("\n receive ACK-device address! \n");

   //set the txr reg data with reg address + 1 data MSB
   if (!Write32_Data( i2c_base, 3,sub_address)){
   20624:	e0bffe03 	ldbu	r2,-8(fp)
   20628:	100d883a 	mov	r6,r2
   2062c:	014000c4 	movi	r5,3
   20630:	e13ffc17 	ldw	r4,-16(fp)
   20634:	00201d40 	call	201d4 <Write32_Data>
   20638:	1000051e 	bne	r2,zero,20650 <OC_I2C_Write+0xc8>
       printf("OC_I2C_Write error[3]\r\n");
   2063c:	010000f4 	movhi	r4,3
   20640:	2113d804 	addi	r4,r4,20320
   20644:	00242240 	call	24224 <puts>
       return FALSE;
   20648:	0005883a 	mov	r2,zero
   2064c:	00004906 	br	20774 <OC_I2C_Write+0x1ec>
   }

   //set WR bits(bit4)
    if (!Write32_Data( i2c_base, 4,0x10)){
   20650:	01800404 	movi	r6,16
   20654:	01400104 	movi	r5,4
   20658:	e13ffc17 	ldw	r4,-16(fp)
   2065c:	00201d40 	call	201d4 <Write32_Data>
   20660:	1000051e 	bne	r2,zero,20678 <OC_I2C_Write+0xf0>
        printf("OC_I2C_Write error[4]\r\n");
   20664:	010000f4 	movhi	r4,3
   20668:	2113de04 	addi	r4,r4,20344
   2066c:	00242240 	call	24224 <puts>
        return FALSE;
   20670:	0005883a 	mov	r2,zero
   20674:	00003f06 	br	20774 <OC_I2C_Write+0x1ec>
    }

   //wait TIP bit go to 0 to end Tx
    if(!ACK_check( i2c_base)){
   20678:	e13ffc17 	ldw	r4,-16(fp)
   2067c:	00205280 	call	20528 <ACK_check>
   20680:	1000051e 	bne	r2,zero,20698 <OC_I2C_Write+0x110>
        printf("OC_I2C_Write error[5]\r\n");
   20684:	010000f4 	movhi	r4,3
   20688:	2113e404 	addi	r4,r4,20368
   2068c:	00242240 	call	24224 <puts>
        return FALSE;
   20690:	0005883a 	mov	r2,zero
   20694:	00003706 	br	20774 <OC_I2C_Write+0x1ec>
    }
 //  printf("\n receive ACK-reg address! \n");

#if 1
        for( i=nWriteLength-1;i>=0;i--){
   20698:	e0800217 	ldw	r2,8(fp)
   2069c:	10bfffc4 	addi	r2,r2,-1
   206a0:	e0bffb15 	stw	r2,-20(fp)
   206a4:	00002406 	br	20738 <OC_I2C_Write+0x1b0>
        //set the txr reg data with the data
          if (!Write32_Data( i2c_base, 3,*(pData+i))){
   206a8:	e0bffb17 	ldw	r2,-20(fp)
   206ac:	e0ffff17 	ldw	r3,-4(fp)
   206b0:	1885883a 	add	r2,r3,r2
   206b4:	10800003 	ldbu	r2,0(r2)
   206b8:	10803fcc 	andi	r2,r2,255
   206bc:	100d883a 	mov	r6,r2
   206c0:	014000c4 	movi	r5,3
   206c4:	e13ffc17 	ldw	r4,-16(fp)
   206c8:	00201d40 	call	201d4 <Write32_Data>
   206cc:	1000051e 	bne	r2,zero,206e4 <OC_I2C_Write+0x15c>
              printf("OC_I2C_Write error[6]\r\n");
   206d0:	010000f4 	movhi	r4,3
   206d4:	2113ea04 	addi	r4,r4,20392
   206d8:	00242240 	call	24224 <puts>
              return FALSE;
   206dc:	0005883a 	mov	r2,zero
   206e0:	00002406 	br	20774 <OC_I2C_Write+0x1ec>
          }

        //set STO and WR bits(bit7 and bit4)
         if (!Write32_Data( i2c_base, 4,0x10)){
   206e4:	01800404 	movi	r6,16
   206e8:	01400104 	movi	r5,4
   206ec:	e13ffc17 	ldw	r4,-16(fp)
   206f0:	00201d40 	call	201d4 <Write32_Data>
   206f4:	1000051e 	bne	r2,zero,2070c <OC_I2C_Write+0x184>
             printf("OC_I2C_Write error[7]\r\n");
   206f8:	010000f4 	movhi	r4,3
   206fc:	2113f004 	addi	r4,r4,20416
   20700:	00242240 	call	24224 <puts>
              return FALSE;
   20704:	0005883a 	mov	r2,zero
   20708:	00001a06 	br	20774 <OC_I2C_Write+0x1ec>
         }

         //wait TIP bit go to 0 to end Tx
          if(!ACK_check( i2c_base)){
   2070c:	e13ffc17 	ldw	r4,-16(fp)
   20710:	00205280 	call	20528 <ACK_check>
   20714:	1000051e 	bne	r2,zero,2072c <OC_I2C_Write+0x1a4>
              printf("OC_I2C_Write error[8]\r\n");
   20718:	010000f4 	movhi	r4,3
   2071c:	2113f604 	addi	r4,r4,20440
   20720:	00242240 	call	24224 <puts>
              return FALSE;
   20724:	0005883a 	mov	r2,zero
   20728:	00001206 	br	20774 <OC_I2C_Write+0x1ec>
        return FALSE;
    }
 //  printf("\n receive ACK-reg address! \n");

#if 1
        for( i=nWriteLength-1;i>=0;i--){
   2072c:	e0bffb17 	ldw	r2,-20(fp)
   20730:	10bfffc4 	addi	r2,r2,-1
   20734:	e0bffb15 	stw	r2,-20(fp)
   20738:	e0bffb17 	ldw	r2,-20(fp)
   2073c:	103fda0e 	bge	r2,zero,206a8 <__alt_data_end+0xfffe06a8>
   //wait TIP bit go to 0 to end Tx
    if(!ACK_check( i2c_base))
        return false;
#endif

     if (!Write32_Data( i2c_base, 4,0x40)){
   20740:	01801004 	movi	r6,64
   20744:	01400104 	movi	r5,4
   20748:	e13ffc17 	ldw	r4,-16(fp)
   2074c:	00201d40 	call	201d4 <Write32_Data>
   20750:	1000051e 	bne	r2,zero,20768 <OC_I2C_Write+0x1e0>
         printf("OC_I2C_Write error[9]\r\n");
   20754:	010000f4 	movhi	r4,3
   20758:	2113fc04 	addi	r4,r4,20464
   2075c:	00242240 	call	24224 <puts>
         return FALSE;
   20760:	0005883a 	mov	r2,zero
   20764:	00000306 	br	20774 <OC_I2C_Write+0x1ec>
     }
         //Sleep(10);
     //OS_msleep(1);
     usleep(SLEEP_TIME);
   20768:	01003e84 	movi	r4,250
   2076c:	00341580 	call	34158 <usleep>

  // printf("\n receive ACK-data! \n");

     return TRUE;
   20770:	00800044 	movi	r2,1

}
   20774:	e037883a 	mov	sp,fp
   20778:	dfc00117 	ldw	ra,4(sp)
   2077c:	df000017 	ldw	fp,0(sp)
   20780:	dec00204 	addi	sp,sp,8
   20784:	f800283a 	ret

00020788 <ACK_judge_for_read>:


bool ACK_judge_for_read(alt_32 i2c_base)
{
   20788:	defffb04 	addi	sp,sp,-20
   2078c:	dfc00415 	stw	ra,16(sp)
   20790:	df000315 	stw	fp,12(sp)
   20794:	df000304 	addi	fp,sp,12
   20798:	e13fff15 	stw	r4,-4(fp)
	bool bSuccess;
    alt_32 this_data;

   // OS_msleep( SLEEP_TIME );
     usleep(ACK_SLEEP_TIME);
   2079c:	01003e84 	movi	r4,250
   207a0:	00341580 	call	34158 <usleep>
    //   while(this_data & 0x02)
//   {
//      this_data =  Read32_Data ( hPCIe, i2c_base, 4);
//   }
    bSuccess =  Read32_Data ( i2c_base, 4, &this_data);
   207a4:	e0bffe04 	addi	r2,fp,-8
   207a8:	100d883a 	mov	r6,r2
   207ac:	01400104 	movi	r5,4
   207b0:	e13fff17 	ldw	r4,-4(fp)
   207b4:	002022c0 	call	2022c <Read32_Data>
   207b8:	e0bffd15 	stw	r2,-12(fp)
    if (bSuccess){
   207bc:	e0bffd17 	ldw	r2,-12(fp)
   207c0:	10000426 	beq	r2,zero,207d4 <ACK_judge_for_read+0x4c>
        if(this_data & 0x02)
   207c4:	e0bffe17 	ldw	r2,-8(fp)
   207c8:	1080008c 	andi	r2,r2,2
   207cc:	10000126 	beq	r2,zero,207d4 <ACK_judge_for_read+0x4c>
            bSuccess = FALSE;
   207d0:	e03ffd15 	stw	zero,-12(fp)
    }
   //wait the rx ACK signal 0-valid

    return bSuccess;
   207d4:	e0bffd17 	ldw	r2,-12(fp)

}
   207d8:	e037883a 	mov	sp,fp
   207dc:	dfc00117 	ldw	ra,4(sp)
   207e0:	df000017 	ldw	fp,0(sp)
   207e4:	dec00204 	addi	sp,sp,8
   207e8:	f800283a 	ret

000207ec <OC_I2C_Read>:

bool  OC_I2C_Read(alt_32 i2c_base,alt_u8 device_address,alt_u8 sub_address, alt_u8 *pData8, int nReadLength){
   207ec:	defff804 	addi	sp,sp,-32
   207f0:	dfc00715 	stw	ra,28(sp)
   207f4:	df000615 	stw	fp,24(sp)
   207f8:	df000604 	addi	fp,sp,24
   207fc:	e13ffc15 	stw	r4,-16(fp)
   20800:	2807883a 	mov	r3,r5
   20804:	3005883a 	mov	r2,r6
   20808:	e1ffff15 	stw	r7,-4(fp)
   2080c:	e0fffd05 	stb	r3,-12(fp)
   20810:	e0bffe05 	stb	r2,-8(fp)
    //BYTE data = 0x0;
    alt_32 Data32;
    int i;

   //set the tx reg audio chip dev address with write bit
   IOWR( i2c_base, 3,device_address);
   20814:	e0bffc17 	ldw	r2,-16(fp)
   20818:	10800304 	addi	r2,r2,12
   2081c:	1007883a 	mov	r3,r2
   20820:	e0bffd03 	ldbu	r2,-12(fp)
   20824:	18800035 	stwio	r2,0(r3)
   //set STA and WR bits(bit7 and bit4)
   IOWR( i2c_base, 4,0x90);
   20828:	e0bffc17 	ldw	r2,-16(fp)
   2082c:	10800404 	addi	r2,r2,16
   20830:	1007883a 	mov	r3,r2
   20834:	00802404 	movi	r2,144
   20838:	18800035 	stwio	r2,0(r3)
   //wait TIP bit go to 0 to end Tx
   if (!ACK_check( i2c_base)){
   2083c:	e13ffc17 	ldw	r4,-16(fp)
   20840:	00205280 	call	20528 <ACK_check>
   20844:	1000051e 	bne	r2,zero,2085c <OC_I2C_Read+0x70>
       printf("OC_I2C_Read error[2]\r\n");
   20848:	010000f4 	movhi	r4,3
   2084c:	21140204 	addi	r4,r4,20488
   20850:	00242240 	call	24224 <puts>
       return FALSE;
   20854:	0005883a 	mov	r2,zero
   20858:	00005206 	br	209a4 <OC_I2C_Read+0x1b8>
   }
   IOWR(i2c_base, 3,sub_address);
   2085c:	e0bffc17 	ldw	r2,-16(fp)
   20860:	10800304 	addi	r2,r2,12
   20864:	1007883a 	mov	r3,r2
   20868:	e0bffe03 	ldbu	r2,-8(fp)
   2086c:	18800035 	stwio	r2,0(r3)

   //set WR bits(bit4)
   IOWR( i2c_base, 4,0x10);
   20870:	e0bffc17 	ldw	r2,-16(fp)
   20874:	10800404 	addi	r2,r2,16
   20878:	1007883a 	mov	r3,r2
   2087c:	00800404 	movi	r2,16
   20880:	18800035 	stwio	r2,0(r3)
   //wait TIP bit go to 0 to end Tx
    if (!ACK_check( i2c_base)){
   20884:	e13ffc17 	ldw	r4,-16(fp)
   20888:	00205280 	call	20528 <ACK_check>
   2088c:	1000051e 	bne	r2,zero,208a4 <OC_I2C_Read+0xb8>
        printf("OC_I2C_Read error[5]\r\n");
   20890:	010000f4 	movhi	r4,3
   20894:	21140804 	addi	r4,r4,20512
   20898:	00242240 	call	24224 <puts>
        return FALSE;
   2089c:	0005883a 	mov	r2,zero
   208a0:	00004006 	br	209a4 <OC_I2C_Read+0x1b8>
  // printf("\n read receive ACK-reg address! \n");

   //read
    //set the tx reg audio chip dev address with read bit 1

    IOWR(i2c_base, 3,device_address|0x01);
   208a4:	e0bffc17 	ldw	r2,-16(fp)
   208a8:	10800304 	addi	r2,r2,12
   208ac:	1007883a 	mov	r3,r2
   208b0:	e0bffd03 	ldbu	r2,-12(fp)
   208b4:	10800054 	ori	r2,r2,1
   208b8:	10803fcc 	andi	r2,r2,255
   208bc:	18800035 	stwio	r2,0(r3)

   //set STA and WR bits(bit7 and bit4)
    IOWR( i2c_base, 4,0x90);
   208c0:	e0bffc17 	ldw	r2,-16(fp)
   208c4:	10800404 	addi	r2,r2,16
   208c8:	1007883a 	mov	r3,r2
   208cc:	00802404 	movi	r2,144
   208d0:	18800035 	stwio	r2,0(r3)

   //wait TIP bit go to 0 to end Tx
    if (!ACK_check( i2c_base)){
   208d4:	e13ffc17 	ldw	r4,-16(fp)
   208d8:	00205280 	call	20528 <ACK_check>
   208dc:	1000051e 	bne	r2,zero,208f4 <OC_I2C_Read+0x108>
        printf("OC_I2C_Read error[8]\r\n");
   208e0:	010000f4 	movhi	r4,3
   208e4:	21140e04 	addi	r4,r4,20536
   208e8:	00242240 	call	24224 <puts>
        return FALSE;
   208ec:	0005883a 	mov	r2,zero
   208f0:	00002c06 	br	209a4 <OC_I2C_Read+0x1b8>
    }

    for(i=0;i<nReadLength;i++){
   208f4:	e03ffa15 	stw	zero,-24(fp)
   208f8:	00001f06 	br	20978 <OC_I2C_Read+0x18c>
  // printf("\n read receive ACK-device address(read)! \n");
   //set the RD and ACK bit(bit5 and bit3)
    	IOWR( i2c_base, 4,((i+1) == nReadLength)?0x28:0x20);
   208fc:	e0bffc17 	ldw	r2,-16(fp)
   20900:	10800404 	addi	r2,r2,16
   20904:	1009883a 	mov	r4,r2
   20908:	e0bffa17 	ldw	r2,-24(fp)
   2090c:	10c00044 	addi	r3,r2,1
   20910:	e0800217 	ldw	r2,8(fp)
   20914:	1880021e 	bne	r3,r2,20920 <OC_I2C_Read+0x134>
   20918:	00800a04 	movi	r2,40
   2091c:	00000106 	br	20924 <OC_I2C_Read+0x138>
   20920:	00800804 	movi	r2,32
   20924:	20800035 	stwio	r2,0(r4)

        if (!ACK_judge_for_read( i2c_base)){
   20928:	e13ffc17 	ldw	r4,-16(fp)
   2092c:	00207880 	call	20788 <ACK_judge_for_read>
   20930:	1000051e 	bne	r2,zero,20948 <OC_I2C_Read+0x15c>
            printf("OC_I2C_Read error[10]\r\n");
   20934:	010000f4 	movhi	r4,3
   20938:	21141404 	addi	r4,r4,20560
   2093c:	00242240 	call	24224 <puts>
            return FALSE;
   20940:	0005883a 	mov	r2,zero
   20944:	00001706 	br	209a4 <OC_I2C_Read+0x1b8>
        }
   // printf("\n read receive ACK-device address(read)! \n");

        Data32=IORD( i2c_base, 3);
   20948:	e0bffc17 	ldw	r2,-16(fp)
   2094c:	10800304 	addi	r2,r2,12
   20950:	10800037 	ldwio	r2,0(r2)
   20954:	e0bffb15 	stw	r2,-20(fp)
        *(pData8+i) =  Data32 & 0xff;
   20958:	e0bffa17 	ldw	r2,-24(fp)
   2095c:	e0ffff17 	ldw	r3,-4(fp)
   20960:	1885883a 	add	r2,r3,r2
   20964:	e0fffb17 	ldw	r3,-20(fp)
   20968:	10c00005 	stb	r3,0(r2)
    if (!ACK_check( i2c_base)){
        printf("OC_I2C_Read error[8]\r\n");
        return FALSE;
    }

    for(i=0;i<nReadLength;i++){
   2096c:	e0bffa17 	ldw	r2,-24(fp)
   20970:	10800044 	addi	r2,r2,1
   20974:	e0bffa15 	stw	r2,-24(fp)
   20978:	e0fffa17 	ldw	r3,-24(fp)
   2097c:	e0800217 	ldw	r2,8(fp)
   20980:	18bfde16 	blt	r3,r2,208fc <__alt_data_end+0xfffe08fc>

        Data32=IORD( i2c_base, 3);
        *(pData8+i) =  Data32 & 0xff;
    }

    IOWR( i2c_base, 4,0x40);
   20984:	e0bffc17 	ldw	r2,-16(fp)
   20988:	10800404 	addi	r2,r2,16
   2098c:	1007883a 	mov	r3,r2
   20990:	00801004 	movi	r2,64
   20994:	18800035 	stwio	r2,0(r3)

  // Sleep(10);
   //OS_msleep(1);
    usleep(SLEEP_TIME);
   20998:	01003e84 	movi	r4,250
   2099c:	00341580 	call	34158 <usleep>
 //  printf(" Read  [%02X] = %02Xh\r\n", sub_address, data);


   return TRUE;
   209a0:	00800044 	movi	r2,1

}
   209a4:	e037883a 	mov	sp,fp
   209a8:	dfc00117 	ldw	ra,4(sp)
   209ac:	df000017 	ldw	fp,0(sp)
   209b0:	dec00204 	addi	sp,sp,8
   209b4:	f800283a 	ret

000209b8 <OC_I2C_Read_Continue>:


bool  OC_I2C_Read_Continue(alt_32 i2c_base,alt_u8 device_address, alt_u8 *pData8, int nReadLength){
   209b8:	defff804 	addi	sp,sp,-32
   209bc:	dfc00715 	stw	ra,28(sp)
   209c0:	df000615 	stw	fp,24(sp)
   209c4:	df000604 	addi	fp,sp,24
   209c8:	e13ffc15 	stw	r4,-16(fp)
   209cc:	2805883a 	mov	r2,r5
   209d0:	e1bffe15 	stw	r6,-8(fp)
   209d4:	e1ffff15 	stw	r7,-4(fp)
   209d8:	e0bffd05 	stb	r2,-12(fp)
	int i;
	alt_u32 Data32;

    IOWR(i2c_base, 3,device_address|0x01);
   209dc:	e0bffc17 	ldw	r2,-16(fp)
   209e0:	10800304 	addi	r2,r2,12
   209e4:	1007883a 	mov	r3,r2
   209e8:	e0bffd03 	ldbu	r2,-12(fp)
   209ec:	10800054 	ori	r2,r2,1
   209f0:	10803fcc 	andi	r2,r2,255
   209f4:	18800035 	stwio	r2,0(r3)

   //set STA and WR bits(bit7 and bit4)
    IOWR( i2c_base, 4,0x90);
   209f8:	e0bffc17 	ldw	r2,-16(fp)
   209fc:	10800404 	addi	r2,r2,16
   20a00:	1007883a 	mov	r3,r2
   20a04:	00802404 	movi	r2,144
   20a08:	18800035 	stwio	r2,0(r3)
//usleep(5*1000);
   //wait TIP bit go to 0 to end Tx
    if (!ACK_check( i2c_base)){
   20a0c:	e13ffc17 	ldw	r4,-16(fp)
   20a10:	00205280 	call	20528 <ACK_check>
   20a14:	1000051e 	bne	r2,zero,20a2c <OC_I2C_Read_Continue+0x74>
        printf("OC_I2C_Read error[8]\r\n");
   20a18:	010000f4 	movhi	r4,3
   20a1c:	21140e04 	addi	r4,r4,20536
   20a20:	00242240 	call	24224 <puts>
        return FALSE;
   20a24:	0005883a 	mov	r2,zero
   20a28:	00002c06 	br	20adc <OC_I2C_Read_Continue+0x124>
    }

    for(i=0;i<nReadLength;i++){
   20a2c:	e03ffa15 	stw	zero,-24(fp)
   20a30:	00001f06 	br	20ab0 <OC_I2C_Read_Continue+0xf8>
  // printf("\n read receive ACK-device address(read)! \n");
   //set the RD and ACK bit(bit5 and bit3)
    	IOWR( i2c_base, 4,((i+1) == nReadLength)?0x28:0x20);
   20a34:	e0bffc17 	ldw	r2,-16(fp)
   20a38:	10800404 	addi	r2,r2,16
   20a3c:	1009883a 	mov	r4,r2
   20a40:	e0bffa17 	ldw	r2,-24(fp)
   20a44:	10c00044 	addi	r3,r2,1
   20a48:	e0bfff17 	ldw	r2,-4(fp)
   20a4c:	1880021e 	bne	r3,r2,20a58 <OC_I2C_Read_Continue+0xa0>
   20a50:	00800a04 	movi	r2,40
   20a54:	00000106 	br	20a5c <OC_I2C_Read_Continue+0xa4>
   20a58:	00800804 	movi	r2,32
   20a5c:	20800035 	stwio	r2,0(r4)

        if (!ACK_judge_for_read( i2c_base)){
   20a60:	e13ffc17 	ldw	r4,-16(fp)
   20a64:	00207880 	call	20788 <ACK_judge_for_read>
   20a68:	1000051e 	bne	r2,zero,20a80 <OC_I2C_Read_Continue+0xc8>
            printf("OC_I2C_Read error[10]\r\n");
   20a6c:	010000f4 	movhi	r4,3
   20a70:	21141404 	addi	r4,r4,20560
   20a74:	00242240 	call	24224 <puts>
            return FALSE;
   20a78:	0005883a 	mov	r2,zero
   20a7c:	00001706 	br	20adc <OC_I2C_Read_Continue+0x124>
        }
   // printf("\n read receive ACK-device address(read)! \n");

        Data32=IORD( i2c_base, 3);
   20a80:	e0bffc17 	ldw	r2,-16(fp)
   20a84:	10800304 	addi	r2,r2,12
   20a88:	10800037 	ldwio	r2,0(r2)
   20a8c:	e0bffb15 	stw	r2,-20(fp)
        *(pData8+i) =  Data32 & 0xff;
   20a90:	e0bffa17 	ldw	r2,-24(fp)
   20a94:	e0fffe17 	ldw	r3,-8(fp)
   20a98:	1885883a 	add	r2,r3,r2
   20a9c:	e0fffb17 	ldw	r3,-20(fp)
   20aa0:	10c00005 	stb	r3,0(r2)
    if (!ACK_check( i2c_base)){
        printf("OC_I2C_Read error[8]\r\n");
        return FALSE;
    }

    for(i=0;i<nReadLength;i++){
   20aa4:	e0bffa17 	ldw	r2,-24(fp)
   20aa8:	10800044 	addi	r2,r2,1
   20aac:	e0bffa15 	stw	r2,-24(fp)
   20ab0:	e0fffa17 	ldw	r3,-24(fp)
   20ab4:	e0bfff17 	ldw	r2,-4(fp)
   20ab8:	18bfde16 	blt	r3,r2,20a34 <__alt_data_end+0xfffe0a34>

        Data32=IORD( i2c_base, 3);
        *(pData8+i) =  Data32 & 0xff;
    }

    IOWR( i2c_base, 4,0x40);
   20abc:	e0bffc17 	ldw	r2,-16(fp)
   20ac0:	10800404 	addi	r2,r2,16
   20ac4:	1007883a 	mov	r3,r2
   20ac8:	00801004 	movi	r2,64
   20acc:	18800035 	stwio	r2,0(r3)

  // Sleep(10);
   //OS_msleep(1);
    usleep(SLEEP_TIME);
   20ad0:	01003e84 	movi	r4,250
   20ad4:	00341580 	call	34158 <usleep>
 //  printf(" Read  [%02X] = %02Xh\r\n", sub_address, data);


   return TRUE;
   20ad8:	00800044 	movi	r2,1

}
   20adc:	e037883a 	mov	sp,fp
   20ae0:	dfc00117 	ldw	ra,4(sp)
   20ae4:	df000017 	ldw	fp,0(sp)
   20ae8:	dec00204 	addi	sp,sp,8
   20aec:	f800283a 	ret

00020af0 <OC_I2CL_Write>:


//  size > 2Kb
bool  OC_I2CL_Write(alt_32 i2c_base,alt_u8 device_address,alt_u16 sub_address,alt_u8 *pData, int nWriteLength)
    {
   20af0:	defff804 	addi	sp,sp,-32
   20af4:	dfc00715 	stw	ra,28(sp)
   20af8:	df000615 	stw	fp,24(sp)
   20afc:	df000604 	addi	fp,sp,24
   20b00:	e13ffc15 	stw	r4,-16(fp)
   20b04:	2807883a 	mov	r3,r5
   20b08:	3005883a 	mov	r2,r6
   20b0c:	e1ffff15 	stw	r7,-4(fp)
   20b10:	e0fffd05 	stb	r3,-12(fp)
   20b14:	e0bffe0d 	sth	r2,-8(fp)
    //DWORD reg_data = 0x0;
	alt_u8 AddrHigh, AddrLow;
    //int count= 0;

    AddrHigh = (sub_address >> 8) & 0xFF;
   20b18:	e0bffe0b 	ldhu	r2,-8(fp)
   20b1c:	1004d23a 	srli	r2,r2,8
   20b20:	e0bffb05 	stb	r2,-20(fp)
    AddrLow  = sub_address & 0xFF;
   20b24:	e0bffe0b 	ldhu	r2,-8(fp)
   20b28:	e0bffb45 	stb	r2,-19(fp)

    int i;

    //set the tx reg audio chip dev address with write bit
   if (!Write32_Data( i2c_base, 3,device_address))
   20b2c:	e0bffd03 	ldbu	r2,-12(fp)
   20b30:	100d883a 	mov	r6,r2
   20b34:	014000c4 	movi	r5,3
   20b38:	e13ffc17 	ldw	r4,-16(fp)
   20b3c:	00201d40 	call	201d4 <Write32_Data>
   20b40:	1000021e 	bne	r2,zero,20b4c <OC_I2CL_Write+0x5c>
       return FALSE;
   20b44:	0005883a 	mov	r2,zero
   20b48:	00006806 	br	20cec <OC_I2CL_Write+0x1fc>
   //set STA and WR bits(bit7 and bit4)
   if (!Write32_Data( i2c_base, 4,0x90))//0x90
   20b4c:	01802404 	movi	r6,144
   20b50:	01400104 	movi	r5,4
   20b54:	e13ffc17 	ldw	r4,-16(fp)
   20b58:	00201d40 	call	201d4 <Write32_Data>
   20b5c:	1000021e 	bne	r2,zero,20b68 <OC_I2CL_Write+0x78>
       return FALSE;
   20b60:	0005883a 	mov	r2,zero
   20b64:	00006106 	br	20cec <OC_I2CL_Write+0x1fc>

   //wait TIP bit go to 0 to end Tx
    if(!ACK_check( i2c_base)){
   20b68:	e13ffc17 	ldw	r4,-16(fp)
   20b6c:	00205280 	call	20528 <ACK_check>
   20b70:	1000051e 	bne	r2,zero,20b88 <OC_I2CL_Write+0x98>
        printf("OC_I2CL_Write error[0]\r\n");
   20b74:	010000f4 	movhi	r4,3
   20b78:	21141a04 	addi	r4,r4,20584
   20b7c:	00242240 	call	24224 <puts>
        return FALSE;
   20b80:	0005883a 	mov	r2,zero
   20b84:	00005906 	br	20cec <OC_I2CL_Write+0x1fc>
  // printf("\n receive ACK-device address! \n");

   //set the txr reg data with reg address + 1 data MSB
 //  reg_data  = (sub_address << 1) & 0xFE;
   //reg_data |= ((data >> 8) & 0x01);
   if (!Write32_Data( i2c_base, 3,AddrHigh))//reg_data&0xff);
   20b88:	e0bffb03 	ldbu	r2,-20(fp)
   20b8c:	100d883a 	mov	r6,r2
   20b90:	014000c4 	movi	r5,3
   20b94:	e13ffc17 	ldw	r4,-16(fp)
   20b98:	00201d40 	call	201d4 <Write32_Data>
   20b9c:	1000021e 	bne	r2,zero,20ba8 <OC_I2CL_Write+0xb8>
       return FALSE;
   20ba0:	0005883a 	mov	r2,zero
   20ba4:	00005106 	br	20cec <OC_I2CL_Write+0x1fc>

   //set WR bits(bit4)
    if (!Write32_Data( i2c_base, 4,0x10))
   20ba8:	01800404 	movi	r6,16
   20bac:	01400104 	movi	r5,4
   20bb0:	e13ffc17 	ldw	r4,-16(fp)
   20bb4:	00201d40 	call	201d4 <Write32_Data>
   20bb8:	1000021e 	bne	r2,zero,20bc4 <OC_I2CL_Write+0xd4>
        return FALSE;
   20bbc:	0005883a 	mov	r2,zero
   20bc0:	00004a06 	br	20cec <OC_I2CL_Write+0x1fc>

   //wait TIP bit go to 0 to end Tx
    if(!ACK_check( i2c_base)){
   20bc4:	e13ffc17 	ldw	r4,-16(fp)
   20bc8:	00205280 	call	20528 <ACK_check>
   20bcc:	1000051e 	bne	r2,zero,20be4 <OC_I2CL_Write+0xf4>
        printf("OC_I2CL_Write error[1]\r\n");
   20bd0:	010000f4 	movhi	r4,3
   20bd4:	21142004 	addi	r4,r4,20608
   20bd8:	00242240 	call	24224 <puts>
        return FALSE;
   20bdc:	0005883a 	mov	r2,zero
   20be0:	00004206 	br	20cec <OC_I2CL_Write+0x1fc>
    }
  // printf("\n receive ACK-reg high address! \n");

   //set the txr reg data with reg address + 1 data MSB
   if (!Write32_Data( i2c_base, 3,AddrLow))//reg_data&0xff);
   20be4:	e0bffb43 	ldbu	r2,-19(fp)
   20be8:	100d883a 	mov	r6,r2
   20bec:	014000c4 	movi	r5,3
   20bf0:	e13ffc17 	ldw	r4,-16(fp)
   20bf4:	00201d40 	call	201d4 <Write32_Data>
   20bf8:	1000021e 	bne	r2,zero,20c04 <OC_I2CL_Write+0x114>
       return FALSE;
   20bfc:	0005883a 	mov	r2,zero
   20c00:	00003a06 	br	20cec <OC_I2CL_Write+0x1fc>

   //set WR bits(bit4)
    Write32_Data( i2c_base, 4,0x10);
   20c04:	01800404 	movi	r6,16
   20c08:	01400104 	movi	r5,4
   20c0c:	e13ffc17 	ldw	r4,-16(fp)
   20c10:	00201d40 	call	201d4 <Write32_Data>

   //wait TIP bit go to 0 to end Tx
    if(!ACK_check( i2c_base)){
   20c14:	e13ffc17 	ldw	r4,-16(fp)
   20c18:	00205280 	call	20528 <ACK_check>
   20c1c:	1000051e 	bne	r2,zero,20c34 <OC_I2CL_Write+0x144>
        printf("OC_I2CL_Write error[2]\r\n");
   20c20:	010000f4 	movhi	r4,3
   20c24:	21142604 	addi	r4,r4,20632
   20c28:	00242240 	call	24224 <puts>
        return FALSE;
   20c2c:	0005883a 	mov	r2,zero
   20c30:	00002e06 	br	20cec <OC_I2CL_Write+0x1fc>
    }
  //  printf("\n receive ACK-reg low address! \n");

#if 1
    for( i=nWriteLength-1;i>=0;i--){
   20c34:	e0800217 	ldw	r2,8(fp)
   20c38:	10bfffc4 	addi	r2,r2,-1
   20c3c:	e0bffa15 	stw	r2,-24(fp)
   20c40:	00001e06 	br	20cbc <OC_I2CL_Write+0x1cc>
        //set the txr reg data with the other data 8 bit LSB
        if (!Write32_Data( i2c_base, 3,*(pData+i)))
   20c44:	e0bffa17 	ldw	r2,-24(fp)
   20c48:	e0ffff17 	ldw	r3,-4(fp)
   20c4c:	1885883a 	add	r2,r3,r2
   20c50:	10800003 	ldbu	r2,0(r2)
   20c54:	10803fcc 	andi	r2,r2,255
   20c58:	100d883a 	mov	r6,r2
   20c5c:	014000c4 	movi	r5,3
   20c60:	e13ffc17 	ldw	r4,-16(fp)
   20c64:	00201d40 	call	201d4 <Write32_Data>
   20c68:	1000021e 	bne	r2,zero,20c74 <OC_I2CL_Write+0x184>
            return FALSE;
   20c6c:	0005883a 	mov	r2,zero
   20c70:	00001e06 	br	20cec <OC_I2CL_Write+0x1fc>

       //set STO and WR bits(bit7 and bit4)
        if (!Write32_Data( i2c_base, 4,0x10))
   20c74:	01800404 	movi	r6,16
   20c78:	01400104 	movi	r5,4
   20c7c:	e13ffc17 	ldw	r4,-16(fp)
   20c80:	00201d40 	call	201d4 <Write32_Data>
   20c84:	1000021e 	bne	r2,zero,20c90 <OC_I2CL_Write+0x1a0>
            return FALSE;
   20c88:	0005883a 	mov	r2,zero
   20c8c:	00001706 	br	20cec <OC_I2CL_Write+0x1fc>

        //wait TIP bit go to 0 to end Tx
         if(!ACK_check( i2c_base)){
   20c90:	e13ffc17 	ldw	r4,-16(fp)
   20c94:	00205280 	call	20528 <ACK_check>
   20c98:	1000051e 	bne	r2,zero,20cb0 <OC_I2CL_Write+0x1c0>
             printf("OC_I2CL_Write error[3]\r\n");
   20c9c:	010000f4 	movhi	r4,3
   20ca0:	21142c04 	addi	r4,r4,20656
   20ca4:	00242240 	call	24224 <puts>
             return FALSE;
   20ca8:	0005883a 	mov	r2,zero
   20cac:	00000f06 	br	20cec <OC_I2CL_Write+0x1fc>
        return FALSE;
    }
  //  printf("\n receive ACK-reg low address! \n");

#if 1
    for( i=nWriteLength-1;i>=0;i--){
   20cb0:	e0bffa17 	ldw	r2,-24(fp)
   20cb4:	10bfffc4 	addi	r2,r2,-1
   20cb8:	e0bffa15 	stw	r2,-24(fp)
   20cbc:	e0bffa17 	ldw	r2,-24(fp)
   20cc0:	103fe00e 	bge	r2,zero,20c44 <__alt_data_end+0xfffe0c44>
   //wait TIP bit go to 0 to end Tx
    if(!ACK_check( i2c_base))
        return FALSE;

#endif
    if (!Write32_Data( i2c_base, 4,0x40))
   20cc4:	01801004 	movi	r6,64
   20cc8:	01400104 	movi	r5,4
   20ccc:	e13ffc17 	ldw	r4,-16(fp)
   20cd0:	00201d40 	call	201d4 <Write32_Data>
   20cd4:	1000021e 	bne	r2,zero,20ce0 <OC_I2CL_Write+0x1f0>
         return FALSE;
   20cd8:	0005883a 	mov	r2,zero
   20cdc:	00000306 	br	20cec <OC_I2CL_Write+0x1fc>

     //OS_msleep(1);
      usleep(SLEEP_TIME);
   20ce0:	01003e84 	movi	r4,250
   20ce4:	00341580 	call	34158 <usleep>
  //  printf("\n receive ACK-data! \n");

     return TRUE;
   20ce8:	00800044 	movi	r2,1
}
   20cec:	e037883a 	mov	sp,fp
   20cf0:	dfc00117 	ldw	ra,4(sp)
   20cf4:	df000017 	ldw	fp,0(sp)
   20cf8:	dec00204 	addi	sp,sp,8
   20cfc:	f800283a 	ret

00020d00 <OC_I2CL_Read>:

   return TRUE;

} */

bool  OC_I2CL_Read(alt_32 i2c_base,alt_u8 device_address, alt_u16 sub_address, alt_u8 *pData8, int nReadLength){
   20d00:	defff704 	addi	sp,sp,-36
   20d04:	dfc00815 	stw	ra,32(sp)
   20d08:	df000715 	stw	fp,28(sp)
   20d0c:	df000704 	addi	fp,sp,28
   20d10:	e13ffc15 	stw	r4,-16(fp)
   20d14:	2807883a 	mov	r3,r5
   20d18:	3005883a 	mov	r2,r6
   20d1c:	e1ffff15 	stw	r7,-4(fp)
   20d20:	e0fffd05 	stb	r3,-12(fp)
   20d24:	e0bffe0d 	sth	r2,-8(fp)
    int i;

    alt_u8 AddrHigh, AddrLow;
    alt_u8 DataHigh, DataLow;

    AddrHigh = (sub_address >> 8) & 0xFF;
   20d28:	e0bffe0b 	ldhu	r2,-8(fp)
   20d2c:	1004d23a 	srli	r2,r2,8
   20d30:	e0bffa05 	stb	r2,-24(fp)
    AddrLow  = sub_address & 0xFF;
   20d34:	e0bffe0b 	ldhu	r2,-8(fp)
   20d38:	e0bffa45 	stb	r2,-23(fp)


   //set the tx reg audio chip dev address with write bit
   if (!Write32_Data( i2c_base, 3,device_address))
   20d3c:	e0bffd03 	ldbu	r2,-12(fp)
   20d40:	100d883a 	mov	r6,r2
   20d44:	014000c4 	movi	r5,3
   20d48:	e13ffc17 	ldw	r4,-16(fp)
   20d4c:	00201d40 	call	201d4 <Write32_Data>
   20d50:	1000021e 	bne	r2,zero,20d5c <OC_I2CL_Read+0x5c>
       return FALSE;
   20d54:	0005883a 	mov	r2,zero
   20d58:	00008406 	br	20f6c <OC_I2CL_Read+0x26c>

   //set STA and WR bits(bit7 and bit4)
   if (!Write32_Data( i2c_base, 4,0x90))
   20d5c:	01802404 	movi	r6,144
   20d60:	01400104 	movi	r5,4
   20d64:	e13ffc17 	ldw	r4,-16(fp)
   20d68:	00201d40 	call	201d4 <Write32_Data>
   20d6c:	1000021e 	bne	r2,zero,20d78 <OC_I2CL_Read+0x78>
       return FALSE;
   20d70:	0005883a 	mov	r2,zero
   20d74:	00007d06 	br	20f6c <OC_I2CL_Read+0x26c>

   //wait TIP bit go to 0 to end Tx
    if(!ACK_check( i2c_base)){
   20d78:	e13ffc17 	ldw	r4,-16(fp)
   20d7c:	00205280 	call	20528 <ACK_check>
   20d80:	1000051e 	bne	r2,zero,20d98 <OC_I2CL_Read+0x98>
        printf("OC_I2CL_Read error[0]\r\n");
   20d84:	010000f4 	movhi	r4,3
   20d88:	21143204 	addi	r4,r4,20680
   20d8c:	00242240 	call	24224 <puts>
        return FALSE;
   20d90:	0005883a 	mov	r2,zero
   20d94:	00007506 	br	20f6c <OC_I2CL_Read+0x26c>
 //  printf("\n receive ACK-device address! \n");


   //set the txr reg data with reg address + 0

   if (!Write32_Data( i2c_base, 3,AddrHigh))//reg_data&0xff);
   20d98:	e0bffa03 	ldbu	r2,-24(fp)
   20d9c:	100d883a 	mov	r6,r2
   20da0:	014000c4 	movi	r5,3
   20da4:	e13ffc17 	ldw	r4,-16(fp)
   20da8:	00201d40 	call	201d4 <Write32_Data>
   20dac:	1000021e 	bne	r2,zero,20db8 <OC_I2CL_Read+0xb8>
       return FALSE;
   20db0:	0005883a 	mov	r2,zero
   20db4:	00006d06 	br	20f6c <OC_I2CL_Read+0x26c>

   //set WR bits(bit4)
    if (!Write32_Data( i2c_base, 4,0x10))
   20db8:	01800404 	movi	r6,16
   20dbc:	01400104 	movi	r5,4
   20dc0:	e13ffc17 	ldw	r4,-16(fp)
   20dc4:	00201d40 	call	201d4 <Write32_Data>
   20dc8:	1000021e 	bne	r2,zero,20dd4 <OC_I2CL_Read+0xd4>
        return FALSE;
   20dcc:	0005883a 	mov	r2,zero
   20dd0:	00006606 	br	20f6c <OC_I2CL_Read+0x26c>

   //wait TIP bit go to 0 to end Tx
    if(!ACK_check( i2c_base)){
   20dd4:	e13ffc17 	ldw	r4,-16(fp)
   20dd8:	00205280 	call	20528 <ACK_check>
   20ddc:	1000051e 	bne	r2,zero,20df4 <OC_I2CL_Read+0xf4>
        printf("OC_I2CL_Read error[1]\r\n");
   20de0:	010000f4 	movhi	r4,3
   20de4:	21143804 	addi	r4,r4,20704
   20de8:	00242240 	call	24224 <puts>
        return FALSE;
   20dec:	0005883a 	mov	r2,zero
   20df0:	00005e06 	br	20f6c <OC_I2CL_Read+0x26c>
    }
//   printf("\n read receive ACK-reg High address! \n");

     //set the txr reg data with reg address + 0
   if (!Write32_Data( i2c_base, 3,AddrLow)) //;//reg_data&0xff);
   20df4:	e0bffa43 	ldbu	r2,-23(fp)
   20df8:	100d883a 	mov	r6,r2
   20dfc:	014000c4 	movi	r5,3
   20e00:	e13ffc17 	ldw	r4,-16(fp)
   20e04:	00201d40 	call	201d4 <Write32_Data>
   20e08:	1000021e 	bne	r2,zero,20e14 <OC_I2CL_Read+0x114>
       return FALSE;
   20e0c:	0005883a 	mov	r2,zero
   20e10:	00005606 	br	20f6c <OC_I2CL_Read+0x26c>
   //set WR bits(bit4)
    if (!Write32_Data( i2c_base, 4,0x10))
   20e14:	01800404 	movi	r6,16
   20e18:	01400104 	movi	r5,4
   20e1c:	e13ffc17 	ldw	r4,-16(fp)
   20e20:	00201d40 	call	201d4 <Write32_Data>
   20e24:	1000021e 	bne	r2,zero,20e30 <OC_I2CL_Read+0x130>
        return FALSE;
   20e28:	0005883a 	mov	r2,zero
   20e2c:	00004f06 	br	20f6c <OC_I2CL_Read+0x26c>

   //wait TIP bit go to 0 to end Tx
    if(!ACK_check( i2c_base)){
   20e30:	e13ffc17 	ldw	r4,-16(fp)
   20e34:	00205280 	call	20528 <ACK_check>
   20e38:	1000051e 	bne	r2,zero,20e50 <OC_I2CL_Read+0x150>
        printf("OC_I2CL_Read error[2]\r\n");
   20e3c:	010000f4 	movhi	r4,3
   20e40:	21143e04 	addi	r4,r4,20728
   20e44:	00242240 	call	24224 <puts>
        return FALSE;
   20e48:	0005883a 	mov	r2,zero
   20e4c:	00004706 	br	20f6c <OC_I2CL_Read+0x26c>

 //  printf("\n read receive ACK-reg Low address! \n");

   //read
    //set the tx reg audio chip dev address with read bit 1
     if (!Write32_Data( i2c_base, 3,device_address|0x01))
   20e50:	e0bffd03 	ldbu	r2,-12(fp)
   20e54:	10800054 	ori	r2,r2,1
   20e58:	10803fcc 	andi	r2,r2,255
   20e5c:	100d883a 	mov	r6,r2
   20e60:	014000c4 	movi	r5,3
   20e64:	e13ffc17 	ldw	r4,-16(fp)
   20e68:	00201d40 	call	201d4 <Write32_Data>
   20e6c:	1000021e 	bne	r2,zero,20e78 <OC_I2CL_Read+0x178>
         return FALSE;
   20e70:	0005883a 	mov	r2,zero
   20e74:	00003d06 	br	20f6c <OC_I2CL_Read+0x26c>

   //set STA and WR bits(bit7 and bit4)
     if (!Write32_Data( i2c_base, 4,0x90))
   20e78:	01802404 	movi	r6,144
   20e7c:	01400104 	movi	r5,4
   20e80:	e13ffc17 	ldw	r4,-16(fp)
   20e84:	00201d40 	call	201d4 <Write32_Data>
   20e88:	1000021e 	bne	r2,zero,20e94 <OC_I2CL_Read+0x194>
         return FALSE;
   20e8c:	0005883a 	mov	r2,zero
   20e90:	00003606 	br	20f6c <OC_I2CL_Read+0x26c>

   //wait TIP bit go to 0 to end Tx
    if(!ACK_check( i2c_base)){
   20e94:	e13ffc17 	ldw	r4,-16(fp)
   20e98:	00205280 	call	20528 <ACK_check>
   20e9c:	1000051e 	bne	r2,zero,20eb4 <OC_I2CL_Read+0x1b4>
        printf("OC_I2CL_Read error[3]\r\n");
   20ea0:	010000f4 	movhi	r4,3
   20ea4:	21144404 	addi	r4,r4,20752
   20ea8:	00242240 	call	24224 <puts>
        return FALSE;
   20eac:	0005883a 	mov	r2,zero
   20eb0:	00002e06 	br	20f6c <OC_I2CL_Read+0x26c>
//   printf("\n read receive ACK-device address(read)! \n");

       //read the rxr data

#if 1
    for(i=0;i<nReadLength;i++){
   20eb4:	e03ff915 	stw	zero,-28(fp)
   20eb8:	00001f06 	br	20f38 <OC_I2CL_Read+0x238>
  // printf("\n read receive ACK-device address(read)! \n");
   //set the RD and ACK bit(bit5 and bit3)
    	IOWR( i2c_base, 4,((i+1) == nReadLength)?0x28:0x20);
   20ebc:	e0bffc17 	ldw	r2,-16(fp)
   20ec0:	10800404 	addi	r2,r2,16
   20ec4:	1009883a 	mov	r4,r2
   20ec8:	e0bff917 	ldw	r2,-28(fp)
   20ecc:	10c00044 	addi	r3,r2,1
   20ed0:	e0800217 	ldw	r2,8(fp)
   20ed4:	1880021e 	bne	r3,r2,20ee0 <OC_I2CL_Read+0x1e0>
   20ed8:	00800a04 	movi	r2,40
   20edc:	00000106 	br	20ee4 <OC_I2CL_Read+0x1e4>
   20ee0:	00800804 	movi	r2,32
   20ee4:	20800035 	stwio	r2,0(r4)

        if (!ACK_judge_for_read( i2c_base)){
   20ee8:	e13ffc17 	ldw	r4,-16(fp)
   20eec:	00207880 	call	20788 <ACK_judge_for_read>
   20ef0:	1000051e 	bne	r2,zero,20f08 <OC_I2CL_Read+0x208>
            printf("OC_I2CL_Read error[4]\r\n");
   20ef4:	010000f4 	movhi	r4,3
   20ef8:	21144a04 	addi	r4,r4,20776
   20efc:	00242240 	call	24224 <puts>
            return FALSE;
   20f00:	0005883a 	mov	r2,zero
   20f04:	00001906 	br	20f6c <OC_I2CL_Read+0x26c>
        }
   // printf("\n read receive ACK-device address(read)! \n");

        Data32=IORD( i2c_base, 3);
   20f08:	e0bffc17 	ldw	r2,-16(fp)
   20f0c:	10800304 	addi	r2,r2,12
   20f10:	10800037 	ldwio	r2,0(r2)
   20f14:	e0bffb15 	stw	r2,-20(fp)
        *(pData8+i) =  Data32 & 0xff;
   20f18:	e0bff917 	ldw	r2,-28(fp)
   20f1c:	e0ffff17 	ldw	r3,-4(fp)
   20f20:	1885883a 	add	r2,r3,r2
   20f24:	e0fffb17 	ldw	r3,-20(fp)
   20f28:	10c00005 	stb	r3,0(r2)
//   printf("\n read receive ACK-device address(read)! \n");

       //read the rxr data

#if 1
    for(i=0;i<nReadLength;i++){
   20f2c:	e0bff917 	ldw	r2,-28(fp)
   20f30:	10800044 	addi	r2,r2,1
   20f34:	e0bff915 	stw	r2,-28(fp)
   20f38:	e0fff917 	ldw	r3,-28(fp)
   20f3c:	e0800217 	ldw	r2,8(fp)
   20f40:	18bfde16 	blt	r3,r2,20ebc <__alt_data_end+0xfffe0ebc>
    DataLow =  Data32 & 0xff;

    pData16 = (DataHigh << 8) | DataLow;
#endif

   if (!Write32_Data( i2c_base, 4,0x40))
   20f44:	01801004 	movi	r6,64
   20f48:	01400104 	movi	r5,4
   20f4c:	e13ffc17 	ldw	r4,-16(fp)
   20f50:	00201d40 	call	201d4 <Write32_Data>
   20f54:	1000021e 	bne	r2,zero,20f60 <OC_I2CL_Read+0x260>
       return FALSE;
   20f58:	0005883a 	mov	r2,zero
   20f5c:	00000306 	br	20f6c <OC_I2CL_Read+0x26c>

   //OS_msleep(1);
    usleep(SLEEP_TIME);
   20f60:	01003e84 	movi	r4,250
   20f64:	00341580 	call	34158 <usleep>

   return TRUE;
   20f68:	00800044 	movi	r2,1

}
   20f6c:	e037883a 	mov	sp,fp
   20f70:	dfc00117 	ldw	ra,4(sp)
   20f74:	df000017 	ldw	fp,0(sp)
   20f78:	dec00204 	addi	sp,sp,8
   20f7c:	f800283a 	ret

00020f80 <Focus_Init>:
// please observe focus performance when change the scal ,scal_f. or when change camera frame rate
alt_u8  focus_scal   =   4;  // scan 0 -> 1023 , step: SCAL , to find STEP_UP
alt_u8  focus_scal_f =   1;  //  scan STEP_UP + - SCAL/2 , step: SCAL_F
alt_u8  focus_th     =   20;

void Focus_Init(void){
   20f80:	defffe04 	addi	sp,sp,-8
   20f84:	dfc00115 	stw	ra,4(sp)
   20f88:	df000015 	stw	fp,0(sp)
   20f8c:	d839883a 	mov	fp,sp
  // please look at TERASIC_AUTO_FOCUS IP to see register's detail.
  IOWR(TERASIC_AUTO_FOCUS_0_BASE,REG_CTRL, 0);// focus mode : 1: window-screen, 0: full-screen
   20f90:	0007883a 	mov	r3,zero
   20f94:	00800134 	movhi	r2,4
   20f98:	10840904 	addi	r2,r2,4132
   20f9c:	10c00035 	stwio	r3,0(r2)
  IOWR(TERASIC_AUTO_FOCUS_0_BASE,REG_FOCUS_W, focus_width);// focus_width
   20fa0:	d0a0010b 	ldhu	r2,-32764(gp)
   20fa4:	10ffffcc 	andi	r3,r2,65535
   20fa8:	00800134 	movhi	r2,4
   20fac:	10840a04 	addi	r2,r2,4136
   20fb0:	10c00035 	stwio	r3,0(r2)
  IOWR(TERASIC_AUTO_FOCUS_0_BASE,REG_FOCUS_H, focus_height);// focus_height
   20fb4:	d0a0018b 	ldhu	r2,-32762(gp)
   20fb8:	10ffffcc 	andi	r3,r2,65535
   20fbc:	00800134 	movhi	r2,4
   20fc0:	10840b04 	addi	r2,r2,4140
   20fc4:	10c00035 	stwio	r3,0(r2)
  IOWR(TERASIC_AUTO_FOCUS_0_BASE,REG_FOCUS_X_START, video_w/2-focus_width/2);//x_start
   20fc8:	d0a0000b 	ldhu	r2,-32768(gp)
   20fcc:	10bfffcc 	andi	r2,r2,65535
   20fd0:	1004d07a 	srli	r2,r2,1
   20fd4:	10ffffcc 	andi	r3,r2,65535
   20fd8:	d0a0010b 	ldhu	r2,-32764(gp)
   20fdc:	10bfffcc 	andi	r2,r2,65535
   20fe0:	1004d07a 	srli	r2,r2,1
   20fe4:	10bfffcc 	andi	r2,r2,65535
   20fe8:	1887c83a 	sub	r3,r3,r2
   20fec:	00800134 	movhi	r2,4
   20ff0:	10840c04 	addi	r2,r2,4144
   20ff4:	10c00035 	stwio	r3,0(r2)
  IOWR(TERASIC_AUTO_FOCUS_0_BASE,REG_FOCUS_Y_START, video_h/2-focus_height/2);// y_start
   20ff8:	d0a0008b 	ldhu	r2,-32766(gp)
   20ffc:	10bfffcc 	andi	r2,r2,65535
   21000:	1004d07a 	srli	r2,r2,1
   21004:	10ffffcc 	andi	r3,r2,65535
   21008:	d0a0018b 	ldhu	r2,-32762(gp)
   2100c:	10bfffcc 	andi	r2,r2,65535
   21010:	1004d07a 	srli	r2,r2,1
   21014:	10bfffcc 	andi	r2,r2,65535
   21018:	1887c83a 	sub	r3,r3,r2
   2101c:	00800134 	movhi	r2,4
   21020:	10840d04 	addi	r2,r2,4148
   21024:	10c00035 	stwio	r3,0(r2)

  IOWR(TERASIC_AUTO_FOCUS_0_BASE,REG_SCAL, focus_scal*256 + focus_scal_f); // scan 0 -> 1023 , step: SCAL , to find STEP_UP
   21028:	d0a00203 	ldbu	r2,-32760(gp)
   2102c:	10803fcc 	andi	r2,r2,255
   21030:	1006923a 	slli	r3,r2,8
   21034:	d0a00243 	ldbu	r2,-32759(gp)
   21038:	10803fcc 	andi	r2,r2,255
   2103c:	1887883a 	add	r3,r3,r2
   21040:	00800134 	movhi	r2,4
   21044:	10840e04 	addi	r2,r2,4152
   21048:	10c00035 	stwio	r3,0(r2)
                                                                          //  scan STEP_UP + - SCAL/2 , step: SCAL_F
  IOWR(TERASIC_AUTO_FOCUS_0_BASE,REG_TH, focus_th);
   2104c:	d0a00283 	ldbu	r2,-32758(gp)
   21050:	10c03fcc 	andi	r3,r2,255
   21054:	00800134 	movhi	r2,4
   21058:	10840f04 	addi	r2,r2,4156
   2105c:	10c00035 	stwio	r3,0(r2)

  //////////// focus at initial time
  usleep(100);
   21060:	01001904 	movi	r4,100
   21064:	00341580 	call	34158 <usleep>
  IOWR(TERASIC_AUTO_FOCUS_0_BASE,REG_GO, 1);
   21068:	00c00044 	movi	r3,1
   2106c:	00800134 	movhi	r2,4
   21070:	10840804 	addi	r2,r2,4128
   21074:	10c00035 	stwio	r3,0(r2)
  usleep(2);
   21078:	01000084 	movi	r4,2
   2107c:	00341580 	call	34158 <usleep>
  IOWR(TERASIC_AUTO_FOCUS_0_BASE,REG_GO, 0);
   21080:	0007883a 	mov	r3,zero
   21084:	00800134 	movhi	r2,4
   21088:	10840804 	addi	r2,r2,4128
   2108c:	10c00035 	stwio	r3,0(r2)
}
   21090:	0001883a 	nop
   21094:	e037883a 	mov	sp,fp
   21098:	dfc00117 	ldw	ra,4(sp)
   2109c:	df000017 	ldw	fp,0(sp)
   210a0:	dec00204 	addi	sp,sp,8
   210a4:	f800283a 	ret

000210a8 <Focus_Window>:

alt_u16 Focus_Window(int x,int y){
   210a8:	defffa04 	addi	sp,sp,-24
   210ac:	dfc00515 	stw	ra,20(sp)
   210b0:	df000415 	stw	fp,16(sp)
   210b4:	df000404 	addi	fp,sp,16
   210b8:	e13ffe15 	stw	r4,-8(fp)
   210bc:	e17fff15 	stw	r5,-4(fp)
   alt_u16 x_start,y_start;
   alt_u16 end_focus;

   if(Focus_Released()) { // pre focus done
   210c0:	00212880 	call	21288 <Focus_Released>
   210c4:	10006a26 	beq	r2,zero,21270 <Focus_Window+0x1c8>
	   IOWR(TERASIC_AUTO_FOCUS_0_BASE,REG_CTRL, 1);// focus mode : 1: window-screen, 0: full-screen
   210c8:	00c00044 	movi	r3,1
   210cc:	00800134 	movhi	r2,4
   210d0:	10840904 	addi	r2,r2,4132
   210d4:	10c00035 	stwio	r3,0(r2)

	   if(( x -  focus_width/2) < 0 ) x_start = 0;
   210d8:	d0a0010b 	ldhu	r2,-32764(gp)
   210dc:	10bfffcc 	andi	r2,r2,65535
   210e0:	1004d07a 	srli	r2,r2,1
   210e4:	10bfffcc 	andi	r2,r2,65535
   210e8:	e0fffe17 	ldw	r3,-8(fp)
   210ec:	1885c83a 	sub	r2,r3,r2
   210f0:	1000020e 	bge	r2,zero,210fc <Focus_Window+0x54>
   210f4:	e03ffc0d 	sth	zero,-16(fp)
   210f8:	00001606 	br	21154 <Focus_Window+0xac>
	   else if(( x + focus_width/2 ) > video_w )  x_start = video_w -1 -focus_width;
   210fc:	d0a0010b 	ldhu	r2,-32764(gp)
   21100:	10bfffcc 	andi	r2,r2,65535
   21104:	1004d07a 	srli	r2,r2,1
   21108:	10ffffcc 	andi	r3,r2,65535
   2110c:	e0bffe17 	ldw	r2,-8(fp)
   21110:	1885883a 	add	r2,r3,r2
   21114:	d0e0000b 	ldhu	r3,-32768(gp)
   21118:	18ffffcc 	andi	r3,r3,65535
   2111c:	1880060e 	bge	r3,r2,21138 <Focus_Window+0x90>
   21120:	d0e0000b 	ldhu	r3,-32768(gp)
   21124:	d0a0010b 	ldhu	r2,-32764(gp)
   21128:	1885c83a 	sub	r2,r3,r2
   2112c:	10bfffc4 	addi	r2,r2,-1
   21130:	e0bffc0d 	sth	r2,-16(fp)
   21134:	00000706 	br	21154 <Focus_Window+0xac>
	   else x_start = x - focus_width/2;
   21138:	e0bffe17 	ldw	r2,-8(fp)
   2113c:	1007883a 	mov	r3,r2
   21140:	d0a0010b 	ldhu	r2,-32764(gp)
   21144:	10bfffcc 	andi	r2,r2,65535
   21148:	1004d07a 	srli	r2,r2,1
   2114c:	1885c83a 	sub	r2,r3,r2
   21150:	e0bffc0d 	sth	r2,-16(fp)

	   if(( y -  focus_height/2) < 0 ) y_start = 0;
   21154:	d0a0018b 	ldhu	r2,-32762(gp)
   21158:	10bfffcc 	andi	r2,r2,65535
   2115c:	1004d07a 	srli	r2,r2,1
   21160:	10bfffcc 	andi	r2,r2,65535
   21164:	e0ffff17 	ldw	r3,-4(fp)
   21168:	1885c83a 	sub	r2,r3,r2
   2116c:	1000020e 	bge	r2,zero,21178 <Focus_Window+0xd0>
   21170:	e03ffc8d 	sth	zero,-14(fp)
   21174:	00001606 	br	211d0 <Focus_Window+0x128>
	   else if(( y + focus_height/2 ) > video_h )  y_start = video_h -1 -focus_height;
   21178:	d0a0018b 	ldhu	r2,-32762(gp)
   2117c:	10bfffcc 	andi	r2,r2,65535
   21180:	1004d07a 	srli	r2,r2,1
   21184:	10ffffcc 	andi	r3,r2,65535
   21188:	e0bfff17 	ldw	r2,-4(fp)
   2118c:	1885883a 	add	r2,r3,r2
   21190:	d0e0008b 	ldhu	r3,-32766(gp)
   21194:	18ffffcc 	andi	r3,r3,65535
   21198:	1880060e 	bge	r3,r2,211b4 <Focus_Window+0x10c>
   2119c:	d0e0008b 	ldhu	r3,-32766(gp)
   211a0:	d0a0018b 	ldhu	r2,-32762(gp)
   211a4:	1885c83a 	sub	r2,r3,r2
   211a8:	10bfffc4 	addi	r2,r2,-1
   211ac:	e0bffc8d 	sth	r2,-14(fp)
   211b0:	00000706 	br	211d0 <Focus_Window+0x128>
	   else y_start = y - focus_height/2;
   211b4:	e0bfff17 	ldw	r2,-4(fp)
   211b8:	1007883a 	mov	r3,r2
   211bc:	d0a0018b 	ldhu	r2,-32762(gp)
   211c0:	10bfffcc 	andi	r2,r2,65535
   211c4:	1004d07a 	srli	r2,r2,1
   211c8:	1885c83a 	sub	r2,r3,r2
   211cc:	e0bffc8d 	sth	r2,-14(fp)

	   printf("x_start= %d,y_start= %d\n",x_start,y_start);
   211d0:	e0bffc0b 	ldhu	r2,-16(fp)
   211d4:	e0fffc8b 	ldhu	r3,-14(fp)
   211d8:	180d883a 	mov	r6,r3
   211dc:	100b883a 	mov	r5,r2
   211e0:	010000f4 	movhi	r4,3
   211e4:	21145004 	addi	r4,r4,20800
   211e8:	00241080 	call	24108 <printf>

	   IOWR(TERASIC_AUTO_FOCUS_0_BASE,REG_FOCUS_X_START, x_start);//x_start
   211ec:	e0fffc0b 	ldhu	r3,-16(fp)
   211f0:	00800134 	movhi	r2,4
   211f4:	10840c04 	addi	r2,r2,4144
   211f8:	10c00035 	stwio	r3,0(r2)
	   IOWR(TERASIC_AUTO_FOCUS_0_BASE,REG_FOCUS_Y_START, y_start);//y_start
   211fc:	e0fffc8b 	ldhu	r3,-14(fp)
   21200:	00800134 	movhi	r2,4
   21204:	10840d04 	addi	r2,r2,4148
   21208:	10c00035 	stwio	r3,0(r2)

	   usleep(10);
   2120c:	01000284 	movi	r4,10
   21210:	00341580 	call	34158 <usleep>

	   IOWR(TERASIC_AUTO_FOCUS_0_BASE,REG_GO, 1);
   21214:	00c00044 	movi	r3,1
   21218:	00800134 	movhi	r2,4
   2121c:	10840804 	addi	r2,r2,4128
   21220:	10c00035 	stwio	r3,0(r2)
	   usleep(2);
   21224:	01000084 	movi	r4,2
   21228:	00341580 	call	34158 <usleep>
	   IOWR(TERASIC_AUTO_FOCUS_0_BASE,REG_GO, 0);
   2122c:	0007883a 	mov	r3,zero
   21230:	00800134 	movhi	r2,4
   21234:	10840804 	addi	r2,r2,4128
   21238:	10c00035 	stwio	r3,0(r2)
	   Focus_Released();
   2123c:	00212880 	call	21288 <Focus_Released>

	   end_focus = IORD(TERASIC_AUTO_FOCUS_0_BASE,REG_STATUS)&0x0FFF;
   21240:	00800134 	movhi	r2,4
   21244:	10840804 	addi	r2,r2,4128
   21248:	10800037 	ldwio	r2,0(r2)
   2124c:	1083ffcc 	andi	r2,r2,4095
   21250:	e0bffd0d 	sth	r2,-12(fp)
	   printf("end_focus = %d \n",end_focus);
   21254:	e0bffd0b 	ldhu	r2,-12(fp)
   21258:	100b883a 	mov	r5,r2
   2125c:	010000f4 	movhi	r4,3
   21260:	21145704 	addi	r4,r4,20828
   21264:	00241080 	call	24108 <printf>

	   return end_focus;
   21268:	e0bffd0b 	ldhu	r2,-12(fp)
   2126c:	00000106 	br	21274 <Focus_Window+0x1cc>

   }
   return end_focus;
   21270:	e0bffd0b 	ldhu	r2,-12(fp)

}
   21274:	e037883a 	mov	sp,fp
   21278:	dfc00117 	ldw	ra,4(sp)
   2127c:	df000017 	ldw	fp,0(sp)
   21280:	dec00204 	addi	sp,sp,8
   21284:	f800283a 	ret

00021288 <Focus_Released>:

int Focus_Released(void){
   21288:	defffc04 	addi	sp,sp,-16
   2128c:	dfc00315 	stw	ra,12(sp)
   21290:	df000215 	stw	fp,8(sp)
   21294:	df000204 	addi	fp,sp,8
  int Released = FALSE;
   21298:	e03ffe15 	stw	zero,-8(fp)
 * alt_nticks() returns the elapsed number of system clock ticks since reset.
 */

static ALT_INLINE alt_u32 ALT_ALWAYS_INLINE alt_nticks (void)
{
  return _alt_nticks;
   2129c:	008000f4 	movhi	r2,3
   212a0:	109f5c04 	addi	r2,r2,32112
   212a4:	10c00017 	ldw	r3,0(r2)
 * Obtain the system clock rate in ticks/s. 
 */

static ALT_INLINE alt_u32 ALT_ALWAYS_INLINE alt_ticks_per_second (void)
{
  return _alt_tick_rate;
   212a8:	008000f4 	movhi	r2,3
   212ac:	109f5d04 	addi	r2,r2,32116
   212b0:	10800017 	ldw	r2,0(r2)
  alt_u32 TimeOut;

  TimeOut = alt_nticks() + alt_ticks_per_second()*8;
   212b4:	100490fa 	slli	r2,r2,3
   212b8:	1885883a 	add	r2,r3,r2
   212bc:	e0bfff15 	stw	r2,-4(fp)

  while((IORD(TERASIC_AUTO_FOCUS_0_BASE,REG_STATUS)&0x8000) ==0 && alt_nticks() < TimeOut ); // waiting for VCM release I2C bus
   212c0:	0001883a 	nop
   212c4:	00800134 	movhi	r2,4
   212c8:	10840804 	addi	r2,r2,4128
   212cc:	10800037 	ldwio	r2,0(r2)
   212d0:	10a0000c 	andi	r2,r2,32768
   212d4:	1000051e 	bne	r2,zero,212ec <Focus_Released+0x64>
 * alt_nticks() returns the elapsed number of system clock ticks since reset.
 */

static ALT_INLINE alt_u32 ALT_ALWAYS_INLINE alt_nticks (void)
{
  return _alt_nticks;
   212d8:	008000f4 	movhi	r2,3
   212dc:	109f5c04 	addi	r2,r2,32112
   212e0:	10c00017 	ldw	r3,0(r2)
   212e4:	e0bfff17 	ldw	r2,-4(fp)
   212e8:	18bff636 	bltu	r3,r2,212c4 <__alt_data_end+0xfffe12c4>
   212ec:	008000f4 	movhi	r2,3
   212f0:	109f5c04 	addi	r2,r2,32112
   212f4:	10c00017 	ldw	r3,0(r2)

  if(alt_nticks() < TimeOut ) Released = TRUE;
   212f8:	e0bfff17 	ldw	r2,-4(fp)
   212fc:	1880032e 	bgeu	r3,r2,2130c <Focus_Released+0x84>
   21300:	00800044 	movi	r2,1
   21304:	e0bffe15 	stw	r2,-8(fp)
   21308:	00000306 	br	21318 <Focus_Released+0x90>
  else printf("\n =>Released check TimeOut!\n");
   2130c:	010000f4 	movhi	r4,3
   21310:	21145c04 	addi	r4,r4,20848
   21314:	00242240 	call	24224 <puts>

  usleep(10000);
   21318:	0109c404 	movi	r4,10000
   2131c:	00341580 	call	34158 <usleep>

  return Released;
   21320:	e0bffe17 	ldw	r2,-8(fp)
}
   21324:	e037883a 	mov	sp,fp
   21328:	dfc00117 	ldw	ra,4(sp)
   2132c:	df000017 	ldw	fp,0(sp)
   21330:	dec00204 	addi	sp,sp,8
   21334:	f800283a 	ret

00021338 <mipi_clear_error>:

alt_32 col_and_det, x_values;
alt_16 x_len, x_cen, pix_dist_from_cen;			//temp values
alt_16 color, detected, hori_dist, diag_dist,prevhori,prevdiag;

void mipi_clear_error(void){
   21338:	defffe04 	addi	sp,sp,-8
   2133c:	dfc00115 	stw	ra,4(sp)
   21340:	df000015 	stw	fp,0(sp)
   21344:	d839883a 	mov	fp,sp
	MipiBridgeRegWrite(MIPI_REG_CSIStatus,0x01FF); // clear error
   21348:	01407fc4 	movi	r5,511
   2134c:	01001904 	movi	r4,100
   21350:	0021f5c0 	call	21f5c <MipiBridgeRegWrite>
	MipiBridgeRegWrite(MIPI_REG_MDLSynErr,0x0000); // clear error
   21354:	000b883a 	mov	r5,zero
   21358:	01001a04 	movi	r4,104
   2135c:	0021f5c0 	call	21f5c <MipiBridgeRegWrite>
	MipiBridgeRegWrite(MIPI_REG_FrmErrCnt,0x0000); // clear error
   21360:	000b883a 	mov	r5,zero
   21364:	01002004 	movi	r4,128
   21368:	0021f5c0 	call	21f5c <MipiBridgeRegWrite>
	MipiBridgeRegWrite(MIPI_REG_MDLErrCnt, 0x0000); // clear error
   2136c:	000b883a 	mov	r5,zero
   21370:	01002404 	movi	r4,144
   21374:	0021f5c0 	call	21f5c <MipiBridgeRegWrite>

  	MipiBridgeRegWrite(0x0082,0x00);
   21378:	000b883a 	mov	r5,zero
   2137c:	01002084 	movi	r4,130
   21380:	0021f5c0 	call	21f5c <MipiBridgeRegWrite>
  	MipiBridgeRegWrite(0x0084,0x00);
   21384:	000b883a 	mov	r5,zero
   21388:	01002104 	movi	r4,132
   2138c:	0021f5c0 	call	21f5c <MipiBridgeRegWrite>
  	MipiBridgeRegWrite(0x0086,0x00);
   21390:	000b883a 	mov	r5,zero
   21394:	01002184 	movi	r4,134
   21398:	0021f5c0 	call	21f5c <MipiBridgeRegWrite>
  	MipiBridgeRegWrite(0x0088,0x00);
   2139c:	000b883a 	mov	r5,zero
   213a0:	01002204 	movi	r4,136
   213a4:	0021f5c0 	call	21f5c <MipiBridgeRegWrite>
  	MipiBridgeRegWrite(0x008A,0x00);
   213a8:	000b883a 	mov	r5,zero
   213ac:	01002284 	movi	r4,138
   213b0:	0021f5c0 	call	21f5c <MipiBridgeRegWrite>
  	MipiBridgeRegWrite(0x008C,0x00);
   213b4:	000b883a 	mov	r5,zero
   213b8:	01002304 	movi	r4,140
   213bc:	0021f5c0 	call	21f5c <MipiBridgeRegWrite>
  	MipiBridgeRegWrite(0x008E,0x00);
   213c0:	000b883a 	mov	r5,zero
   213c4:	01002384 	movi	r4,142
   213c8:	0021f5c0 	call	21f5c <MipiBridgeRegWrite>
  	MipiBridgeRegWrite(0x0090,0x00);
   213cc:	000b883a 	mov	r5,zero
   213d0:	01002404 	movi	r4,144
   213d4:	0021f5c0 	call	21f5c <MipiBridgeRegWrite>
}
   213d8:	0001883a 	nop
   213dc:	e037883a 	mov	sp,fp
   213e0:	dfc00117 	ldw	ra,4(sp)
   213e4:	df000017 	ldw	fp,0(sp)
   213e8:	dec00204 	addi	sp,sp,8
   213ec:	f800283a 	ret

000213f0 <mipi_show_error_info>:

void mipi_show_error_info(void){
   213f0:	defff904 	addi	sp,sp,-28
   213f4:	dfc00615 	stw	ra,24(sp)
   213f8:	df000515 	stw	fp,20(sp)
   213fc:	df000504 	addi	fp,sp,20

	alt_u16 PHY_status, SCI_status, MDLSynErr, FrmErrCnt, MDLErrCnt;

	PHY_status = MipiBridgeRegRead(MIPI_REG_PHYSta);
   21400:	01001884 	movi	r4,98
   21404:	0021fc80 	call	21fc8 <MipiBridgeRegRead>
   21408:	e0bffd0d 	sth	r2,-12(fp)
	SCI_status = MipiBridgeRegRead(MIPI_REG_CSIStatus);
   2140c:	01001904 	movi	r4,100
   21410:	0021fc80 	call	21fc8 <MipiBridgeRegRead>
   21414:	e0bffd8d 	sth	r2,-10(fp)
	MDLSynErr = MipiBridgeRegRead(MIPI_REG_MDLSynErr);
   21418:	01001a04 	movi	r4,104
   2141c:	0021fc80 	call	21fc8 <MipiBridgeRegRead>
   21420:	e0bffe0d 	sth	r2,-8(fp)
	FrmErrCnt = MipiBridgeRegRead(MIPI_REG_FrmErrCnt);
   21424:	01002004 	movi	r4,128
   21428:	0021fc80 	call	21fc8 <MipiBridgeRegRead>
   2142c:	e0bffe8d 	sth	r2,-6(fp)
	MDLErrCnt = MipiBridgeRegRead(MIPI_REG_MDLErrCnt);
   21430:	01002404 	movi	r4,144
   21434:	0021fc80 	call	21fc8 <MipiBridgeRegRead>
   21438:	e0bfff0d 	sth	r2,-4(fp)
	printf("PHY_status=%xh, CSI_status=%xh, MDLSynErr=%xh, FrmErrCnt=%xh, MDLErrCnt=%xh\r\n", PHY_status, SCI_status, MDLSynErr,FrmErrCnt, MDLErrCnt);
   2143c:	e13ffd0b 	ldhu	r4,-12(fp)
   21440:	e17ffd8b 	ldhu	r5,-10(fp)
   21444:	e1bffe0b 	ldhu	r6,-8(fp)
   21448:	e0bffe8b 	ldhu	r2,-6(fp)
   2144c:	e0ffff0b 	ldhu	r3,-4(fp)
   21450:	d8c00115 	stw	r3,4(sp)
   21454:	d8800015 	stw	r2,0(sp)
   21458:	300f883a 	mov	r7,r6
   2145c:	280d883a 	mov	r6,r5
   21460:	200b883a 	mov	r5,r4
   21464:	010000f4 	movhi	r4,3
   21468:	21146404 	addi	r4,r4,20880
   2146c:	00241080 	call	24108 <printf>
}
   21470:	0001883a 	nop
   21474:	e037883a 	mov	sp,fp
   21478:	dfc00117 	ldw	ra,4(sp)
   2147c:	df000017 	ldw	fp,0(sp)
   21480:	dec00204 	addi	sp,sp,8
   21484:	f800283a 	ret

00021488 <mipi_show_error_info_more>:

void mipi_show_error_info_more(void){
   21488:	defffe04 	addi	sp,sp,-8
   2148c:	dfc00115 	stw	ra,4(sp)
   21490:	df000015 	stw	fp,0(sp)
   21494:	d839883a 	mov	fp,sp
    printf("FrmErrCnt = %d\n",MipiBridgeRegRead(0x0080));
   21498:	01002004 	movi	r4,128
   2149c:	0021fc80 	call	21fc8 <MipiBridgeRegRead>
   214a0:	10bfffcc 	andi	r2,r2,65535
   214a4:	100b883a 	mov	r5,r2
   214a8:	010000f4 	movhi	r4,3
   214ac:	21147804 	addi	r4,r4,20960
   214b0:	00241080 	call	24108 <printf>
    printf("CRCErrCnt = %d\n",MipiBridgeRegRead(0x0082));
   214b4:	01002084 	movi	r4,130
   214b8:	0021fc80 	call	21fc8 <MipiBridgeRegRead>
   214bc:	10bfffcc 	andi	r2,r2,65535
   214c0:	100b883a 	mov	r5,r2
   214c4:	010000f4 	movhi	r4,3
   214c8:	21147c04 	addi	r4,r4,20976
   214cc:	00241080 	call	24108 <printf>
    printf("CorErrCnt = %d\n",MipiBridgeRegRead(0x0084));
   214d0:	01002104 	movi	r4,132
   214d4:	0021fc80 	call	21fc8 <MipiBridgeRegRead>
   214d8:	10bfffcc 	andi	r2,r2,65535
   214dc:	100b883a 	mov	r5,r2
   214e0:	010000f4 	movhi	r4,3
   214e4:	21148004 	addi	r4,r4,20992
   214e8:	00241080 	call	24108 <printf>
    printf("HdrErrCnt = %d\n",MipiBridgeRegRead(0x0086));
   214ec:	01002184 	movi	r4,134
   214f0:	0021fc80 	call	21fc8 <MipiBridgeRegRead>
   214f4:	10bfffcc 	andi	r2,r2,65535
   214f8:	100b883a 	mov	r5,r2
   214fc:	010000f4 	movhi	r4,3
   21500:	21148404 	addi	r4,r4,21008
   21504:	00241080 	call	24108 <printf>
    printf("EIDErrCnt = %d\n",MipiBridgeRegRead(0x0088));
   21508:	01002204 	movi	r4,136
   2150c:	0021fc80 	call	21fc8 <MipiBridgeRegRead>
   21510:	10bfffcc 	andi	r2,r2,65535
   21514:	100b883a 	mov	r5,r2
   21518:	010000f4 	movhi	r4,3
   2151c:	21148804 	addi	r4,r4,21024
   21520:	00241080 	call	24108 <printf>
    printf("CtlErrCnt = %d\n",MipiBridgeRegRead(0x008A));
   21524:	01002284 	movi	r4,138
   21528:	0021fc80 	call	21fc8 <MipiBridgeRegRead>
   2152c:	10bfffcc 	andi	r2,r2,65535
   21530:	100b883a 	mov	r5,r2
   21534:	010000f4 	movhi	r4,3
   21538:	21148c04 	addi	r4,r4,21040
   2153c:	00241080 	call	24108 <printf>
    printf("SoTErrCnt = %d\n",MipiBridgeRegRead(0x008C));
   21540:	01002304 	movi	r4,140
   21544:	0021fc80 	call	21fc8 <MipiBridgeRegRead>
   21548:	10bfffcc 	andi	r2,r2,65535
   2154c:	100b883a 	mov	r5,r2
   21550:	010000f4 	movhi	r4,3
   21554:	21149004 	addi	r4,r4,21056
   21558:	00241080 	call	24108 <printf>
    printf("SynErrCnt = %d\n",MipiBridgeRegRead(0x008E));
   2155c:	01002384 	movi	r4,142
   21560:	0021fc80 	call	21fc8 <MipiBridgeRegRead>
   21564:	10bfffcc 	andi	r2,r2,65535
   21568:	100b883a 	mov	r5,r2
   2156c:	010000f4 	movhi	r4,3
   21570:	21149404 	addi	r4,r4,21072
   21574:	00241080 	call	24108 <printf>
    printf("MDLErrCnt = %d\n",MipiBridgeRegRead(0x0090));
   21578:	01002404 	movi	r4,144
   2157c:	0021fc80 	call	21fc8 <MipiBridgeRegRead>
   21580:	10bfffcc 	andi	r2,r2,65535
   21584:	100b883a 	mov	r5,r2
   21588:	010000f4 	movhi	r4,3
   2158c:	21149804 	addi	r4,r4,21088
   21590:	00241080 	call	24108 <printf>
    printf("FIFOSTATUS = %d\n",MipiBridgeRegRead(0x00F8));
   21594:	01003e04 	movi	r4,248
   21598:	0021fc80 	call	21fc8 <MipiBridgeRegRead>
   2159c:	10bfffcc 	andi	r2,r2,65535
   215a0:	100b883a 	mov	r5,r2
   215a4:	010000f4 	movhi	r4,3
   215a8:	21149c04 	addi	r4,r4,21104
   215ac:	00241080 	call	24108 <printf>
    printf("DataType = 0x%04x\n",MipiBridgeRegRead(0x006A));
   215b0:	01001a84 	movi	r4,106
   215b4:	0021fc80 	call	21fc8 <MipiBridgeRegRead>
   215b8:	10bfffcc 	andi	r2,r2,65535
   215bc:	100b883a 	mov	r5,r2
   215c0:	010000f4 	movhi	r4,3
   215c4:	2114a104 	addi	r4,r4,21124
   215c8:	00241080 	call	24108 <printf>
    printf("CSIPktLen = %d\n",MipiBridgeRegRead(0x006E));
   215cc:	01001b84 	movi	r4,110
   215d0:	0021fc80 	call	21fc8 <MipiBridgeRegRead>
   215d4:	10bfffcc 	andi	r2,r2,65535
   215d8:	100b883a 	mov	r5,r2
   215dc:	010000f4 	movhi	r4,3
   215e0:	2114a604 	addi	r4,r4,21144
   215e4:	00241080 	call	24108 <printf>
}
   215e8:	0001883a 	nop
   215ec:	e037883a 	mov	sp,fp
   215f0:	dfc00117 	ldw	ra,4(sp)
   215f4:	df000017 	ldw	fp,0(sp)
   215f8:	dec00204 	addi	sp,sp,8
   215fc:	f800283a 	ret

00021600 <MIPI_Init>:



bool MIPI_Init(void){
   21600:	defffd04 	addi	sp,sp,-12
   21604:	dfc00215 	stw	ra,8(sp)
   21608:	df000115 	stw	fp,4(sp)
   2160c:	df000104 	addi	fp,sp,4
	bool bSuccess;


	bSuccess = oc_i2c_init_ex(I2C_OPENCORES_MIPI_BASE, 50*1000*1000,400*1000); //I2C: 400K
   21610:	018001b4 	movhi	r6,6
   21614:	3186a004 	addi	r6,r6,6784
   21618:	0140bef4 	movhi	r5,763
   2161c:	297c2004 	addi	r5,r5,-3968
   21620:	01000134 	movhi	r4,4
   21624:	21041804 	addi	r4,r4,4192
   21628:	00202dc0 	call	202dc <oc_i2c_init_ex>
   2162c:	e0bfff15 	stw	r2,-4(fp)
	if (!bSuccess)
   21630:	e0bfff17 	ldw	r2,-4(fp)
   21634:	1000031e 	bne	r2,zero,21644 <MIPI_Init+0x44>
		printf("failed to init MIPI- Bridge i2c\r\n");
   21638:	010000f4 	movhi	r4,3
   2163c:	2114aa04 	addi	r4,r4,21160
   21640:	00242240 	call	24224 <puts>

    usleep(50*1000);
   21644:	0130d414 	movui	r4,50000
   21648:	00341580 	call	34158 <usleep>
    MipiBridgeInit();
   2164c:	00220400 	call	22040 <MipiBridgeInit>

    usleep(500*1000);
   21650:	01000234 	movhi	r4,8
   21654:	21284804 	addi	r4,r4,-24288
   21658:	00341580 	call	34158 <usleep>

//	bSuccess = oc_i2c_init_ex(I2C_OPENCORES_CAMERA_BASE, 50*1000*1000,400*1000); //I2C: 400K
//	if (!bSuccess)
//		printf("failed to init MIPI- Camera i2c\r\n");

    MipiCameraInit();
   2165c:	00228240 	call	22824 <MipiCameraInit>
    MIPI_BIN_LEVEL(DEFAULT_LEVEL);
   21660:	010000c4 	movi	r4,3
   21664:	00226640 	call	22664 <MIPI_BIN_LEVEL>
//    OV8865_FOCUS_Move_to(340);

//    oc_i2c_uninit(I2C_OPENCORES_CAMERA_BASE);  // Release I2C bus , due to two I2C master shared!


 	usleep(1000);
   21668:	0100fa04 	movi	r4,1000
   2166c:	00341580 	call	34158 <usleep>


//    oc_i2c_uninit(I2C_OPENCORES_MIPI_BASE);

	return bSuccess;
   21670:	e0bfff17 	ldw	r2,-4(fp)
}
   21674:	e037883a 	mov	sp,fp
   21678:	dfc00117 	ldw	ra,4(sp)
   2167c:	df000017 	ldw	fp,0(sp)
   21680:	dec00204 	addi	sp,sp,8
   21684:	f800283a 	ret

00021688 <sendToControl>:

//////////////////////////////UART COMM//////////////////////////////
char msgVision[MSG_BUFFER_SIZE];
void sendToControl(alt_16 color, alt_16 detected, alt_16 hori_dist, alt_16 diag_dist){
   21688:	defff704 	addi	sp,sp,-36
   2168c:	dfc00815 	stw	ra,32(sp)
   21690:	df000715 	stw	fp,28(sp)
   21694:	df000704 	addi	fp,sp,28
   21698:	2011883a 	mov	r8,r4
   2169c:	2809883a 	mov	r4,r5
   216a0:	3007883a 	mov	r3,r6
   216a4:	3805883a 	mov	r2,r7
   216a8:	e23ffc0d 	sth	r8,-16(fp)
   216ac:	e13ffd0d 	sth	r4,-12(fp)
   216b0:	e0fffe0d 	sth	r3,-8(fp)
   216b4:	e0bfff0d 	sth	r2,-4(fp)
	if (detected == 0x0001){
   216b8:	e0bffd0f 	ldh	r2,-12(fp)
   216bc:	10800058 	cmpnei	r2,r2,1
   216c0:	1000571e 	bne	r2,zero,21820 <sendToControl+0x198>
		if(prevhori==hori_dist||prevdiag==diag_dist){
   216c4:	008000f4 	movhi	r2,3
   216c8:	109f4b84 	addi	r2,r2,32046
   216cc:	1080000b 	ldhu	r2,0(r2)
   216d0:	10ffffcc 	andi	r3,r2,65535
   216d4:	18e0001c 	xori	r3,r3,32768
   216d8:	18e00004 	addi	r3,r3,-32768
   216dc:	e0bffe0f 	ldh	r2,-8(fp)
   216e0:	18800826 	beq	r3,r2,21704 <sendToControl+0x7c>
   216e4:	008000f4 	movhi	r2,3
   216e8:	109f5004 	addi	r2,r2,32064
   216ec:	1080000b 	ldhu	r2,0(r2)
   216f0:	10ffffcc 	andi	r3,r2,65535
   216f4:	18e0001c 	xori	r3,r3,32768
   216f8:	18e00004 	addi	r3,r3,-32768
   216fc:	e0bfff0f 	ldh	r2,-4(fp)
   21700:	1880021e 	bne	r3,r2,2170c <sendToControl+0x84>
		      detected = 0x0000;
   21704:	e03ffd0d 	sth	zero,-12(fp)
   21708:	00004506 	br	21820 <sendToControl+0x198>
		}else if((abs(prevhori-hori_dist)<5)||(abs(prevdiag-diag_dist)<5)){
   2170c:	008000f4 	movhi	r2,3
   21710:	109f4b84 	addi	r2,r2,32046
   21714:	1080000b 	ldhu	r2,0(r2)
   21718:	10ffffcc 	andi	r3,r2,65535
   2171c:	18e0001c 	xori	r3,r3,32768
   21720:	18e00004 	addi	r3,r3,-32768
   21724:	e0bffe0f 	ldh	r2,-8(fp)
   21728:	1885c83a 	sub	r2,r3,r2
   2172c:	10bfff10 	cmplti	r2,r2,-4
   21730:	10000a1e 	bne	r2,zero,2175c <sendToControl+0xd4>
   21734:	008000f4 	movhi	r2,3
   21738:	109f4b84 	addi	r2,r2,32046
   2173c:	1080000b 	ldhu	r2,0(r2)
   21740:	10ffffcc 	andi	r3,r2,65535
   21744:	18e0001c 	xori	r3,r3,32768
   21748:	18e00004 	addi	r3,r3,-32768
   2174c:	e0bffe0f 	ldh	r2,-8(fp)
   21750:	1885c83a 	sub	r2,r3,r2
   21754:	10800150 	cmplti	r2,r2,5
   21758:	1000141e 	bne	r2,zero,217ac <sendToControl+0x124>
   2175c:	008000f4 	movhi	r2,3
   21760:	109f5004 	addi	r2,r2,32064
   21764:	1080000b 	ldhu	r2,0(r2)
   21768:	10ffffcc 	andi	r3,r2,65535
   2176c:	18e0001c 	xori	r3,r3,32768
   21770:	18e00004 	addi	r3,r3,-32768
   21774:	e0bfff0f 	ldh	r2,-4(fp)
   21778:	1885c83a 	sub	r2,r3,r2
   2177c:	10bfff10 	cmplti	r2,r2,-4
   21780:	10000d1e 	bne	r2,zero,217b8 <sendToControl+0x130>
   21784:	008000f4 	movhi	r2,3
   21788:	109f5004 	addi	r2,r2,32064
   2178c:	1080000b 	ldhu	r2,0(r2)
   21790:	10ffffcc 	andi	r3,r2,65535
   21794:	18e0001c 	xori	r3,r3,32768
   21798:	18e00004 	addi	r3,r3,-32768
   2179c:	e0bfff0f 	ldh	r2,-4(fp)
   217a0:	1885c83a 	sub	r2,r3,r2
   217a4:	10800148 	cmpgei	r2,r2,5
   217a8:	1000031e 	bne	r2,zero,217b8 <sendToControl+0x130>
			detected = 0x0001;
   217ac:	00800044 	movi	r2,1
   217b0:	e0bffd0d 	sth	r2,-12(fp)
   217b4:	00001a06 	br	21820 <sendToControl+0x198>
		}else{
			snprintf (msgVision, MSG_BUFFER_SIZE, "<%i,%i,%i,%i>", color, detected, hori_dist, diag_dist);
   217b8:	e17ffc0f 	ldh	r5,-16(fp)
   217bc:	e0bffd0f 	ldh	r2,-12(fp)
   217c0:	e0fffe0f 	ldh	r3,-8(fp)
   217c4:	e13fff0f 	ldh	r4,-4(fp)
   217c8:	d9000215 	stw	r4,8(sp)
   217cc:	d8c00115 	stw	r3,4(sp)
   217d0:	d8800015 	stw	r2,0(sp)
   217d4:	280f883a 	mov	r7,r5
   217d8:	018000f4 	movhi	r6,3
   217dc:	3194b304 	addi	r6,r6,21196
   217e0:	01400804 	movi	r5,32
   217e4:	010000f4 	movhi	r4,3
   217e8:	211f6a04 	addi	r4,r4,32168
   217ec:	00245dc0 	call	245dc <snprintf>
			alt_putstr(msgVision);
   217f0:	010000f4 	movhi	r4,3
   217f4:	211f6a04 	addi	r4,r4,32168
   217f8:	0033f3c0 	call	33f3c <alt_putstr>
			prevhori=hori_dist;
   217fc:	008000f4 	movhi	r2,3
   21800:	109f4b84 	addi	r2,r2,32046
   21804:	e0fffe0b 	ldhu	r3,-8(fp)
   21808:	10c0000d 	sth	r3,0(r2)
			prevdiag=diag_dist;
   2180c:	008000f4 	movhi	r2,3
   21810:	109f5004 	addi	r2,r2,32064
   21814:	e0ffff0b 	ldhu	r3,-4(fp)
   21818:	10c0000d 	sth	r3,0(r2)
			//printf("send to control done\n");
		}
	}
}
   2181c:	00000006 	br	21820 <sendToControl+0x198>
   21820:	0001883a 	nop
   21824:	e037883a 	mov	sp,fp
   21828:	dfc00117 	ldw	ra,4(sp)
   2182c:	df000017 	ldw	fp,0(sp)
   21830:	dec00204 	addi	sp,sp,8
   21834:	f800283a 	ret

00021838 <main>:
/////////////////////////////////////////////////////////////////////////////////////

int main()
{
   21838:	defff704 	addi	sp,sp,-36
   2183c:	dfc00815 	stw	ra,32(sp)
   21840:	df000715 	stw	fp,28(sp)
   21844:	df000704 	addi	fp,sp,28

	fcntl(STDIN_FILENO, F_SETFL, O_NONBLOCK);
   21848:	01900004 	movi	r6,16384
   2184c:	01400104 	movi	r5,4
   21850:	0009883a 	mov	r4,zero
   21854:	0033a100 	call	33a10 <fcntl>

  printf("DE10-LITE D8M VGA Demo\n");
   21858:	010000f4 	movhi	r4,3
   2185c:	2114b704 	addi	r4,r4,21212
   21860:	00242240 	call	24224 <puts>
  printf("Imperial College EEE2 Project version\n");
   21864:	010000f4 	movhi	r4,3
   21868:	2114bd04 	addi	r4,r4,21236
   2186c:	00242240 	call	24224 <puts>
  IOWR(MIPI_PWDN_N_BASE, 0x00, 0x00);
   21870:	0007883a 	mov	r3,zero
   21874:	00800134 	movhi	r2,4
   21878:	10842004 	addi	r2,r2,4224
   2187c:	10c00035 	stwio	r3,0(r2)
  IOWR(MIPI_RESET_N_BASE, 0x00, 0x00);
   21880:	0007883a 	mov	r3,zero
   21884:	00800134 	movhi	r2,4
   21888:	10842404 	addi	r2,r2,4240
   2188c:	10c00035 	stwio	r3,0(r2)

  usleep(2000);
   21890:	0101f404 	movi	r4,2000
   21894:	00341580 	call	34158 <usleep>
  IOWR(MIPI_PWDN_N_BASE, 0x00, 0xFF);
   21898:	00c03fc4 	movi	r3,255
   2189c:	00800134 	movhi	r2,4
   218a0:	10842004 	addi	r2,r2,4224
   218a4:	10c00035 	stwio	r3,0(r2)
  usleep(2000);
   218a8:	0101f404 	movi	r4,2000
   218ac:	00341580 	call	34158 <usleep>
  IOWR(MIPI_RESET_N_BASE, 0x00, 0xFF);
   218b0:	00c03fc4 	movi	r3,255
   218b4:	00800134 	movhi	r2,4
   218b8:	10842404 	addi	r2,r2,4240
   218bc:	10c00035 	stwio	r3,0(r2)

  //printf("Image Processor ID: %x\n",IORD(0x42000,EEE_IMGPROC_ID));
  //printf("Image Processor ID: %x\n",IORD(EEE_IMGPROC_0_BASE,EEE_IMGPROC_ID)); //Don't know why this doesn't work - definition is in system.h in BSP


  usleep(2000);
   218c0:	0101f404 	movi	r4,2000
   218c4:	00341580 	call	34158 <usleep>


  // MIPI Init
   if (!MIPI_Init()){
   218c8:	00216000 	call	21600 <MIPI_Init>
   218cc:	1000041e 	bne	r2,zero,218e0 <main+0xa8>
	  printf("MIPI_Init Init failed!\r\n");
   218d0:	010000f4 	movhi	r4,3
   218d4:	2114c704 	addi	r4,r4,21276
   218d8:	00242240 	call	24224 <puts>
   218dc:	00000306 	br	218ec <main+0xb4>
  }else{
	  printf("MIPI_Init Init successfully!\r\n");
   218e0:	010000f4 	movhi	r4,3
   218e4:	2114cd04 	addi	r4,r4,21300
   218e8:	00242240 	call	24224 <puts>
  }

//   while(1){
 	    mipi_clear_error();
   218ec:	00213380 	call	21338 <mipi_clear_error>
	 	usleep(50*1000);
   218f0:	0130d414 	movui	r4,50000
   218f4:	00341580 	call	34158 <usleep>
 	    mipi_clear_error();
   218f8:	00213380 	call	21338 <mipi_clear_error>
	 	usleep(1000*1000);
   218fc:	010003f4 	movhi	r4,15
   21900:	21109004 	addi	r4,r4,16960
   21904:	00341580 	call	34158 <usleep>
	    mipi_show_error_info();
   21908:	00213f00 	call	213f0 <mipi_show_error_info>
//	    mipi_show_error_info_more();
	    printf("\n");
   2190c:	01000284 	movi	r4,10
   21910:	002414c0 	call	2414c <putchar>




    //////////////////////////////////////////////////////////
        alt_u16 bin_level = DEFAULT_LEVEL;
   21914:	008000c4 	movi	r2,3
   21918:	e0bff90d 	sth	r2,-28(fp)
        alt_u8  manual_focus_step = 10;
   2191c:	00800284 	movi	r2,10
   21920:	e0bffc85 	stb	r2,-14(fp)
        alt_u16  current_focus = 300;
   21924:	00804b04 	movi	r2,300
   21928:	e0bff98d 	sth	r2,-26(fp)
    	int boundingBoxColour = 0;
   2192c:	e03ffa15 	stw	zero,-24(fp)
    	alt_u32 exposureTime = EXPOSURE_INIT;
   21930:	00880004 	movi	r2,8192
   21934:	e0bffb15 	stw	r2,-20(fp)
    	alt_u16 gain = GAIN_INIT;
   21938:	00810004 	movi	r2,1024
   2193c:	e0bffc0d 	sth	r2,-16(fp)

        OV8865SetExposure(exposureTime);
   21940:	e13ffb17 	ldw	r4,-20(fp)
   21944:	00223fc0 	call	223fc <OV8865SetExposure>
        OV8865SetGain(gain);
   21948:	e0bffc0b 	ldhu	r2,-16(fp)
   2194c:	1009883a 	mov	r4,r2
   21950:	00224dc0 	call	224dc <OV8865SetGain>
        Focus_Init();
   21954:	0020f800 	call	20f80 <Focus_Init>

        FILE* ser = fopen("/dev/uart0", "rb+");
   21958:	014000f4 	movhi	r5,3
   2195c:	2954d504 	addi	r5,r5,21332
   21960:	010000f4 	movhi	r4,3
   21964:	2114d604 	addi	r4,r4,21336
   21968:	0022f740 	call	22f74 <fopen>
   2196c:	e0bffd15 	stw	r2,-12(fp)
        if(ser){
   21970:	e0bffd17 	ldw	r2,-12(fp)
   21974:	10000426 	beq	r2,zero,21988 <main+0x150>
        	printf("Opened UART\n");
   21978:	010000f4 	movhi	r4,3
   2197c:	2114d904 	addi	r4,r4,21348
   21980:	00242240 	call	24224 <puts>
   21984:	00000406 	br	21998 <main+0x160>
        } else {
        	printf("Failed to open UART\n");
   21988:	010000f4 	movhi	r4,3
   2198c:	2114dc04 	addi	r4,r4,21360
   21990:	00242240 	call	24224 <puts>
        	while (1);
   21994:	003fff06 	br	21994 <__alt_data_end+0xfffe1994>
        }

  while(1){

       // touch KEY0 to trigger Auto focus
	   if((IORD(KEY_BASE,0)&0x03) == 0x02){
   21998:	00800134 	movhi	r2,4
   2199c:	10842804 	addi	r2,r2,4256
   219a0:	10800037 	ldwio	r2,0(r2)
   219a4:	108000cc 	andi	r2,r2,3
   219a8:	10800098 	cmpnei	r2,r2,2
   219ac:	1000041e 	bne	r2,zero,219c0 <main+0x188>

    	   current_focus = Focus_Window(320,240);
   219b0:	01403c04 	movi	r5,240
   219b4:	01005004 	movi	r4,320
   219b8:	00210a80 	call	210a8 <Focus_Window>
   219bc:	e0bff98d 	sth	r2,-26(fp)
       }
	   // touch KEY1 to ZOOM
	         if((IORD(KEY_BASE,0)&0x03) == 0x01){
   219c0:	00800134 	movhi	r2,4
   219c4:	10842804 	addi	r2,r2,4256
   219c8:	10800037 	ldwio	r2,0(r2)
   219cc:	108000cc 	andi	r2,r2,3
   219d0:	10800058 	cmpnei	r2,r2,1
   219d4:	1000c71e 	bne	r2,zero,21cf4 <main+0x4bc>
	      	   if(bin_level == 3 )bin_level = 1;
   219d8:	e0bff90b 	ldhu	r2,-28(fp)
   219dc:	108000d8 	cmpnei	r2,r2,3
   219e0:	1000031e 	bne	r2,zero,219f0 <main+0x1b8>
   219e4:	00800044 	movi	r2,1
   219e8:	e0bff90d 	sth	r2,-28(fp)
   219ec:	00000306 	br	219fc <main+0x1c4>
	      	   else bin_level ++;
   219f0:	e0bff90b 	ldhu	r2,-28(fp)
   219f4:	10800044 	addi	r2,r2,1
   219f8:	e0bff90d 	sth	r2,-28(fp)
	      	   printf("set bin level to %d\n",bin_level);
   219fc:	e0bff90b 	ldhu	r2,-28(fp)
   21a00:	100b883a 	mov	r5,r2
   21a04:	010000f4 	movhi	r4,3
   21a08:	2114e104 	addi	r4,r4,21380
   21a0c:	00241080 	call	24108 <printf>
	      	   MIPI_BIN_LEVEL(bin_level);
   21a10:	e0bff90b 	ldhu	r2,-28(fp)
   21a14:	10803fcc 	andi	r2,r2,255
   21a18:	1009883a 	mov	r4,r2
   21a1c:	00226640 	call	22664 <MIPI_BIN_LEVEL>
	      	 	usleep(500000);
   21a20:	01000234 	movhi	r4,8
   21a24:	21284804 	addi	r4,r4,-24288
   21a28:	00341580 	call	34158 <usleep>
    	 	usleep(500000);

       }
	#endif
/////////////////////COMMUNICATE WITH UART/////////////////
       while ((IORD(0x42000,EEE_IMGPROC_STATUS)>>8) & 0xff) { 	//Find out if there are words to read
   21a2c:	0000b106 	br	21cf4 <main+0x4bc>

    	   int word = IORD(0x42000, EEE_IMGPROC_MSG);
   21a30:	00800134 	movhi	r2,4
   21a34:	10880104 	addi	r2,r2,8196
   21a38:	10800037 	ldwio	r2,0(r2)
   21a3c:	e0bfff15 	stw	r2,-4(fp)
    	   if (word==EEE_IMGPROC_MSG_START) {
   21a40:	e0ffff17 	ldw	r3,-4(fp)
   21a44:	008014b4 	movhi	r2,82
   21a48:	10909084 	addi	r2,r2,16962
   21a4c:	1880a91e 	bne	r3,r2,21cf4 <main+0x4bc>
    		   //printf("\n");
    		   col_and_det = IORD(0x42000, EEE_IMGPROC_MSG);	// Read next item in msg buf
   21a50:	00800134 	movhi	r2,4
   21a54:	10880104 	addi	r2,r2,8196
   21a58:	10c00037 	ldwio	r3,0(r2)
   21a5c:	008000f4 	movhi	r2,3
   21a60:	109f4c04 	addi	r2,r2,32048
   21a64:	10c00015 	stw	r3,0(r2)
    		   x_values = IORD(0x42000, EEE_IMGPROC_MSG);		// Read next item
   21a68:	00800134 	movhi	r2,4
   21a6c:	10880104 	addi	r2,r2,8196
   21a70:	10c00037 	ldwio	r3,0(r2)
   21a74:	008000f4 	movhi	r2,3
   21a78:	109f4d04 	addi	r2,r2,32052
   21a7c:	10c00015 	stw	r3,0(r2)
//
////			   col_and_det = IORD(0x42000, 2);
////			   distances = IORD(0x42000, 3);
//
			   color = (alt_16)(col_and_det >> 16);
   21a80:	008000f4 	movhi	r2,3
   21a84:	109f4c04 	addi	r2,r2,32048
   21a88:	10800017 	ldw	r2,0(r2)
   21a8c:	1005d43a 	srai	r2,r2,16
   21a90:	1007883a 	mov	r3,r2
   21a94:	008000f4 	movhi	r2,3
   21a98:	109f5084 	addi	r2,r2,32066
   21a9c:	10c0000d 	sth	r3,0(r2)
			   detected = (alt_16)(col_and_det & 0xFFFF);	// 16-bit bitmask
   21aa0:	008000f4 	movhi	r2,3
   21aa4:	109f4c04 	addi	r2,r2,32048
   21aa8:	10800017 	ldw	r2,0(r2)
   21aac:	1007883a 	mov	r3,r2
   21ab0:	008000f4 	movhi	r2,3
   21ab4:	109f4f04 	addi	r2,r2,32060
   21ab8:	10c0000d 	sth	r3,0(r2)

			   x_len = (alt_16)(x_values >> 16);
   21abc:	008000f4 	movhi	r2,3
   21ac0:	109f4d04 	addi	r2,r2,32052
   21ac4:	10800017 	ldw	r2,0(r2)
   21ac8:	1005d43a 	srai	r2,r2,16
   21acc:	1007883a 	mov	r3,r2
   21ad0:	008000f4 	movhi	r2,3
   21ad4:	109f4b04 	addi	r2,r2,32044
   21ad8:	10c0000d 	sth	r3,0(r2)
			   x_cen = (alt_16)(x_values & 0xFFFF);
   21adc:	008000f4 	movhi	r2,3
   21ae0:	109f4d04 	addi	r2,r2,32052
   21ae4:	10800017 	ldw	r2,0(r2)
   21ae8:	1007883a 	mov	r3,r2
   21aec:	008000f4 	movhi	r2,3
   21af0:	109f4f84 	addi	r2,r2,32062
   21af4:	10c0000d 	sth	r3,0(r2)

			   diag_dist = 0x0A28/x_len;
   21af8:	008000f4 	movhi	r2,3
   21afc:	109f4b04 	addi	r2,r2,32044
   21b00:	1080000b 	ldhu	r2,0(r2)
   21b04:	10bfffcc 	andi	r2,r2,65535
   21b08:	10a0001c 	xori	r2,r2,32768
   21b0c:	10a00004 	addi	r2,r2,-32768
   21b10:	100b883a 	mov	r5,r2
   21b14:	01028a04 	movi	r4,2600
   21b18:	0022ccc0 	call	22ccc <__divsi3>
   21b1c:	1007883a 	mov	r3,r2
   21b20:	008000f4 	movhi	r2,3
   21b24:	109f5104 	addi	r2,r2,32068
   21b28:	10c0000d 	sth	r3,0(r2)

			   if (x_cen < 0x0140){
   21b2c:	008000f4 	movhi	r2,3
   21b30:	109f4f84 	addi	r2,r2,32062
   21b34:	1080000b 	ldhu	r2,0(r2)
   21b38:	10bfffcc 	andi	r2,r2,65535
   21b3c:	10a0001c 	xori	r2,r2,32768
   21b40:	10a00004 	addi	r2,r2,-32768
   21b44:	10805008 	cmpgei	r2,r2,320
   21b48:	10001e1e 	bne	r2,zero,21bc4 <main+0x38c>
				   pix_dist_from_cen = 0x0140 - x_cen;
   21b4c:	008000f4 	movhi	r2,3
   21b50:	109f4f84 	addi	r2,r2,32062
   21b54:	1080000b 	ldhu	r2,0(r2)
   21b58:	1007883a 	mov	r3,r2
   21b5c:	00805004 	movi	r2,320
   21b60:	10c5c83a 	sub	r2,r2,r3
   21b64:	1007883a 	mov	r3,r2
   21b68:	008000f4 	movhi	r2,3
   21b6c:	109f4e84 	addi	r2,r2,32058
   21b70:	10c0000d 	sth	r3,0(r2)
				   hori_dist = (diag_dist * pix_dist_from_cen * 7) >> 10;
   21b74:	008000f4 	movhi	r2,3
   21b78:	109f5104 	addi	r2,r2,32068
   21b7c:	1080000b 	ldhu	r2,0(r2)
   21b80:	10ffffcc 	andi	r3,r2,65535
   21b84:	18e0001c 	xori	r3,r3,32768
   21b88:	18e00004 	addi	r3,r3,-32768
   21b8c:	008000f4 	movhi	r2,3
   21b90:	109f4e84 	addi	r2,r2,32058
   21b94:	1080000b 	ldhu	r2,0(r2)
   21b98:	10bfffcc 	andi	r2,r2,65535
   21b9c:	10a0001c 	xori	r2,r2,32768
   21ba0:	10a00004 	addi	r2,r2,-32768
   21ba4:	1885383a 	mul	r2,r3,r2
   21ba8:	108001e4 	muli	r2,r2,7
   21bac:	1005d2ba 	srai	r2,r2,10
   21bb0:	1007883a 	mov	r3,r2
   21bb4:	008000f4 	movhi	r2,3
   21bb8:	109f4e04 	addi	r2,r2,32056
   21bbc:	10c0000d 	sth	r3,0(r2)
   21bc0:	00002f06 	br	21c80 <main+0x448>
			   }else if(x_cen > 0x0140){
   21bc4:	008000f4 	movhi	r2,3
   21bc8:	109f4f84 	addi	r2,r2,32062
   21bcc:	1080000b 	ldhu	r2,0(r2)
   21bd0:	10bfffcc 	andi	r2,r2,65535
   21bd4:	10a0001c 	xori	r2,r2,32768
   21bd8:	10a00004 	addi	r2,r2,-32768
   21bdc:	10805050 	cmplti	r2,r2,321
   21be0:	10001c1e 	bne	r2,zero,21c54 <main+0x41c>
				   pix_dist_from_cen = x_cen - 0x0140;
   21be4:	008000f4 	movhi	r2,3
   21be8:	109f4f84 	addi	r2,r2,32062
   21bec:	1080000b 	ldhu	r2,0(r2)
   21bf0:	10bfb004 	addi	r2,r2,-320
   21bf4:	1007883a 	mov	r3,r2
   21bf8:	008000f4 	movhi	r2,3
   21bfc:	109f4e84 	addi	r2,r2,32058
   21c00:	10c0000d 	sth	r3,0(r2)
				   hori_dist = (-7 * diag_dist * pix_dist_from_cen) >> 10;
   21c04:	008000f4 	movhi	r2,3
   21c08:	109f5104 	addi	r2,r2,32068
   21c0c:	1080000b 	ldhu	r2,0(r2)
   21c10:	10bfffcc 	andi	r2,r2,65535
   21c14:	10a0001c 	xori	r2,r2,32768
   21c18:	10a00004 	addi	r2,r2,-32768
   21c1c:	10fffe64 	muli	r3,r2,-7
   21c20:	008000f4 	movhi	r2,3
   21c24:	109f4e84 	addi	r2,r2,32058
   21c28:	1080000b 	ldhu	r2,0(r2)
   21c2c:	10bfffcc 	andi	r2,r2,65535
   21c30:	10a0001c 	xori	r2,r2,32768
   21c34:	10a00004 	addi	r2,r2,-32768
   21c38:	1885383a 	mul	r2,r3,r2
   21c3c:	1005d2ba 	srai	r2,r2,10
   21c40:	1007883a 	mov	r3,r2
   21c44:	008000f4 	movhi	r2,3
   21c48:	109f4e04 	addi	r2,r2,32056
   21c4c:	10c0000d 	sth	r3,0(r2)
   21c50:	00000b06 	br	21c80 <main+0x448>
			   }else if(x_cen == 0x0140){
   21c54:	008000f4 	movhi	r2,3
   21c58:	109f4f84 	addi	r2,r2,32062
   21c5c:	1080000b 	ldhu	r2,0(r2)
   21c60:	10bfffcc 	andi	r2,r2,65535
   21c64:	10a0001c 	xori	r2,r2,32768
   21c68:	10a00004 	addi	r2,r2,-32768
   21c6c:	10805018 	cmpnei	r2,r2,320
   21c70:	1000031e 	bne	r2,zero,21c80 <main+0x448>
				   hori_dist = 0;
   21c74:	008000f4 	movhi	r2,3
   21c78:	109f4e04 	addi	r2,r2,32056
   21c7c:	1000000d 	sth	zero,0(r2)
			   }

			   //printf("Color %08x Detected %08x hori %08x diag %08x\n", color, detected, hori_dist, diag_dist);
			   // Ctrl + b build
			   // Ctrl + F11 is run
    		   sendToControl(color, detected, hori_dist, diag_dist);
   21c80:	008000f4 	movhi	r2,3
   21c84:	109f5084 	addi	r2,r2,32066
   21c88:	1080000b 	ldhu	r2,0(r2)
   21c8c:	10ffffcc 	andi	r3,r2,65535
   21c90:	18e0001c 	xori	r3,r3,32768
   21c94:	18e00004 	addi	r3,r3,-32768
   21c98:	008000f4 	movhi	r2,3
   21c9c:	109f4f04 	addi	r2,r2,32060
   21ca0:	1080000b 	ldhu	r2,0(r2)
   21ca4:	113fffcc 	andi	r4,r2,65535
   21ca8:	2120001c 	xori	r4,r4,32768
   21cac:	21200004 	addi	r4,r4,-32768
   21cb0:	008000f4 	movhi	r2,3
   21cb4:	109f4e04 	addi	r2,r2,32056
   21cb8:	1080000b 	ldhu	r2,0(r2)
   21cbc:	117fffcc 	andi	r5,r2,65535
   21cc0:	2960001c 	xori	r5,r5,32768
   21cc4:	29600004 	addi	r5,r5,-32768
   21cc8:	008000f4 	movhi	r2,3
   21ccc:	109f5104 	addi	r2,r2,32068
   21cd0:	1080000b 	ldhu	r2,0(r2)
   21cd4:	10bfffcc 	andi	r2,r2,65535
   21cd8:	10a0001c 	xori	r2,r2,32768
   21cdc:	10a00004 	addi	r2,r2,-32768
   21ce0:	100f883a 	mov	r7,r2
   21ce4:	280d883a 	mov	r6,r5
   21ce8:	200b883a 	mov	r5,r4
   21cec:	1809883a 	mov	r4,r3
   21cf0:	00216880 	call	21688 <sendToControl>
    	 	usleep(500000);

       }
	#endif
/////////////////////COMMUNICATE WITH UART/////////////////
       while ((IORD(0x42000,EEE_IMGPROC_STATUS)>>8) & 0xff) { 	//Find out if there are words to read
   21cf4:	00800134 	movhi	r2,4
   21cf8:	10880004 	addi	r2,r2,8192
   21cfc:	10800037 	ldwio	r2,0(r2)
   21d00:	1005d23a 	srai	r2,r2,8
   21d04:	10803fcc 	andi	r2,r2,255
   21d08:	103f491e 	bne	r2,zero,21a30 <__alt_data_end+0xfffe1a30>
//       }



       //Update the bounding box colour
       boundingBoxColour = ((boundingBoxColour + 1) & 0xff);
   21d0c:	e0bffa17 	ldw	r2,-24(fp)
   21d10:	10800044 	addi	r2,r2,1
   21d14:	10803fcc 	andi	r2,r2,255
   21d18:	e0bffa15 	stw	r2,-24(fp)
       IOWR(0x42000, EEE_IMGPROC_BBCOL, (boundingBoxColour << 8) | (0xff - boundingBoxColour));
   21d1c:	e0bffa17 	ldw	r2,-24(fp)
   21d20:	1006923a 	slli	r3,r2,8
   21d24:	01003fc4 	movi	r4,255
   21d28:	e0bffa17 	ldw	r2,-24(fp)
   21d2c:	2085c83a 	sub	r2,r4,r2
   21d30:	1886b03a 	or	r3,r3,r2
   21d34:	00800134 	movhi	r2,4
   21d38:	10880304 	addi	r2,r2,8204
   21d3c:	10c00035 	stwio	r3,0(r2)

       //Process input commands
       int in = getchar();
   21d40:	008000f4 	movhi	r2,3
   21d44:	109a9604 	addi	r2,r2,27224
   21d48:	10800017 	ldw	r2,0(r2)
   21d4c:	10800117 	ldw	r2,4(r2)
   21d50:	1009883a 	mov	r4,r2
   21d54:	00234d80 	call	234d8 <getc>
   21d58:	e0bffe15 	stw	r2,-8(fp)
       switch (in) {
   21d5c:	e0bffe17 	ldw	r2,-8(fp)
   21d60:	10bfe704 	addi	r2,r2,-100
   21d64:	10c00468 	cmpgeui	r3,r2,17
   21d68:	1800661e 	bne	r3,zero,21f04 <main+0x6cc>
   21d6c:	100690ba 	slli	r3,r2,2
   21d70:	008000b4 	movhi	r2,2
   21d74:	10876104 	addi	r2,r2,7556
   21d78:	1885883a 	add	r2,r3,r2
   21d7c:	10800017 	ldw	r2,0(r2)
   21d80:	1000683a 	jmp	r2
   21d84:	00021df0 	cmpltui	zero,zero,2167
   21d88:	00021dc8 	cmpgei	zero,zero,2167
   21d8c:	00021ec0 	call	21ec <__alt_mem_onchip_memory2_0-0x1de14>
   21d90:	00021e48 	cmpgei	zero,zero,2169
   21d94:	00021f04 	movi	zero,2172
   21d98:	00021f04 	movi	zero,2172
   21d9c:	00021f04 	movi	zero,2172
   21da0:	00021f04 	movi	zero,2172
   21da4:	00021f04 	movi	zero,2172
   21da8:	00021f04 	movi	zero,2172
   21dac:	00021f04 	movi	zero,2172
   21db0:	00021f04 	movi	zero,2172
   21db4:	00021f04 	movi	zero,2172
   21db8:	00021f04 	movi	zero,2172
   21dbc:	00021e78 	rdprs	zero,zero,2169
   21dc0:	00021f04 	movi	zero,2172
   21dc4:	00021e18 	cmpnei	zero,zero,2168
       	   case 'e': {
       		   exposureTime += EXPOSURE_STEP;
   21dc8:	e0bffb17 	ldw	r2,-20(fp)
   21dcc:	10804004 	addi	r2,r2,256
   21dd0:	e0bffb15 	stw	r2,-20(fp)
       		   OV8865SetExposure(exposureTime);
   21dd4:	e13ffb17 	ldw	r4,-20(fp)
   21dd8:	00223fc0 	call	223fc <OV8865SetExposure>
       		   printf("\nExposure = %x ", exposureTime);
   21ddc:	e17ffb17 	ldw	r5,-20(fp)
   21de0:	010000f4 	movhi	r4,3
   21de4:	2114e704 	addi	r4,r4,21404
   21de8:	00241080 	call	24108 <printf>
       	   	   break;}
   21dec:	00004506 	br	21f04 <main+0x6cc>
       	   case 'd': {
       		   exposureTime -= EXPOSURE_STEP;
   21df0:	e0bffb17 	ldw	r2,-20(fp)
   21df4:	10bfc004 	addi	r2,r2,-256
   21df8:	e0bffb15 	stw	r2,-20(fp)
       		   OV8865SetExposure(exposureTime);
   21dfc:	e13ffb17 	ldw	r4,-20(fp)
   21e00:	00223fc0 	call	223fc <OV8865SetExposure>
       		   printf("\nExposure = %x ", exposureTime);
   21e04:	e17ffb17 	ldw	r5,-20(fp)
   21e08:	010000f4 	movhi	r4,3
   21e0c:	2114e704 	addi	r4,r4,21404
   21e10:	00241080 	call	24108 <printf>
       	   	   break;}
   21e14:	00003b06 	br	21f04 <main+0x6cc>
       	   case 't': {
       		   gain += GAIN_STEP;
   21e18:	e0bffc0b 	ldhu	r2,-16(fp)
   21e1c:	10801004 	addi	r2,r2,64
   21e20:	e0bffc0d 	sth	r2,-16(fp)
       		   OV8865SetGain(gain);
   21e24:	e0bffc0b 	ldhu	r2,-16(fp)
   21e28:	1009883a 	mov	r4,r2
   21e2c:	00224dc0 	call	224dc <OV8865SetGain>
       		   printf("\nGain = %x ", gain);
   21e30:	e0bffc0b 	ldhu	r2,-16(fp)
   21e34:	100b883a 	mov	r5,r2
   21e38:	010000f4 	movhi	r4,3
   21e3c:	2114eb04 	addi	r4,r4,21420
   21e40:	00241080 	call	24108 <printf>
       	   	   break;}
   21e44:	00002f06 	br	21f04 <main+0x6cc>
       	   case 'g': {
       		   gain -= GAIN_STEP;
   21e48:	e0bffc0b 	ldhu	r2,-16(fp)
   21e4c:	10bff004 	addi	r2,r2,-64
   21e50:	e0bffc0d 	sth	r2,-16(fp)
       		   OV8865SetGain(gain);
   21e54:	e0bffc0b 	ldhu	r2,-16(fp)
   21e58:	1009883a 	mov	r4,r2
   21e5c:	00224dc0 	call	224dc <OV8865SetGain>
       		   printf("\nGain = %x ", gain);
   21e60:	e0bffc0b 	ldhu	r2,-16(fp)
   21e64:	100b883a 	mov	r5,r2
   21e68:	010000f4 	movhi	r4,3
   21e6c:	2114eb04 	addi	r4,r4,21420
   21e70:	00241080 	call	24108 <printf>
       	   	   break;}
   21e74:	00002306 	br	21f04 <main+0x6cc>
       	   case 'r': {
        	   current_focus += manual_focus_step;
   21e78:	e0fffc83 	ldbu	r3,-14(fp)
   21e7c:	e0bff98b 	ldhu	r2,-26(fp)
   21e80:	1885883a 	add	r2,r3,r2
   21e84:	e0bff98d 	sth	r2,-26(fp)
        	   if(current_focus >1023) current_focus = 1023;
   21e88:	e0bff98b 	ldhu	r2,-26(fp)
   21e8c:	10810030 	cmpltui	r2,r2,1024
   21e90:	1000021e 	bne	r2,zero,21e9c <main+0x664>
   21e94:	0080ffc4 	movi	r2,1023
   21e98:	e0bff98d 	sth	r2,-26(fp)
        	   OV8865_FOCUS_Move_to(current_focus);
   21e9c:	e0bff98b 	ldhu	r2,-26(fp)
   21ea0:	1009883a 	mov	r4,r2
   21ea4:	002232c0 	call	2232c <OV8865_FOCUS_Move_to>
        	   printf("\nFocus = %x ",current_focus);
   21ea8:	e0bff98b 	ldhu	r2,-26(fp)
   21eac:	100b883a 	mov	r5,r2
   21eb0:	010000f4 	movhi	r4,3
   21eb4:	2114ee04 	addi	r4,r4,21432
   21eb8:	00241080 	call	24108 <printf>
       	   	   break;}
   21ebc:	00001106 	br	21f04 <main+0x6cc>
       	   case 'f': {
        	   if(current_focus > manual_focus_step) current_focus -= manual_focus_step;
   21ec0:	e0bffc83 	ldbu	r2,-14(fp)
   21ec4:	10ffffcc 	andi	r3,r2,65535
   21ec8:	e0bff98b 	ldhu	r2,-26(fp)
   21ecc:	1880042e 	bgeu	r3,r2,21ee0 <main+0x6a8>
   21ed0:	e0bffc83 	ldbu	r2,-14(fp)
   21ed4:	e0fff98b 	ldhu	r3,-26(fp)
   21ed8:	1885c83a 	sub	r2,r3,r2
   21edc:	e0bff98d 	sth	r2,-26(fp)
        	   OV8865_FOCUS_Move_to(current_focus);
   21ee0:	e0bff98b 	ldhu	r2,-26(fp)
   21ee4:	1009883a 	mov	r4,r2
   21ee8:	002232c0 	call	2232c <OV8865_FOCUS_Move_to>
        	   printf("\nFocus = %x ",current_focus);
   21eec:	e0bff98b 	ldhu	r2,-26(fp)
   21ef0:	100b883a 	mov	r5,r2
   21ef4:	010000f4 	movhi	r4,3
   21ef8:	2114ee04 	addi	r4,r4,21432
   21efc:	00241080 	call	24108 <printf>
       	   	   break;}
   21f00:	0001883a 	nop
       }


	   //Main loop delay
	   usleep(10000);
   21f04:	0109c404 	movi	r4,10000
   21f08:	00341580 	call	34158 <usleep>

   };
   21f0c:	003ea206 	br	21998 <__alt_data_end+0xfffe1998>

00021f10 <nSWAP16>:
	{0x0004,0x8047} // Configuration Control Register

};


alt_u16 nSWAP16(alt_u16 x){
   21f10:	defffd04 	addi	sp,sp,-12
   21f14:	df000215 	stw	fp,8(sp)
   21f18:	df000204 	addi	fp,sp,8
   21f1c:	2005883a 	mov	r2,r4
   21f20:	e0bfff0d 	sth	r2,-4(fp)
	alt_u16 y;
	//y =  (((x) >> 8) & 0xff) | (((x) & 0xff) << 8);

//	y = x;
	y = (x >> 8) & 0x00ff;
   21f24:	e0bfff0b 	ldhu	r2,-4(fp)
   21f28:	1004d23a 	srli	r2,r2,8
   21f2c:	e0bffe0d 	sth	r2,-8(fp)
	y |= (x << 8) & 0xff00;
   21f30:	e0bfff0b 	ldhu	r2,-4(fp)
   21f34:	1004923a 	slli	r2,r2,8
   21f38:	1007883a 	mov	r3,r2
   21f3c:	e0bffe0b 	ldhu	r2,-8(fp)
   21f40:	1884b03a 	or	r2,r3,r2
   21f44:	e0bffe0d 	sth	r2,-8(fp)
	return y;
   21f48:	e0bffe0b 	ldhu	r2,-8(fp)
}
   21f4c:	e037883a 	mov	sp,fp
   21f50:	df000017 	ldw	fp,0(sp)
   21f54:	dec00104 	addi	sp,sp,4
   21f58:	f800283a 	ret

00021f5c <MipiBridgeRegWrite>:


void MipiBridgeRegWrite(alt_u16 Addr, alt_u16 Value){
   21f5c:	defffa04 	addi	sp,sp,-24
   21f60:	dfc00515 	stw	ra,20(sp)
   21f64:	df000415 	stw	fp,16(sp)
   21f68:	df000404 	addi	fp,sp,16
   21f6c:	2007883a 	mov	r3,r4
   21f70:	2805883a 	mov	r2,r5
   21f74:	e0fffe0d 	sth	r3,-8(fp)
   21f78:	e0bfff0d 	sth	r2,-4(fp)
	const alt_u8 device_address = MIPI_BRIDGE_I2C_ADDR;
   21f7c:	00800704 	movi	r2,28
   21f80:	e0bffd05 	stb	r2,-12(fp)
	OC_I2CL_Write(I2C_OPENCORES_MIPI_BASE, device_address, Addr, (alt_u8 *)&Value, sizeof(Value));
   21f84:	e0fffd03 	ldbu	r3,-12(fp)
   21f88:	e13ffe0b 	ldhu	r4,-8(fp)
   21f8c:	e17fff04 	addi	r5,fp,-4
   21f90:	00800084 	movi	r2,2
   21f94:	d8800015 	stw	r2,0(sp)
   21f98:	280f883a 	mov	r7,r5
   21f9c:	200d883a 	mov	r6,r4
   21fa0:	180b883a 	mov	r5,r3
   21fa4:	01000134 	movhi	r4,4
   21fa8:	21041804 	addi	r4,r4,4192
   21fac:	0020af00 	call	20af0 <OC_I2CL_Write>
}
   21fb0:	0001883a 	nop
   21fb4:	e037883a 	mov	sp,fp
   21fb8:	dfc00117 	ldw	ra,4(sp)
   21fbc:	df000017 	ldw	fp,0(sp)
   21fc0:	dec00204 	addi	sp,sp,8
   21fc4:	f800283a 	ret

00021fc8 <MipiBridgeRegRead>:

alt_u16 MipiBridgeRegRead(alt_u16 Addr){
   21fc8:	defffa04 	addi	sp,sp,-24
   21fcc:	dfc00515 	stw	ra,20(sp)
   21fd0:	df000415 	stw	fp,16(sp)
   21fd4:	df000404 	addi	fp,sp,16
   21fd8:	2005883a 	mov	r2,r4
   21fdc:	e0bfff0d 	sth	r2,-4(fp)
	alt_u16 Value,tValue;
	const alt_u8 device_address = MIPI_BRIDGE_I2C_ADDR;
   21fe0:	00800704 	movi	r2,28
   21fe4:	e0bffd05 	stb	r2,-12(fp)

	OC_I2CL_Read(I2C_OPENCORES_MIPI_BASE,device_address, Addr,(alt_u8 *)&Value,sizeof(Value));
   21fe8:	e0fffd03 	ldbu	r3,-12(fp)
   21fec:	e13fff0b 	ldhu	r4,-4(fp)
   21ff0:	e17ffe04 	addi	r5,fp,-8
   21ff4:	00800084 	movi	r2,2
   21ff8:	d8800015 	stw	r2,0(sp)
   21ffc:	280f883a 	mov	r7,r5
   22000:	200d883a 	mov	r6,r4
   22004:	180b883a 	mov	r5,r3
   22008:	01000134 	movhi	r4,4
   2200c:	21041804 	addi	r4,r4,4192
   22010:	0020d000 	call	20d00 <OC_I2CL_Read>

	tValue = nSWAP16(Value);
   22014:	e0bffe0b 	ldhu	r2,-8(fp)
   22018:	10bfffcc 	andi	r2,r2,65535
   2201c:	1009883a 	mov	r4,r2
   22020:	0021f100 	call	21f10 <nSWAP16>
   22024:	e0bffd8d 	sth	r2,-10(fp)

	return (tValue);
   22028:	e0bffd8b 	ldhu	r2,-10(fp)
}
   2202c:	e037883a 	mov	sp,fp
   22030:	dfc00117 	ldw	ra,4(sp)
   22034:	df000017 	ldw	fp,0(sp)
   22038:	dec00204 	addi	sp,sp,8
   2203c:	f800283a 	ret

00022040 <MipiBridgeInit>:




void MipiBridgeInit(void){
   22040:	defffb04 	addi	sp,sp,-20
   22044:	dfc00415 	stw	ra,16(sp)
   22048:	df000315 	stw	fp,12(sp)
   2204c:	df000304 	addi	fp,sp,12

	alt_u16 data;
    int i, num;

	printf("\nStart MipiBridgeInit!\n");
   22050:	010000f4 	movhi	r4,3
   22054:	2114f204 	addi	r4,r4,21448
   22058:	00242240 	call	24224 <puts>

	data = MipiBridgeRegRead(0x0000); // read chip and revision id;
   2205c:	0009883a 	mov	r4,zero
   22060:	0021fc80 	call	21fc8 <MipiBridgeRegRead>
   22064:	e0bffe0d 	sth	r2,-8(fp)

	printf("Chip and Revision ID is 0x%04xh(expected: 0x4401);\n",data);
   22068:	e0bffe0b 	ldhu	r2,-8(fp)
   2206c:	100b883a 	mov	r5,r2
   22070:	010000f4 	movhi	r4,3
   22074:	2114f804 	addi	r4,r4,21472
   22078:	00241080 	call	24108 <printf>


    num = sizeof(MipiBridgeReg)/sizeof(MipiBridgeReg[0]);
   2207c:	00800344 	movi	r2,13
   22080:	e0bfff15 	stw	r2,-4(fp)

    for(i=0;i<num;i++){
   22084:	e03ffd15 	stw	zero,-12(fp)
   22088:	00002d06 	br	22140 <MipiBridgeInit+0x100>
   	 if (MipiBridgeReg[i].Addr == 0xFFFF)   usleep(MipiBridgeReg[i].Data*1000);
   2208c:	008000f4 	movhi	r2,3
   22090:	1095ff04 	addi	r2,r2,22524
   22094:	e0fffd17 	ldw	r3,-12(fp)
   22098:	18c7883a 	add	r3,r3,r3
   2209c:	18c7883a 	add	r3,r3,r3
   220a0:	10c5883a 	add	r2,r2,r3
   220a4:	1080000b 	ldhu	r2,0(r2)
   220a8:	10ffffcc 	andi	r3,r2,65535
   220ac:	00bfffd4 	movui	r2,65535
   220b0:	18800d1e 	bne	r3,r2,220e8 <MipiBridgeInit+0xa8>
   220b4:	008000f4 	movhi	r2,3
   220b8:	1095ff04 	addi	r2,r2,22524
   220bc:	e0fffd17 	ldw	r3,-12(fp)
   220c0:	18c7883a 	add	r3,r3,r3
   220c4:	18c7883a 	add	r3,r3,r3
   220c8:	10c5883a 	add	r2,r2,r3
   220cc:	10800084 	addi	r2,r2,2
   220d0:	1080000b 	ldhu	r2,0(r2)
   220d4:	10bfffcc 	andi	r2,r2,65535
   220d8:	1080fa24 	muli	r2,r2,1000
   220dc:	1009883a 	mov	r4,r2
   220e0:	00341580 	call	34158 <usleep>
   220e4:	00001306 	br	22134 <MipiBridgeInit+0xf4>
        else MipiBridgeRegWrite(MipiBridgeReg[i].Addr,  MipiBridgeReg[i].Data);
   220e8:	008000f4 	movhi	r2,3
   220ec:	1095ff04 	addi	r2,r2,22524
   220f0:	e0fffd17 	ldw	r3,-12(fp)
   220f4:	18c7883a 	add	r3,r3,r3
   220f8:	18c7883a 	add	r3,r3,r3
   220fc:	10c5883a 	add	r2,r2,r3
   22100:	1080000b 	ldhu	r2,0(r2)
   22104:	113fffcc 	andi	r4,r2,65535
   22108:	008000f4 	movhi	r2,3
   2210c:	1095ff04 	addi	r2,r2,22524
   22110:	e0fffd17 	ldw	r3,-12(fp)
   22114:	18c7883a 	add	r3,r3,r3
   22118:	18c7883a 	add	r3,r3,r3
   2211c:	10c5883a 	add	r2,r2,r3
   22120:	10800084 	addi	r2,r2,2
   22124:	1080000b 	ldhu	r2,0(r2)
   22128:	10bfffcc 	andi	r2,r2,65535
   2212c:	100b883a 	mov	r5,r2
   22130:	0021f5c0 	call	21f5c <MipiBridgeRegWrite>
	printf("Chip and Revision ID is 0x%04xh(expected: 0x4401);\n",data);


    num = sizeof(MipiBridgeReg)/sizeof(MipiBridgeReg[0]);

    for(i=0;i<num;i++){
   22134:	e0bffd17 	ldw	r2,-12(fp)
   22138:	10800044 	addi	r2,r2,1
   2213c:	e0bffd15 	stw	r2,-12(fp)
   22140:	e0fffd17 	ldw	r3,-12(fp)
   22144:	e0bfff17 	ldw	r2,-4(fp)
   22148:	18bfd016 	blt	r3,r2,2208c <__alt_data_end+0xfffe208c>
//     MipiBridgeRegWrite(0x005A,((cap<<6) + (HsRxRs<<4) + ClkDly_data));
//     MipiBridgeRegWrite(0x005C,((cap<<6) + (HsRxRs<<4) + ClkDly_data));
//     MipiBridgeRegWrite(0x005E,((cap<<6) + (HsRxRs<<4) + ClkDly_data));
//

    printf("End MipiBridgeInit!\n\n");
   2214c:	010000f4 	movhi	r4,3
   22150:	21150504 	addi	r4,r4,21524
   22154:	00242240 	call	24224 <puts>

}
   22158:	0001883a 	nop
   2215c:	e037883a 	mov	sp,fp
   22160:	dfc00117 	ldw	ra,4(sp)
   22164:	df000017 	ldw	fp,0(sp)
   22168:	dec00204 	addi	sp,sp,8
   2216c:	f800283a 	ret

00022170 <OV8865_read_cmos_sensor_8>:
   };




alt_u8 OV8865_read_cmos_sensor_8(alt_u16 Addr){
   22170:	defffb04 	addi	sp,sp,-20
   22174:	dfc00415 	stw	ra,16(sp)
   22178:	df000315 	stw	fp,12(sp)
   2217c:	df000304 	addi	fp,sp,12
   22180:	2005883a 	mov	r2,r4
   22184:	e0bfff0d 	sth	r2,-4(fp)
	const alt_u8 device_address = MIPI_I2C_ADDR;
   22188:	00801b04 	movi	r2,108
   2218c:	e0bffe05 	stb	r2,-8(fp)
	alt_u8 Value;

	//OC_I2CL_Write(I2C_OPENCORES_CAMERA_BASE, device_address, SWAP16(Addr), (alt_u8 *)&Value, sizeof(Value));
	OC_I2CL_Read(I2C_OPENCORES_CAMERA_BASE, device_address, Addr, (alt_u8 *)&Value, sizeof(Value));
   22190:	e0fffe03 	ldbu	r3,-8(fp)
   22194:	e13fff0b 	ldhu	r4,-4(fp)
   22198:	e17ffe44 	addi	r5,fp,-7
   2219c:	00800044 	movi	r2,1
   221a0:	d8800015 	stw	r2,0(sp)
   221a4:	280f883a 	mov	r7,r5
   221a8:	200d883a 	mov	r6,r4
   221ac:	180b883a 	mov	r5,r3
   221b0:	01000134 	movhi	r4,4
   221b4:	21041004 	addi	r4,r4,4160
   221b8:	0020d000 	call	20d00 <OC_I2CL_Read>

	return (Value);
   221bc:	e0bffe43 	ldbu	r2,-7(fp)
}
   221c0:	e037883a 	mov	sp,fp
   221c4:	dfc00117 	ldw	ra,4(sp)
   221c8:	df000017 	ldw	fp,0(sp)
   221cc:	dec00204 	addi	sp,sp,8
   221d0:	f800283a 	ret

000221d4 <OV8865_write_cmos_sensor_8>:


void OV8865_write_cmos_sensor_8(alt_u16 Addr, alt_u8 Value){
   221d4:	defffa04 	addi	sp,sp,-24
   221d8:	dfc00515 	stw	ra,20(sp)
   221dc:	df000415 	stw	fp,16(sp)
   221e0:	df000404 	addi	fp,sp,16
   221e4:	2007883a 	mov	r3,r4
   221e8:	2805883a 	mov	r2,r5
   221ec:	e0fffe0d 	sth	r3,-8(fp)
   221f0:	e0bfff05 	stb	r2,-4(fp)
	const alt_u8 device_address = MIPI_I2C_ADDR;
   221f4:	00801b04 	movi	r2,108
   221f8:	e0bffd05 	stb	r2,-12(fp)
	//OC_I2CL_Write(I2C_OPENCORES_CAMERA_BASE, device_address, SWAP16(Addr), (alt_u8 *)&Value, sizeof(Value));
	OC_I2CL_Write(I2C_OPENCORES_CAMERA_BASE, device_address, Addr, (alt_u8 *)&Value, sizeof(Value));
   221fc:	e0fffd03 	ldbu	r3,-12(fp)
   22200:	e13ffe0b 	ldhu	r4,-8(fp)
   22204:	e17fff04 	addi	r5,fp,-4
   22208:	00800044 	movi	r2,1
   2220c:	d8800015 	stw	r2,0(sp)
   22210:	280f883a 	mov	r7,r5
   22214:	200d883a 	mov	r6,r4
   22218:	180b883a 	mov	r5,r3
   2221c:	01000134 	movhi	r4,4
   22220:	21041004 	addi	r4,r4,4160
   22224:	0020af00 	call	20af0 <OC_I2CL_Write>
}
   22228:	0001883a 	nop
   2222c:	e037883a 	mov	sp,fp
   22230:	dfc00117 	ldw	ra,4(sp)
   22234:	df000017 	ldw	fp,0(sp)
   22238:	dec00204 	addi	sp,sp,8
   2223c:	f800283a 	ret

00022240 <OV8865_write_AF>:


void OV8865_write_AF(alt_u8 msb, alt_u8 lsb){
   22240:	defffa04 	addi	sp,sp,-24
   22244:	dfc00515 	stw	ra,20(sp)
   22248:	df000415 	stw	fp,16(sp)
   2224c:	df000404 	addi	fp,sp,16
   22250:	2007883a 	mov	r3,r4
   22254:	2805883a 	mov	r2,r5
   22258:	e0fffe05 	stb	r3,-8(fp)
   2225c:	e0bfff05 	stb	r2,-4(fp)
	// VCM149C
	const alt_u8 device_address = MIPI_AF_I2C_ADDR;
   22260:	00800604 	movi	r2,24
   22264:	e0bffd05 	stb	r2,-12(fp)
	OC_I2C_Write(I2C_OPENCORES_CAMERA_BASE, device_address, msb, (alt_u8 *)&lsb, sizeof(lsb));
   22268:	e0fffd03 	ldbu	r3,-12(fp)
   2226c:	e13ffe03 	ldbu	r4,-8(fp)
   22270:	e17fff04 	addi	r5,fp,-4
   22274:	00800044 	movi	r2,1
   22278:	d8800015 	stw	r2,0(sp)
   2227c:	280f883a 	mov	r7,r5
   22280:	200d883a 	mov	r6,r4
   22284:	180b883a 	mov	r5,r3
   22288:	01000134 	movhi	r4,4
   2228c:	21041004 	addi	r4,r4,4160
   22290:	00205880 	call	20588 <OC_I2C_Write>
}
   22294:	0001883a 	nop
   22298:	e037883a 	mov	sp,fp
   2229c:	dfc00117 	ldw	ra,4(sp)
   222a0:	df000017 	ldw	fp,0(sp)
   222a4:	dec00204 	addi	sp,sp,8
   222a8:	f800283a 	ret

000222ac <OV8865_read_AF>:

void OV8865_read_AF(void){
   222ac:	defffb04 	addi	sp,sp,-20
   222b0:	dfc00415 	stw	ra,16(sp)
   222b4:	df000315 	stw	fp,12(sp)
   222b8:	df000304 	addi	fp,sp,12
	// VCM149C
	const alt_u8 device_address = MIPI_AF_I2C_ADDR;
   222bc:	00800604 	movi	r2,24
   222c0:	e0bffd05 	stb	r2,-12(fp)
	alt_u8 szData8[2];
	bool bSuccess;

		bSuccess = OC_I2C_Read_Continue(I2C_OPENCORES_CAMERA_BASE, device_address, szData8, sizeof(szData8));
   222c4:	e0bffd03 	ldbu	r2,-12(fp)
   222c8:	e0ffff04 	addi	r3,fp,-4
   222cc:	01c00084 	movi	r7,2
   222d0:	180d883a 	mov	r6,r3
   222d4:	100b883a 	mov	r5,r2
   222d8:	01000134 	movhi	r4,4
   222dc:	21041004 	addi	r4,r4,4160
   222e0:	00209b80 	call	209b8 <OC_I2C_Read_Continue>
   222e4:	e0bffe15 	stw	r2,-8(fp)
		if (bSuccess)
   222e8:	e0bffe17 	ldw	r2,-8(fp)
   222ec:	10000926 	beq	r2,zero,22314 <OV8865_read_AF+0x68>
			printf("Read MSB=%xh, LSB=%xh\r\n", szData8[0], szData8[1]);
   222f0:	e0bfff03 	ldbu	r2,-4(fp)
   222f4:	10803fcc 	andi	r2,r2,255
   222f8:	e0ffff43 	ldbu	r3,-3(fp)
   222fc:	18c03fcc 	andi	r3,r3,255
   22300:	180d883a 	mov	r6,r3
   22304:	100b883a 	mov	r5,r2
   22308:	010000f4 	movhi	r4,3
   2230c:	21150b04 	addi	r4,r4,21548
   22310:	00241080 	call	24108 <printf>
}
   22314:	0001883a 	nop
   22318:	e037883a 	mov	sp,fp
   2231c:	dfc00117 	ldw	ra,4(sp)
   22320:	df000017 	ldw	fp,0(sp)
   22324:	dec00204 	addi	sp,sp,8
   22328:	f800283a 	ret

0002232c <OV8865_FOCUS_Move_to>:

void OV8865_FOCUS_Move_to(alt_u16 a_u2MovePosition)
{
   2232c:	defffb04 	addi	sp,sp,-20
   22330:	dfc00415 	stw	ra,16(sp)
   22334:	df000315 	stw	fp,12(sp)
   22338:	df000304 	addi	fp,sp,12
   2233c:	2005883a 	mov	r2,r4
   22340:	e0bfff0d 	sth	r2,-4(fp)
  if (a_u2MovePosition > 1023)   {a_u2MovePosition = 1023;}
   22344:	e0bfff0b 	ldhu	r2,-4(fp)
   22348:	10810030 	cmpltui	r2,r2,1024
   2234c:	1000021e 	bne	r2,zero,22358 <OV8865_FOCUS_Move_to+0x2c>
   22350:	0080ffc4 	movi	r2,1023
   22354:	e0bfff0d 	sth	r2,-4(fp)
  if (a_u2MovePosition < 0)     {a_u2MovePosition = 0;}
  int bSuccess;

  Focus_Released(); // waiting for VCM release I2C bus
   22358:	00212880 	call	21288 <Focus_Released>

	bSuccess = oc_i2c_init_ex(I2C_OPENCORES_CAMERA_BASE, 50*1000*1000,400*1000); //I2C: 400K
   2235c:	018001b4 	movhi	r6,6
   22360:	3186a004 	addi	r6,r6,6784
   22364:	0140bef4 	movhi	r5,763
   22368:	297c2004 	addi	r5,r5,-3968
   2236c:	01000134 	movhi	r4,4
   22370:	21041004 	addi	r4,r4,4160
   22374:	00202dc0 	call	202dc <oc_i2c_init_ex>
   22378:	e0bffd15 	stw	r2,-12(fp)
	if (!bSuccess)
   2237c:	e0bffd17 	ldw	r2,-12(fp)
   22380:	1000031e 	bne	r2,zero,22390 <OV8865_FOCUS_Move_to+0x64>
		printf("failed to init MIPI- Camera i2c\r\n");
   22384:	010000f4 	movhi	r4,3
   22388:	21151104 	addi	r4,r4,21572
   2238c:	00242240 	call	24224 <puts>

	//printf("Manual set focus to %d\r\n",a_u2MovePosition);
  alt_u8 msb,lsb;
  msb = (a_u2MovePosition >> 4)&0x00FF;
   22390:	e0bfff0b 	ldhu	r2,-4(fp)
   22394:	1004d13a 	srli	r2,r2,4
   22398:	e0bffe05 	stb	r2,-8(fp)
  lsb = (a_u2MovePosition << 4 )&0x00F0;
   2239c:	e0bfff0b 	ldhu	r2,-4(fp)
   223a0:	1004913a 	slli	r2,r2,4
   223a4:	e0bffe45 	stb	r2,-7(fp)
  lsb += 0x06;
   223a8:	e0bffe43 	ldbu	r2,-7(fp)
   223ac:	10800184 	addi	r2,r2,6
   223b0:	e0bffe45 	stb	r2,-7(fp)
//	printf("Write MSB=%xh, LSB=%xh\r\n", msb, lsb);
	OV8865_write_AF(msb, lsb+0x6);
   223b4:	e0fffe03 	ldbu	r3,-8(fp)
   223b8:	e0bffe43 	ldbu	r2,-7(fp)
   223bc:	10800184 	addi	r2,r2,6
   223c0:	10803fcc 	andi	r2,r2,255
   223c4:	100b883a 	mov	r5,r2
   223c8:	1809883a 	mov	r4,r3
   223cc:	00222400 	call	22240 <OV8865_write_AF>
	usleep(1000);
   223d0:	0100fa04 	movi	r4,1000
   223d4:	00341580 	call	34158 <usleep>
//	OV8865_read_AF();

	oc_i2c_uninit(I2C_OPENCORES_CAMERA_BASE);  // Release I2C bus , due to two I2C master shared!
   223d8:	01000134 	movhi	r4,4
   223dc:	21041004 	addi	r4,r4,4160
   223e0:	00204180 	call	20418 <oc_i2c_uninit>

}
   223e4:	0001883a 	nop
   223e8:	e037883a 	mov	sp,fp
   223ec:	dfc00117 	ldw	ra,4(sp)
   223f0:	df000017 	ldw	fp,0(sp)
   223f4:	dec00204 	addi	sp,sp,8
   223f8:	f800283a 	ret

000223fc <OV8865SetExposure>:

void OV8865SetExposure(alt_u32 exposure){
   223fc:	defffc04 	addi	sp,sp,-16
   22400:	dfc00315 	stw	ra,12(sp)
   22404:	df000215 	stw	fp,8(sp)
   22408:	df000204 	addi	fp,sp,8
   2240c:	e13fff15 	stw	r4,-4(fp)

	Focus_Released(); // waiting for VCM release I2C bus
   22410:	00212880 	call	21288 <Focus_Released>

	int bSuccess = oc_i2c_init_ex(I2C_OPENCORES_CAMERA_BASE, 50*1000*1000,400*1000); //I2C: 400K
   22414:	018001b4 	movhi	r6,6
   22418:	3186a004 	addi	r6,r6,6784
   2241c:	0140bef4 	movhi	r5,763
   22420:	297c2004 	addi	r5,r5,-3968
   22424:	01000134 	movhi	r4,4
   22428:	21041004 	addi	r4,r4,4160
   2242c:	00202dc0 	call	202dc <oc_i2c_init_ex>
   22430:	e0bffe15 	stw	r2,-8(fp)
	if (!bSuccess)
   22434:	e0bffe17 	ldw	r2,-8(fp)
   22438:	1000031e 	bne	r2,zero,22448 <OV8865SetExposure+0x4c>
		printf("failed to init MIPI- Camera i2c\r\n");
   2243c:	010000f4 	movhi	r4,3
   22440:	21151104 	addi	r4,r4,21572
   22444:	00242240 	call	24224 <puts>

	if (exposure > 0xFFFFF) exposure = 0xFFFFF;
   22448:	e0ffff17 	ldw	r3,-4(fp)
   2244c:	00800434 	movhi	r2,16
   22450:	18800336 	bltu	r3,r2,22460 <OV8865SetExposure+0x64>
   22454:	00800434 	movhi	r2,16
   22458:	10bfffc4 	addi	r2,r2,-1
   2245c:	e0bfff15 	stw	r2,-4(fp)
	if (exposure < 0x20) exposure = 0x20;
   22460:	e0bfff17 	ldw	r2,-4(fp)
   22464:	10800828 	cmpgeui	r2,r2,32
   22468:	1000021e 	bne	r2,zero,22474 <OV8865SetExposure+0x78>
   2246c:	00800804 	movi	r2,32
   22470:	e0bfff15 	stw	r2,-4(fp)

	OV8865_write_cmos_sensor_8(0x3500, (exposure >> 16) & 0x0F);
   22474:	e0bfff17 	ldw	r2,-4(fp)
   22478:	1004d43a 	srli	r2,r2,16
   2247c:	108003cc 	andi	r2,r2,15
   22480:	100b883a 	mov	r5,r2
   22484:	010d4004 	movi	r4,13568
   22488:	00221d40 	call	221d4 <OV8865_write_cmos_sensor_8>
	OV8865_write_cmos_sensor_8(0x3501, (exposure >> 8) & 0xFF);
   2248c:	e0bfff17 	ldw	r2,-4(fp)
   22490:	1004d23a 	srli	r2,r2,8
   22494:	10803fcc 	andi	r2,r2,255
   22498:	100b883a 	mov	r5,r2
   2249c:	010d4044 	movi	r4,13569
   224a0:	00221d40 	call	221d4 <OV8865_write_cmos_sensor_8>
	OV8865_write_cmos_sensor_8(0x3502, exposure & 0xFF);
   224a4:	e0bfff17 	ldw	r2,-4(fp)
   224a8:	10803fcc 	andi	r2,r2,255
   224ac:	100b883a 	mov	r5,r2
   224b0:	010d4084 	movi	r4,13570
   224b4:	00221d40 	call	221d4 <OV8865_write_cmos_sensor_8>


	oc_i2c_uninit(I2C_OPENCORES_CAMERA_BASE);
   224b8:	01000134 	movhi	r4,4
   224bc:	21041004 	addi	r4,r4,4160
   224c0:	00204180 	call	20418 <oc_i2c_uninit>
}
   224c4:	0001883a 	nop
   224c8:	e037883a 	mov	sp,fp
   224cc:	dfc00117 	ldw	ra,4(sp)
   224d0:	df000017 	ldw	fp,0(sp)
   224d4:	dec00204 	addi	sp,sp,8
   224d8:	f800283a 	ret

000224dc <OV8865SetGain>:

void OV8865SetGain(alt_u16 gain){
   224dc:	defffc04 	addi	sp,sp,-16
   224e0:	dfc00315 	stw	ra,12(sp)
   224e4:	df000215 	stw	fp,8(sp)
   224e8:	df000204 	addi	fp,sp,8
   224ec:	2005883a 	mov	r2,r4
   224f0:	e0bfff0d 	sth	r2,-4(fp)

	Focus_Released(); // waiting for VCM release I2C bus
   224f4:	00212880 	call	21288 <Focus_Released>

	int bSuccess = oc_i2c_init_ex(I2C_OPENCORES_CAMERA_BASE, 50*1000*1000,400*1000); //I2C: 400K
   224f8:	018001b4 	movhi	r6,6
   224fc:	3186a004 	addi	r6,r6,6784
   22500:	0140bef4 	movhi	r5,763
   22504:	297c2004 	addi	r5,r5,-3968
   22508:	01000134 	movhi	r4,4
   2250c:	21041004 	addi	r4,r4,4160
   22510:	00202dc0 	call	202dc <oc_i2c_init_ex>
   22514:	e0bffe15 	stw	r2,-8(fp)
	if (!bSuccess)
   22518:	e0bffe17 	ldw	r2,-8(fp)
   2251c:	1000031e 	bne	r2,zero,2252c <OV8865SetGain+0x50>
		printf("failed to init MIPI- Camera i2c\r\n");
   22520:	010000f4 	movhi	r4,3
   22524:	21151104 	addi	r4,r4,21572
   22528:	00242240 	call	24224 <puts>

	if (gain > 0x7FF) gain = 0x7FF;
   2252c:	e0bfff0b 	ldhu	r2,-4(fp)
   22530:	10820030 	cmpltui	r2,r2,2048
   22534:	1000021e 	bne	r2,zero,22540 <OV8865SetGain+0x64>
   22538:	0081ffc4 	movi	r2,2047
   2253c:	e0bfff0d 	sth	r2,-4(fp)
	if (gain < 0x080) gain = 0x080;
   22540:	e0bfff0b 	ldhu	r2,-4(fp)
   22544:	10802028 	cmpgeui	r2,r2,128
   22548:	1000021e 	bne	r2,zero,22554 <OV8865SetGain+0x78>
   2254c:	00802004 	movi	r2,128
   22550:	e0bfff0d 	sth	r2,-4(fp)

	OV8865_write_cmos_sensor_8(0x3508, (gain >> 8) & 0x0F);
   22554:	e0bfff0b 	ldhu	r2,-4(fp)
   22558:	1004d23a 	srli	r2,r2,8
   2255c:	10803fcc 	andi	r2,r2,255
   22560:	108003cc 	andi	r2,r2,15
   22564:	100b883a 	mov	r5,r2
   22568:	010d4204 	movi	r4,13576
   2256c:	00221d40 	call	221d4 <OV8865_write_cmos_sensor_8>
	OV8865_write_cmos_sensor_8(0x3509, gain & 0xFF);
   22570:	e0bfff0b 	ldhu	r2,-4(fp)
   22574:	10803fcc 	andi	r2,r2,255
   22578:	100b883a 	mov	r5,r2
   2257c:	010d4244 	movi	r4,13577
   22580:	00221d40 	call	221d4 <OV8865_write_cmos_sensor_8>


	oc_i2c_uninit(I2C_OPENCORES_CAMERA_BASE);
   22584:	01000134 	movhi	r4,4
   22588:	21041004 	addi	r4,r4,4160
   2258c:	00204180 	call	20418 <oc_i2c_uninit>
}
   22590:	0001883a 	nop
   22594:	e037883a 	mov	sp,fp
   22598:	dfc00117 	ldw	ra,4(sp)
   2259c:	df000017 	ldw	fp,0(sp)
   225a0:	dec00204 	addi	sp,sp,8
   225a4:	f800283a 	ret

000225a8 <OV8865ReadExposure>:

alt_u32 OV8865ReadExposure(){
   225a8:	defffb04 	addi	sp,sp,-20
   225ac:	dfc00415 	stw	ra,16(sp)
   225b0:	df000315 	stw	fp,12(sp)
   225b4:	dc000215 	stw	r16,8(sp)
   225b8:	df000304 	addi	fp,sp,12

	alt_u32 exposure;

	Focus_Released(); // waiting for VCM release I2C bus
   225bc:	00212880 	call	21288 <Focus_Released>

	int bSuccess = oc_i2c_init_ex(I2C_OPENCORES_CAMERA_BASE, 50*1000*1000,400*1000); //I2C: 400K
   225c0:	018001b4 	movhi	r6,6
   225c4:	3186a004 	addi	r6,r6,6784
   225c8:	0140bef4 	movhi	r5,763
   225cc:	297c2004 	addi	r5,r5,-3968
   225d0:	01000134 	movhi	r4,4
   225d4:	21041004 	addi	r4,r4,4160
   225d8:	00202dc0 	call	202dc <oc_i2c_init_ex>
   225dc:	e0bffd15 	stw	r2,-12(fp)
	if (!bSuccess)
   225e0:	e0bffd17 	ldw	r2,-12(fp)
   225e4:	1000031e 	bne	r2,zero,225f4 <OV8865ReadExposure+0x4c>
		printf("failed to init MIPI- Camera i2c\r\n");
   225e8:	010000f4 	movhi	r4,3
   225ec:	21151104 	addi	r4,r4,21572
   225f0:	00242240 	call	24224 <puts>

	exposure = OV8865_read_cmos_sensor_8(0x3500);
   225f4:	010d4004 	movi	r4,13568
   225f8:	00221700 	call	22170 <OV8865_read_cmos_sensor_8>
   225fc:	10803fcc 	andi	r2,r2,255
   22600:	e0bffe15 	stw	r2,-8(fp)
	exposure = (exposure <<8) | OV8865_read_cmos_sensor_8(0x3501);
   22604:	e0bffe17 	ldw	r2,-8(fp)
   22608:	1020923a 	slli	r16,r2,8
   2260c:	010d4044 	movi	r4,13569
   22610:	00221700 	call	22170 <OV8865_read_cmos_sensor_8>
   22614:	10803fcc 	andi	r2,r2,255
   22618:	8084b03a 	or	r2,r16,r2
   2261c:	e0bffe15 	stw	r2,-8(fp)
	exposure = (exposure <<8) | OV8865_read_cmos_sensor_8(0x3502);
   22620:	e0bffe17 	ldw	r2,-8(fp)
   22624:	1020923a 	slli	r16,r2,8
   22628:	010d4084 	movi	r4,13570
   2262c:	00221700 	call	22170 <OV8865_read_cmos_sensor_8>
   22630:	10803fcc 	andi	r2,r2,255
   22634:	8084b03a 	or	r2,r16,r2
   22638:	e0bffe15 	stw	r2,-8(fp)

	oc_i2c_uninit(I2C_OPENCORES_CAMERA_BASE);
   2263c:	01000134 	movhi	r4,4
   22640:	21041004 	addi	r4,r4,4160
   22644:	00204180 	call	20418 <oc_i2c_uninit>

	return exposure;
   22648:	e0bffe17 	ldw	r2,-8(fp)
}
   2264c:	e6ffff04 	addi	sp,fp,-4
   22650:	dfc00217 	ldw	ra,8(sp)
   22654:	df000117 	ldw	fp,4(sp)
   22658:	dc000017 	ldw	r16,0(sp)
   2265c:	dec00304 	addi	sp,sp,12
   22660:	f800283a 	ret

00022664 <MIPI_BIN_LEVEL>:




//ZOOM
void MIPI_BIN_LEVEL(alt_u8 level){
   22664:	defffc04 	addi	sp,sp,-16
   22668:	dfc00315 	stw	ra,12(sp)
   2266c:	df000215 	stw	fp,8(sp)
   22670:	df000204 	addi	fp,sp,8
   22674:	2005883a 	mov	r2,r4
   22678:	e0bfff05 	stb	r2,-4(fp)
	if(level <= 1) level = 1;
   2267c:	e0bfff03 	ldbu	r2,-4(fp)
   22680:	108000a8 	cmpgeui	r2,r2,2
   22684:	1000021e 	bne	r2,zero,22690 <MIPI_BIN_LEVEL+0x2c>
   22688:	00800044 	movi	r2,1
   2268c:	e0bfff05 	stb	r2,-4(fp)
	if(level >= 3) level = 3;
   22690:	e0bfff03 	ldbu	r2,-4(fp)
   22694:	108000f0 	cmpltui	r2,r2,3
   22698:	1000021e 	bne	r2,zero,226a4 <MIPI_BIN_LEVEL+0x40>
   2269c:	008000c4 	movi	r2,3
   226a0:	e0bfff05 	stb	r2,-4(fp)

	  Focus_Released(); // waiting for VCM release I2C bus
   226a4:	00212880 	call	21288 <Focus_Released>

	  int bSuccess;
		bSuccess = oc_i2c_init_ex(I2C_OPENCORES_CAMERA_BASE, 50*1000*1000,400*1000); //I2C: 400K
   226a8:	018001b4 	movhi	r6,6
   226ac:	3186a004 	addi	r6,r6,6784
   226b0:	0140bef4 	movhi	r5,763
   226b4:	297c2004 	addi	r5,r5,-3968
   226b8:	01000134 	movhi	r4,4
   226bc:	21041004 	addi	r4,r4,4160
   226c0:	00202dc0 	call	202dc <oc_i2c_init_ex>
   226c4:	e0bffe15 	stw	r2,-8(fp)
		if (!bSuccess)
   226c8:	e0bffe17 	ldw	r2,-8(fp)
   226cc:	1000031e 	bne	r2,zero,226dc <MIPI_BIN_LEVEL+0x78>
			printf("failed to init MIPI- Camera i2c\r\n");
   226d0:	010000f4 	movhi	r4,3
   226d4:	21151104 	addi	r4,r4,21572
   226d8:	00242240 	call	24224 <puts>


	OV8865_write_cmos_sensor_8(0x0100, 0x00);
   226dc:	000b883a 	mov	r5,zero
   226e0:	01004004 	movi	r4,256
   226e4:	00221d40 	call	221d4 <OV8865_write_cmos_sensor_8>

	if(level == 1){
   226e8:	e0bfff03 	ldbu	r2,-4(fp)
   226ec:	10800058 	cmpnei	r2,r2,1
   226f0:	1000131e 	bne	r2,zero,22740 <MIPI_BIN_LEVEL+0xdc>

		OV8865_write_cmos_sensor_8(0x3814, 0x01);
   226f4:	01400044 	movi	r5,1
   226f8:	010e0504 	movi	r4,14356
   226fc:	00221d40 	call	221d4 <OV8865_write_cmos_sensor_8>
		OV8865_write_cmos_sensor_8(0x3815, 0x01);
   22700:	01400044 	movi	r5,1
   22704:	010e0544 	movi	r4,14357
   22708:	00221d40 	call	221d4 <OV8865_write_cmos_sensor_8>
		OV8865_write_cmos_sensor_8(0x382a, 0x01);
   2270c:	01400044 	movi	r5,1
   22710:	010e0a84 	movi	r4,14378
   22714:	00221d40 	call	221d4 <OV8865_write_cmos_sensor_8>
		OV8865_write_cmos_sensor_8(0x382b, 0x01);
   22718:	01400044 	movi	r5,1
   2271c:	010e0ac4 	movi	r4,14379
   22720:	00221d40 	call	221d4 <OV8865_write_cmos_sensor_8>

		OV8865_write_cmos_sensor_8(0x3830, 8);
   22724:	01400204 	movi	r5,8
   22728:	010e0c04 	movi	r4,14384
   2272c:	00221d40 	call	221d4 <OV8865_write_cmos_sensor_8>
		OV8865_write_cmos_sensor_8(0x3836, 2);
   22730:	01400084 	movi	r5,2
   22734:	010e0d84 	movi	r4,14390
   22738:	00221d40 	call	221d4 <OV8865_write_cmos_sensor_8>
   2273c:	00002b06 	br	227ec <MIPI_BIN_LEVEL+0x188>
	}
	else if(level == 2){
   22740:	e0bfff03 	ldbu	r2,-4(fp)
   22744:	10800098 	cmpnei	r2,r2,2
   22748:	1000131e 	bne	r2,zero,22798 <MIPI_BIN_LEVEL+0x134>

		OV8865_write_cmos_sensor_8(0x3814, 0x03);
   2274c:	014000c4 	movi	r5,3
   22750:	010e0504 	movi	r4,14356
   22754:	00221d40 	call	221d4 <OV8865_write_cmos_sensor_8>
		OV8865_write_cmos_sensor_8(0x3815, 0x01);
   22758:	01400044 	movi	r5,1
   2275c:	010e0544 	movi	r4,14357
   22760:	00221d40 	call	221d4 <OV8865_write_cmos_sensor_8>
		OV8865_write_cmos_sensor_8(0x382a, 0x03);
   22764:	014000c4 	movi	r5,3
   22768:	010e0a84 	movi	r4,14378
   2276c:	00221d40 	call	221d4 <OV8865_write_cmos_sensor_8>
		OV8865_write_cmos_sensor_8(0x382b, 0x01);
   22770:	01400044 	movi	r5,1
   22774:	010e0ac4 	movi	r4,14379
   22778:	00221d40 	call	221d4 <OV8865_write_cmos_sensor_8>

		OV8865_write_cmos_sensor_8(0x3830, 4);
   2277c:	01400104 	movi	r5,4
   22780:	010e0c04 	movi	r4,14384
   22784:	00221d40 	call	221d4 <OV8865_write_cmos_sensor_8>
		OV8865_write_cmos_sensor_8(0x3836, 1);
   22788:	01400044 	movi	r5,1
   2278c:	010e0d84 	movi	r4,14390
   22790:	00221d40 	call	221d4 <OV8865_write_cmos_sensor_8>
   22794:	00001506 	br	227ec <MIPI_BIN_LEVEL+0x188>

	}
	else if(level == 3){
   22798:	e0bfff03 	ldbu	r2,-4(fp)
   2279c:	108000d8 	cmpnei	r2,r2,3
   227a0:	1000121e 	bne	r2,zero,227ec <MIPI_BIN_LEVEL+0x188>

		OV8865_write_cmos_sensor_8(0x3814, 0x07);
   227a4:	014001c4 	movi	r5,7
   227a8:	010e0504 	movi	r4,14356
   227ac:	00221d40 	call	221d4 <OV8865_write_cmos_sensor_8>
		OV8865_write_cmos_sensor_8(0x3815, 0x01);
   227b0:	01400044 	movi	r5,1
   227b4:	010e0544 	movi	r4,14357
   227b8:	00221d40 	call	221d4 <OV8865_write_cmos_sensor_8>
		OV8865_write_cmos_sensor_8(0x382a, 0x07);
   227bc:	014001c4 	movi	r5,7
   227c0:	010e0a84 	movi	r4,14378
   227c4:	00221d40 	call	221d4 <OV8865_write_cmos_sensor_8>
		OV8865_write_cmos_sensor_8(0x382b, 0x01);
   227c8:	01400044 	movi	r5,1
   227cc:	010e0ac4 	movi	r4,14379
   227d0:	00221d40 	call	221d4 <OV8865_write_cmos_sensor_8>

		OV8865_write_cmos_sensor_8(0x3830, 8);
   227d4:	01400204 	movi	r5,8
   227d8:	010e0c04 	movi	r4,14384
   227dc:	00221d40 	call	221d4 <OV8865_write_cmos_sensor_8>
		OV8865_write_cmos_sensor_8(0x3836, 2);
   227e0:	01400084 	movi	r5,2
   227e4:	010e0d84 	movi	r4,14390
   227e8:	00221d40 	call	221d4 <OV8865_write_cmos_sensor_8>
	}
    usleep(10000);
   227ec:	0109c404 	movi	r4,10000
   227f0:	00341580 	call	34158 <usleep>
	OV8865_write_cmos_sensor_8(0x0100, 0x01);
   227f4:	01400044 	movi	r5,1
   227f8:	01004004 	movi	r4,256
   227fc:	00221d40 	call	221d4 <OV8865_write_cmos_sensor_8>

	oc_i2c_uninit(I2C_OPENCORES_CAMERA_BASE);  // Release I2C bus , due to two I2C master shared!
   22800:	01000134 	movhi	r4,4
   22804:	21041004 	addi	r4,r4,4160
   22808:	00204180 	call	20418 <oc_i2c_uninit>

}
   2280c:	0001883a 	nop
   22810:	e037883a 	mov	sp,fp
   22814:	dfc00117 	ldw	ra,4(sp)
   22818:	df000017 	ldw	fp,0(sp)
   2281c:	dec00204 	addi	sp,sp,8
   22820:	f800283a 	ret

00022824 <MipiCameraInit>:
//		OV8865_write_cmos_sensor_8(0x0100, 0x01);
//}


void MipiCameraInit(void)
{
   22824:	defffb04 	addi	sp,sp,-20
   22828:	dfc00415 	stw	ra,16(sp)
   2282c:	df000315 	stw	fp,12(sp)
   22830:	df000304 	addi	fp,sp,12

    int i, num;
    int bSuccess;

    Focus_Released(); // waiting for VCM release I2C bus
   22834:	00212880 	call	21288 <Focus_Released>


		bSuccess = oc_i2c_init_ex(I2C_OPENCORES_CAMERA_BASE, 50*1000*1000,400*1000); //I2C: 400K
   22838:	018001b4 	movhi	r6,6
   2283c:	3186a004 	addi	r6,r6,6784
   22840:	0140bef4 	movhi	r5,763
   22844:	297c2004 	addi	r5,r5,-3968
   22848:	01000134 	movhi	r4,4
   2284c:	21041004 	addi	r4,r4,4160
   22850:	00202dc0 	call	202dc <oc_i2c_init_ex>
   22854:	e0bffe15 	stw	r2,-8(fp)
		if (!bSuccess)
   22858:	e0bffe17 	ldw	r2,-8(fp)
   2285c:	1000031e 	bne	r2,zero,2286c <MipiCameraInit+0x48>
			printf("failed to init MIPI- Camera i2c\r\n");
   22860:	010000f4 	movhi	r4,3
   22864:	21151104 	addi	r4,r4,21572
   22868:	00242240 	call	24224 <puts>
//        usleep(10000);
//    }
//


	 OV8865DB("\nStart MipiCameraInit -OV8865!\r\n");
   2286c:	010000f4 	movhi	r4,3
   22870:	21151a04 	addi	r4,r4,21608
   22874:	00242240 	call	24224 <puts>
	 OV8865DB("Write Read Test!\n");
   22878:	010000f4 	movhi	r4,3
   2287c:	21152204 	addi	r4,r4,21640
   22880:	00242240 	call	24224 <puts>

	    for(i=0;i<10;i++){
   22884:	e03ffd15 	stw	zero,-12(fp)
   22888:	00001406 	br	228dc <MipiCameraInit+0xb8>
	       OV8865_write_cmos_sensor_8(0x3809,i);
   2288c:	e0bffd17 	ldw	r2,-12(fp)
   22890:	10803fcc 	andi	r2,r2,255
   22894:	100b883a 	mov	r5,r2
   22898:	010e0244 	movi	r4,14345
   2289c:	00221d40 	call	221d4 <OV8865_write_cmos_sensor_8>
	      usleep(100);
   228a0:	01001904 	movi	r4,100
   228a4:	00341580 	call	34158 <usleep>
	        printf("%d (%d)\n",OV8865_read_cmos_sensor_8(0x3809),i);
   228a8:	010e0244 	movi	r4,14345
   228ac:	00221700 	call	22170 <OV8865_read_cmos_sensor_8>
   228b0:	10803fcc 	andi	r2,r2,255
   228b4:	e1bffd17 	ldw	r6,-12(fp)
   228b8:	100b883a 	mov	r5,r2
   228bc:	010000f4 	movhi	r4,3
   228c0:	21152704 	addi	r4,r4,21660
   228c4:	00241080 	call	24108 <printf>
	      usleep(100);
   228c8:	01001904 	movi	r4,100
   228cc:	00341580 	call	34158 <usleep>


	 OV8865DB("\nStart MipiCameraInit -OV8865!\r\n");
	 OV8865DB("Write Read Test!\n");

	    for(i=0;i<10;i++){
   228d0:	e0bffd17 	ldw	r2,-12(fp)
   228d4:	10800044 	addi	r2,r2,1
   228d8:	e0bffd15 	stw	r2,-12(fp)
   228dc:	e0bffd17 	ldw	r2,-12(fp)
   228e0:	10800290 	cmplti	r2,r2,10
   228e4:	103fe91e 	bne	r2,zero,2288c <__alt_data_end+0xfffe288c>
	       OV8865_write_cmos_sensor_8(0x3809,i);
	      usleep(100);
	        printf("%d (%d)\n",OV8865_read_cmos_sensor_8(0x3809),i);
	      usleep(100);
	    }
	 num = sizeof(MipiCameraReg)/sizeof(MipiCameraReg[0]);
   228e8:	00804f84 	movi	r2,318
   228ec:	e0bfff15 	stw	r2,-4(fp)
     for(i=0;i<num;i++){
   228f0:	e03ffd15 	stw	zero,-12(fp)
   228f4:	00003c06 	br	229e8 <MipiCameraInit+0x1c4>

    	 if (MipiCameraReg[i].Type == TIME_DELAY)   usleep(MipiCameraReg[i].Data*100);
   228f8:	008000f4 	movhi	r2,3
   228fc:	10960c04 	addi	r2,r2,22576
   22900:	e0fffd17 	ldw	r3,-12(fp)
   22904:	18c001a4 	muli	r3,r3,6
   22908:	10c5883a 	add	r2,r2,r3
   2290c:	10800003 	ldbu	r2,0(r2)
   22910:	10803fcc 	andi	r2,r2,255
   22914:	108000d8 	cmpnei	r2,r2,3
   22918:	10000c1e 	bne	r2,zero,2294c <MipiCameraInit+0x128>
   2291c:	008000f4 	movhi	r2,3
   22920:	10960c04 	addi	r2,r2,22576
   22924:	e0fffd17 	ldw	r3,-12(fp)
   22928:	18c001a4 	muli	r3,r3,6
   2292c:	10c5883a 	add	r2,r2,r3
   22930:	10800104 	addi	r2,r2,4
   22934:	10800003 	ldbu	r2,0(r2)
   22938:	10803fcc 	andi	r2,r2,255
   2293c:	10801924 	muli	r2,r2,100
   22940:	1009883a 	mov	r4,r2
   22944:	00341580 	call	34158 <usleep>
   22948:	00002406 	br	229dc <MipiCameraInit+0x1b8>
    	 else if(MipiCameraReg[i].Type == END_OF_SCRIPT)   break;
   2294c:	008000f4 	movhi	r2,3
   22950:	10960c04 	addi	r2,r2,22576
   22954:	e0fffd17 	ldw	r3,-12(fp)
   22958:	18c001a4 	muli	r3,r3,6
   2295c:	10c5883a 	add	r2,r2,r3
   22960:	10800003 	ldbu	r2,0(r2)
   22964:	10803fcc 	andi	r2,r2,255
   22968:	10800118 	cmpnei	r2,r2,4
   2296c:	10002226 	beq	r2,zero,229f8 <MipiCameraInit+0x1d4>
    	 else if(MipiCameraReg[i].Type == 0x6c)   OV8865_write_cmos_sensor_8(MipiCameraReg[i].Addr, MipiCameraReg[i].Data);
   22970:	008000f4 	movhi	r2,3
   22974:	10960c04 	addi	r2,r2,22576
   22978:	e0fffd17 	ldw	r3,-12(fp)
   2297c:	18c001a4 	muli	r3,r3,6
   22980:	10c5883a 	add	r2,r2,r3
   22984:	10800003 	ldbu	r2,0(r2)
   22988:	10803fcc 	andi	r2,r2,255
   2298c:	10801b18 	cmpnei	r2,r2,108
   22990:	1000121e 	bne	r2,zero,229dc <MipiCameraInit+0x1b8>
   22994:	008000f4 	movhi	r2,3
   22998:	10960c04 	addi	r2,r2,22576
   2299c:	e0fffd17 	ldw	r3,-12(fp)
   229a0:	18c001a4 	muli	r3,r3,6
   229a4:	10c5883a 	add	r2,r2,r3
   229a8:	10800084 	addi	r2,r2,2
   229ac:	1080000b 	ldhu	r2,0(r2)
   229b0:	113fffcc 	andi	r4,r2,65535
   229b4:	008000f4 	movhi	r2,3
   229b8:	10960c04 	addi	r2,r2,22576
   229bc:	e0fffd17 	ldw	r3,-12(fp)
   229c0:	18c001a4 	muli	r3,r3,6
   229c4:	10c5883a 	add	r2,r2,r3
   229c8:	10800104 	addi	r2,r2,4
   229cc:	10800003 	ldbu	r2,0(r2)
   229d0:	10803fcc 	andi	r2,r2,255
   229d4:	100b883a 	mov	r5,r2
   229d8:	00221d40 	call	221d4 <OV8865_write_cmos_sensor_8>
	      usleep(100);
	        printf("%d (%d)\n",OV8865_read_cmos_sensor_8(0x3809),i);
	      usleep(100);
	    }
	 num = sizeof(MipiCameraReg)/sizeof(MipiCameraReg[0]);
     for(i=0;i<num;i++){
   229dc:	e0bffd17 	ldw	r2,-12(fp)
   229e0:	10800044 	addi	r2,r2,1
   229e4:	e0bffd15 	stw	r2,-12(fp)
   229e8:	e0fffd17 	ldw	r3,-12(fp)
   229ec:	e0bfff17 	ldw	r2,-4(fp)
   229f0:	18bfc116 	blt	r3,r2,228f8 <__alt_data_end+0xfffe28f8>
   229f4:	00000106 	br	229fc <MipiCameraInit+0x1d8>

    	 if (MipiCameraReg[i].Type == TIME_DELAY)   usleep(MipiCameraReg[i].Data*100);
    	 else if(MipiCameraReg[i].Type == END_OF_SCRIPT)   break;
   229f8:	0001883a 	nop
    	 else if(MipiCameraReg[i].Type == 0x6c)   OV8865_write_cmos_sensor_8(MipiCameraReg[i].Addr, MipiCameraReg[i].Data);
     }


 	oc_i2c_uninit(I2C_OPENCORES_CAMERA_BASE);  // Release I2C bus , due to two I2C master shared!
   229fc:	01000134 	movhi	r4,4
   22a00:	21041004 	addi	r4,r4,4160
   22a04:	00204180 	call	20418 <oc_i2c_uninit>



	 OV8865DB("\nEnd MipiCameraInit! -OV8865!\r\n\n");
   22a08:	010000f4 	movhi	r4,3
   22a0c:	21152a04 	addi	r4,r4,21672
   22a10:	00242240 	call	24224 <puts>

}
   22a14:	0001883a 	nop
   22a18:	e037883a 	mov	sp,fp
   22a1c:	dfc00117 	ldw	ra,4(sp)
   22a20:	df000017 	ldw	fp,0(sp)
   22a24:	dec00204 	addi	sp,sp,8
   22a28:	f800283a 	ret

00022a2c <QUEUE_New>:
#include "queue.h"




QUEUE_STRUCT* QUEUE_New(int nQueueNum){
   22a2c:	defffb04 	addi	sp,sp,-20
   22a30:	dfc00415 	stw	ra,16(sp)
   22a34:	df000315 	stw	fp,12(sp)
   22a38:	df000304 	addi	fp,sp,12
   22a3c:	e13fff15 	stw	r4,-4(fp)
    int nSize;
    QUEUE_STRUCT *pQueue;
    nSize = sizeof(QUEUE_STRUCT)+nQueueNum*sizeof(alt_u32);
   22a40:	e0bfff17 	ldw	r2,-4(fp)
   22a44:	10800144 	addi	r2,r2,5
   22a48:	1085883a 	add	r2,r2,r2
   22a4c:	1085883a 	add	r2,r2,r2
   22a50:	e0bffd15 	stw	r2,-12(fp)
    pQueue = (QUEUE_STRUCT *)malloc(nSize);
   22a54:	e0bffd17 	ldw	r2,-12(fp)
   22a58:	1009883a 	mov	r4,r2
   22a5c:	002371c0 	call	2371c <malloc>
   22a60:	e0bffe15 	stw	r2,-8(fp)
    memset((void *)pQueue, 0, nSize);
   22a64:	e0bffd17 	ldw	r2,-12(fp)
   22a68:	100d883a 	mov	r6,r2
   22a6c:	000b883a 	mov	r5,zero
   22a70:	e13ffe17 	ldw	r4,-8(fp)
   22a74:	0023f500 	call	23f50 <memset>
    pQueue->num = nQueueNum;
   22a78:	e0ffff17 	ldw	r3,-4(fp)
   22a7c:	e0bffe17 	ldw	r2,-8(fp)
   22a80:	10c00015 	stw	r3,0(r2)
    return pQueue;
   22a84:	e0bffe17 	ldw	r2,-8(fp)
}
   22a88:	e037883a 	mov	sp,fp
   22a8c:	dfc00117 	ldw	ra,4(sp)
   22a90:	df000017 	ldw	fp,0(sp)
   22a94:	dec00204 	addi	sp,sp,8
   22a98:	f800283a 	ret

00022a9c <QUEUE_Delete>:

void QUEUE_Delete(QUEUE_STRUCT *pQueue){
   22a9c:	defffd04 	addi	sp,sp,-12
   22aa0:	dfc00215 	stw	ra,8(sp)
   22aa4:	df000115 	stw	fp,4(sp)
   22aa8:	df000104 	addi	fp,sp,4
   22aac:	e13fff15 	stw	r4,-4(fp)
    free(pQueue);
   22ab0:	e13fff17 	ldw	r4,-4(fp)
   22ab4:	00237300 	call	23730 <free>
}
   22ab8:	0001883a 	nop
   22abc:	e037883a 	mov	sp,fp
   22ac0:	dfc00117 	ldw	ra,4(sp)
   22ac4:	df000017 	ldw	fp,0(sp)
   22ac8:	dec00204 	addi	sp,sp,8
   22acc:	f800283a 	ret

00022ad0 <QUEUE_IsEmpty>:

bool QUEUE_IsEmpty(QUEUE_STRUCT *pQueue){
   22ad0:	defffe04 	addi	sp,sp,-8
   22ad4:	df000115 	stw	fp,4(sp)
   22ad8:	df000104 	addi	fp,sp,4
   22adc:	e13fff15 	stw	r4,-4(fp)
    if (pQueue->front == pQueue->rear)
   22ae0:	e0bfff17 	ldw	r2,-4(fp)
   22ae4:	10c00117 	ldw	r3,4(r2)
   22ae8:	e0bfff17 	ldw	r2,-4(fp)
   22aec:	10800217 	ldw	r2,8(r2)
   22af0:	1880021e 	bne	r3,r2,22afc <QUEUE_IsEmpty+0x2c>
        return TRUE;
   22af4:	00800044 	movi	r2,1
   22af8:	00000106 	br	22b00 <QUEUE_IsEmpty+0x30>
    return FALSE;
   22afc:	0005883a 	mov	r2,zero
}
   22b00:	e037883a 	mov	sp,fp
   22b04:	df000017 	ldw	fp,0(sp)
   22b08:	dec00104 	addi	sp,sp,4
   22b0c:	f800283a 	ret

00022b10 <QUEUE_IsFull>:

bool QUEUE_IsFull(QUEUE_STRUCT *pQueue){
   22b10:	defffd04 	addi	sp,sp,-12
   22b14:	dfc00215 	stw	ra,8(sp)
   22b18:	df000115 	stw	fp,4(sp)
   22b1c:	df000104 	addi	fp,sp,4
   22b20:	e13fff15 	stw	r4,-4(fp)
    if (((pQueue->front+1)%pQueue->num) == pQueue->rear)
   22b24:	e0bfff17 	ldw	r2,-4(fp)
   22b28:	10800117 	ldw	r2,4(r2)
   22b2c:	10c00044 	addi	r3,r2,1
   22b30:	e0bfff17 	ldw	r2,-4(fp)
   22b34:	10800017 	ldw	r2,0(r2)
   22b38:	100b883a 	mov	r5,r2
   22b3c:	1809883a 	mov	r4,r3
   22b40:	0022e280 	call	22e28 <__umodsi3>
   22b44:	1007883a 	mov	r3,r2
   22b48:	e0bfff17 	ldw	r2,-4(fp)
   22b4c:	10800217 	ldw	r2,8(r2)
   22b50:	1880021e 	bne	r3,r2,22b5c <QUEUE_IsFull+0x4c>
        return TRUE;
   22b54:	00800044 	movi	r2,1
   22b58:	00000106 	br	22b60 <QUEUE_IsFull+0x50>
    return FALSE;
   22b5c:	0005883a 	mov	r2,zero
}
   22b60:	e037883a 	mov	sp,fp
   22b64:	dfc00117 	ldw	ra,4(sp)
   22b68:	df000017 	ldw	fp,0(sp)
   22b6c:	dec00204 	addi	sp,sp,8
   22b70:	f800283a 	ret

00022b74 <QUEUE_Push>:

bool QUEUE_Push(QUEUE_STRUCT *pQueue, alt_u32 data32){
   22b74:	defffc04 	addi	sp,sp,-16
   22b78:	dfc00315 	stw	ra,12(sp)
   22b7c:	df000215 	stw	fp,8(sp)
   22b80:	df000204 	addi	fp,sp,8
   22b84:	e13ffe15 	stw	r4,-8(fp)
   22b88:	e17fff15 	stw	r5,-4(fp)
    if (QUEUE_IsFull(pQueue))
   22b8c:	e13ffe17 	ldw	r4,-8(fp)
   22b90:	0022b100 	call	22b10 <QUEUE_IsFull>
   22b94:	10000226 	beq	r2,zero,22ba0 <QUEUE_Push+0x2c>
        return FALSE;
   22b98:	0005883a 	mov	r2,zero
   22b9c:	00001506 	br	22bf4 <QUEUE_Push+0x80>
    pQueue->data[pQueue->front] = data32;
   22ba0:	e0bffe17 	ldw	r2,-8(fp)
   22ba4:	10800117 	ldw	r2,4(r2)
   22ba8:	e0fffe17 	ldw	r3,-8(fp)
   22bac:	108000c4 	addi	r2,r2,3
   22bb0:	1085883a 	add	r2,r2,r2
   22bb4:	1085883a 	add	r2,r2,r2
   22bb8:	1885883a 	add	r2,r3,r2
   22bbc:	e0ffff17 	ldw	r3,-4(fp)
   22bc0:	10c00015 	stw	r3,0(r2)
    pQueue->front = (pQueue->front+1)%pQueue->num;        
   22bc4:	e0bffe17 	ldw	r2,-8(fp)
   22bc8:	10800117 	ldw	r2,4(r2)
   22bcc:	10c00044 	addi	r3,r2,1
   22bd0:	e0bffe17 	ldw	r2,-8(fp)
   22bd4:	10800017 	ldw	r2,0(r2)
   22bd8:	100b883a 	mov	r5,r2
   22bdc:	1809883a 	mov	r4,r3
   22be0:	0022e280 	call	22e28 <__umodsi3>
   22be4:	1007883a 	mov	r3,r2
   22be8:	e0bffe17 	ldw	r2,-8(fp)
   22bec:	10c00115 	stw	r3,4(r2)
    return TRUE;
   22bf0:	00800044 	movi	r2,1
}
   22bf4:	e037883a 	mov	sp,fp
   22bf8:	dfc00117 	ldw	ra,4(sp)
   22bfc:	df000017 	ldw	fp,0(sp)
   22c00:	dec00204 	addi	sp,sp,8
   22c04:	f800283a 	ret

00022c08 <QUEUE_Pop>:

alt_u32 QUEUE_Pop(QUEUE_STRUCT *pQueue){
   22c08:	defffc04 	addi	sp,sp,-16
   22c0c:	dfc00315 	stw	ra,12(sp)
   22c10:	df000215 	stw	fp,8(sp)
   22c14:	df000204 	addi	fp,sp,8
   22c18:	e13fff15 	stw	r4,-4(fp)
    alt_u32 data32;
    if (QUEUE_IsEmpty(pQueue))
   22c1c:	e13fff17 	ldw	r4,-4(fp)
   22c20:	0022ad00 	call	22ad0 <QUEUE_IsEmpty>
   22c24:	10000226 	beq	r2,zero,22c30 <QUEUE_Pop+0x28>
        return 0;
   22c28:	0005883a 	mov	r2,zero
   22c2c:	00001506 	br	22c84 <QUEUE_Pop+0x7c>
    data32 = pQueue->data[pQueue->rear];
   22c30:	e0bfff17 	ldw	r2,-4(fp)
   22c34:	10800217 	ldw	r2,8(r2)
   22c38:	e0ffff17 	ldw	r3,-4(fp)
   22c3c:	108000c4 	addi	r2,r2,3
   22c40:	1085883a 	add	r2,r2,r2
   22c44:	1085883a 	add	r2,r2,r2
   22c48:	1885883a 	add	r2,r3,r2
   22c4c:	10800017 	ldw	r2,0(r2)
   22c50:	e0bffe15 	stw	r2,-8(fp)
    pQueue->rear = (pQueue->rear+1)%pQueue->num;        
   22c54:	e0bfff17 	ldw	r2,-4(fp)
   22c58:	10800217 	ldw	r2,8(r2)
   22c5c:	10c00044 	addi	r3,r2,1
   22c60:	e0bfff17 	ldw	r2,-4(fp)
   22c64:	10800017 	ldw	r2,0(r2)
   22c68:	100b883a 	mov	r5,r2
   22c6c:	1809883a 	mov	r4,r3
   22c70:	0022e280 	call	22e28 <__umodsi3>
   22c74:	1007883a 	mov	r3,r2
   22c78:	e0bfff17 	ldw	r2,-4(fp)
   22c7c:	10c00215 	stw	r3,8(r2)
    return data32;
   22c80:	e0bffe17 	ldw	r2,-8(fp)
}
   22c84:	e037883a 	mov	sp,fp
   22c88:	dfc00117 	ldw	ra,4(sp)
   22c8c:	df000017 	ldw	fp,0(sp)
   22c90:	dec00204 	addi	sp,sp,8
   22c94:	f800283a 	ret

00022c98 <QUEUE_Empty>:

void QUEUE_Empty(QUEUE_STRUCT *pQueue){
   22c98:	defffe04 	addi	sp,sp,-8
   22c9c:	df000115 	stw	fp,4(sp)
   22ca0:	df000104 	addi	fp,sp,4
   22ca4:	e13fff15 	stw	r4,-4(fp)
    pQueue->front = 0;
   22ca8:	e0bfff17 	ldw	r2,-4(fp)
   22cac:	10000115 	stw	zero,4(r2)
    pQueue->rear = 0;
   22cb0:	e0bfff17 	ldw	r2,-4(fp)
   22cb4:	10000215 	stw	zero,8(r2)
}
   22cb8:	0001883a 	nop
   22cbc:	e037883a 	mov	sp,fp
   22cc0:	df000017 	ldw	fp,0(sp)
   22cc4:	dec00104 	addi	sp,sp,4
   22cc8:	f800283a 	ret

00022ccc <__divsi3>:
   22ccc:	20001b16 	blt	r4,zero,22d3c <__divsi3+0x70>
   22cd0:	000f883a 	mov	r7,zero
   22cd4:	28001616 	blt	r5,zero,22d30 <__divsi3+0x64>
   22cd8:	200d883a 	mov	r6,r4
   22cdc:	29001a2e 	bgeu	r5,r4,22d48 <__divsi3+0x7c>
   22ce0:	00800804 	movi	r2,32
   22ce4:	00c00044 	movi	r3,1
   22ce8:	00000106 	br	22cf0 <__divsi3+0x24>
   22cec:	10000d26 	beq	r2,zero,22d24 <__divsi3+0x58>
   22cf0:	294b883a 	add	r5,r5,r5
   22cf4:	10bfffc4 	addi	r2,r2,-1
   22cf8:	18c7883a 	add	r3,r3,r3
   22cfc:	293ffb36 	bltu	r5,r4,22cec <__alt_data_end+0xfffe2cec>
   22d00:	0005883a 	mov	r2,zero
   22d04:	18000726 	beq	r3,zero,22d24 <__divsi3+0x58>
   22d08:	0005883a 	mov	r2,zero
   22d0c:	31400236 	bltu	r6,r5,22d18 <__divsi3+0x4c>
   22d10:	314dc83a 	sub	r6,r6,r5
   22d14:	10c4b03a 	or	r2,r2,r3
   22d18:	1806d07a 	srli	r3,r3,1
   22d1c:	280ad07a 	srli	r5,r5,1
   22d20:	183ffa1e 	bne	r3,zero,22d0c <__alt_data_end+0xfffe2d0c>
   22d24:	38000126 	beq	r7,zero,22d2c <__divsi3+0x60>
   22d28:	0085c83a 	sub	r2,zero,r2
   22d2c:	f800283a 	ret
   22d30:	014bc83a 	sub	r5,zero,r5
   22d34:	39c0005c 	xori	r7,r7,1
   22d38:	003fe706 	br	22cd8 <__alt_data_end+0xfffe2cd8>
   22d3c:	0109c83a 	sub	r4,zero,r4
   22d40:	01c00044 	movi	r7,1
   22d44:	003fe306 	br	22cd4 <__alt_data_end+0xfffe2cd4>
   22d48:	00c00044 	movi	r3,1
   22d4c:	003fee06 	br	22d08 <__alt_data_end+0xfffe2d08>

00022d50 <__modsi3>:
   22d50:	20001716 	blt	r4,zero,22db0 <__modsi3+0x60>
   22d54:	000f883a 	mov	r7,zero
   22d58:	2005883a 	mov	r2,r4
   22d5c:	28001216 	blt	r5,zero,22da8 <__modsi3+0x58>
   22d60:	2900162e 	bgeu	r5,r4,22dbc <__modsi3+0x6c>
   22d64:	01800804 	movi	r6,32
   22d68:	00c00044 	movi	r3,1
   22d6c:	00000106 	br	22d74 <__modsi3+0x24>
   22d70:	30000a26 	beq	r6,zero,22d9c <__modsi3+0x4c>
   22d74:	294b883a 	add	r5,r5,r5
   22d78:	31bfffc4 	addi	r6,r6,-1
   22d7c:	18c7883a 	add	r3,r3,r3
   22d80:	293ffb36 	bltu	r5,r4,22d70 <__alt_data_end+0xfffe2d70>
   22d84:	18000526 	beq	r3,zero,22d9c <__modsi3+0x4c>
   22d88:	1806d07a 	srli	r3,r3,1
   22d8c:	11400136 	bltu	r2,r5,22d94 <__modsi3+0x44>
   22d90:	1145c83a 	sub	r2,r2,r5
   22d94:	280ad07a 	srli	r5,r5,1
   22d98:	183ffb1e 	bne	r3,zero,22d88 <__alt_data_end+0xfffe2d88>
   22d9c:	38000126 	beq	r7,zero,22da4 <__modsi3+0x54>
   22da0:	0085c83a 	sub	r2,zero,r2
   22da4:	f800283a 	ret
   22da8:	014bc83a 	sub	r5,zero,r5
   22dac:	003fec06 	br	22d60 <__alt_data_end+0xfffe2d60>
   22db0:	0109c83a 	sub	r4,zero,r4
   22db4:	01c00044 	movi	r7,1
   22db8:	003fe706 	br	22d58 <__alt_data_end+0xfffe2d58>
   22dbc:	00c00044 	movi	r3,1
   22dc0:	003ff106 	br	22d88 <__alt_data_end+0xfffe2d88>

00022dc4 <__udivsi3>:
   22dc4:	200d883a 	mov	r6,r4
   22dc8:	2900152e 	bgeu	r5,r4,22e20 <__udivsi3+0x5c>
   22dcc:	28001416 	blt	r5,zero,22e20 <__udivsi3+0x5c>
   22dd0:	00800804 	movi	r2,32
   22dd4:	00c00044 	movi	r3,1
   22dd8:	00000206 	br	22de4 <__udivsi3+0x20>
   22ddc:	10000e26 	beq	r2,zero,22e18 <__udivsi3+0x54>
   22de0:	28000516 	blt	r5,zero,22df8 <__udivsi3+0x34>
   22de4:	294b883a 	add	r5,r5,r5
   22de8:	10bfffc4 	addi	r2,r2,-1
   22dec:	18c7883a 	add	r3,r3,r3
   22df0:	293ffa36 	bltu	r5,r4,22ddc <__alt_data_end+0xfffe2ddc>
   22df4:	18000826 	beq	r3,zero,22e18 <__udivsi3+0x54>
   22df8:	0005883a 	mov	r2,zero
   22dfc:	31400236 	bltu	r6,r5,22e08 <__udivsi3+0x44>
   22e00:	314dc83a 	sub	r6,r6,r5
   22e04:	10c4b03a 	or	r2,r2,r3
   22e08:	1806d07a 	srli	r3,r3,1
   22e0c:	280ad07a 	srli	r5,r5,1
   22e10:	183ffa1e 	bne	r3,zero,22dfc <__alt_data_end+0xfffe2dfc>
   22e14:	f800283a 	ret
   22e18:	0005883a 	mov	r2,zero
   22e1c:	f800283a 	ret
   22e20:	00c00044 	movi	r3,1
   22e24:	003ff406 	br	22df8 <__alt_data_end+0xfffe2df8>

00022e28 <__umodsi3>:
   22e28:	2005883a 	mov	r2,r4
   22e2c:	2900122e 	bgeu	r5,r4,22e78 <__umodsi3+0x50>
   22e30:	28001116 	blt	r5,zero,22e78 <__umodsi3+0x50>
   22e34:	01800804 	movi	r6,32
   22e38:	00c00044 	movi	r3,1
   22e3c:	00000206 	br	22e48 <__umodsi3+0x20>
   22e40:	30000c26 	beq	r6,zero,22e74 <__umodsi3+0x4c>
   22e44:	28000516 	blt	r5,zero,22e5c <__umodsi3+0x34>
   22e48:	294b883a 	add	r5,r5,r5
   22e4c:	31bfffc4 	addi	r6,r6,-1
   22e50:	18c7883a 	add	r3,r3,r3
   22e54:	293ffa36 	bltu	r5,r4,22e40 <__alt_data_end+0xfffe2e40>
   22e58:	18000626 	beq	r3,zero,22e74 <__umodsi3+0x4c>
   22e5c:	1806d07a 	srli	r3,r3,1
   22e60:	11400136 	bltu	r2,r5,22e68 <__umodsi3+0x40>
   22e64:	1145c83a 	sub	r2,r2,r5
   22e68:	280ad07a 	srli	r5,r5,1
   22e6c:	183ffb1e 	bne	r3,zero,22e5c <__alt_data_end+0xfffe2e5c>
   22e70:	f800283a 	ret
   22e74:	f800283a 	ret
   22e78:	00c00044 	movi	r3,1
   22e7c:	003ff706 	br	22e5c <__alt_data_end+0xfffe2e5c>

00022e80 <_fopen_r>:
   22e80:	defffa04 	addi	sp,sp,-24
   22e84:	3005883a 	mov	r2,r6
   22e88:	dcc00415 	stw	r19,16(sp)
   22e8c:	d80d883a 	mov	r6,sp
   22e90:	2827883a 	mov	r19,r5
   22e94:	100b883a 	mov	r5,r2
   22e98:	dc800315 	stw	r18,12(sp)
   22e9c:	dfc00515 	stw	ra,20(sp)
   22ea0:	dc400215 	stw	r17,8(sp)
   22ea4:	dc000115 	stw	r16,4(sp)
   22ea8:	2025883a 	mov	r18,r4
   22eac:	002ae140 	call	2ae14 <__sflags>
   22eb0:	10002726 	beq	r2,zero,22f50 <_fopen_r+0xd0>
   22eb4:	9009883a 	mov	r4,r18
   22eb8:	1023883a 	mov	r17,r2
   22ebc:	002ac940 	call	2ac94 <__sfp>
   22ec0:	1021883a 	mov	r16,r2
   22ec4:	10002226 	beq	r2,zero,22f50 <_fopen_r+0xd0>
   22ec8:	d9800017 	ldw	r6,0(sp)
   22ecc:	01c06d84 	movi	r7,438
   22ed0:	980b883a 	mov	r5,r19
   22ed4:	9009883a 	mov	r4,r18
   22ed8:	00240780 	call	24078 <_open_r>
   22edc:	10001916 	blt	r2,zero,22f44 <_fopen_r+0xc4>
   22ee0:	8080038d 	sth	r2,14(r16)
   22ee4:	008000b4 	movhi	r2,2
   22ee8:	1091b004 	addi	r2,r2,18112
   22eec:	80800815 	stw	r2,32(r16)
   22ef0:	008000b4 	movhi	r2,2
   22ef4:	1091c704 	addi	r2,r2,18204
   22ef8:	80800915 	stw	r2,36(r16)
   22efc:	008000b4 	movhi	r2,2
   22f00:	1091e604 	addi	r2,r2,18328
   22f04:	80800a15 	stw	r2,40(r16)
   22f08:	008000b4 	movhi	r2,2
   22f0c:	1091fd04 	addi	r2,r2,18420
   22f10:	8440030d 	sth	r17,12(r16)
   22f14:	84000715 	stw	r16,28(r16)
   22f18:	80800b15 	stw	r2,44(r16)
   22f1c:	8c40400c 	andi	r17,r17,256
   22f20:	88000d1e 	bne	r17,zero,22f58 <_fopen_r+0xd8>
   22f24:	8005883a 	mov	r2,r16
   22f28:	dfc00517 	ldw	ra,20(sp)
   22f2c:	dcc00417 	ldw	r19,16(sp)
   22f30:	dc800317 	ldw	r18,12(sp)
   22f34:	dc400217 	ldw	r17,8(sp)
   22f38:	dc000117 	ldw	r16,4(sp)
   22f3c:	dec00604 	addi	sp,sp,24
   22f40:	f800283a 	ret
   22f44:	002add40 	call	2add4 <__sfp_lock_acquire>
   22f48:	8000030d 	sth	zero,12(r16)
   22f4c:	002add80 	call	2add8 <__sfp_lock_release>
   22f50:	0005883a 	mov	r2,zero
   22f54:	003ff406 	br	22f28 <__alt_data_end+0xfffe2f28>
   22f58:	01c00084 	movi	r7,2
   22f5c:	000d883a 	mov	r6,zero
   22f60:	800b883a 	mov	r5,r16
   22f64:	9009883a 	mov	r4,r18
   22f68:	0022f8c0 	call	22f8c <_fseek_r>
   22f6c:	8005883a 	mov	r2,r16
   22f70:	003fed06 	br	22f28 <__alt_data_end+0xfffe2f28>

00022f74 <fopen>:
   22f74:	008000f4 	movhi	r2,3
   22f78:	109a9604 	addi	r2,r2,27224
   22f7c:	280d883a 	mov	r6,r5
   22f80:	200b883a 	mov	r5,r4
   22f84:	11000017 	ldw	r4,0(r2)
   22f88:	0022e801 	jmpi	22e80 <_fopen_r>

00022f8c <_fseek_r>:
   22f8c:	0022fac1 	jmpi	22fac <_fseeko_r>

00022f90 <fseek>:
   22f90:	008000f4 	movhi	r2,3
   22f94:	109a9604 	addi	r2,r2,27224
   22f98:	300f883a 	mov	r7,r6
   22f9c:	280d883a 	mov	r6,r5
   22fa0:	200b883a 	mov	r5,r4
   22fa4:	11000017 	ldw	r4,0(r2)
   22fa8:	0022fac1 	jmpi	22fac <_fseeko_r>

00022fac <_fseeko_r>:
   22fac:	deffe804 	addi	sp,sp,-96
   22fb0:	dd401415 	stw	r21,80(sp)
   22fb4:	dc801115 	stw	r18,68(sp)
   22fb8:	dc401015 	stw	r17,64(sp)
   22fbc:	dc000f15 	stw	r16,60(sp)
   22fc0:	dfc01715 	stw	ra,92(sp)
   22fc4:	ddc01615 	stw	r23,88(sp)
   22fc8:	dd801515 	stw	r22,84(sp)
   22fcc:	dd001315 	stw	r20,76(sp)
   22fd0:	dcc01215 	stw	r19,72(sp)
   22fd4:	2023883a 	mov	r17,r4
   22fd8:	2821883a 	mov	r16,r5
   22fdc:	302b883a 	mov	r21,r6
   22fe0:	3825883a 	mov	r18,r7
   22fe4:	20000226 	beq	r4,zero,22ff0 <_fseeko_r+0x44>
   22fe8:	20800e17 	ldw	r2,56(r4)
   22fec:	10005a26 	beq	r2,zero,23158 <_fseeko_r+0x1ac>
   22ff0:	8080030b 	ldhu	r2,12(r16)
   22ff4:	00c04204 	movi	r3,264
   22ff8:	1080420c 	andi	r2,r2,264
   22ffc:	10c05b26 	beq	r2,r3,2316c <_fseeko_r+0x1c0>
   23000:	85000a17 	ldw	r20,40(r16)
   23004:	a000f626 	beq	r20,zero,233e0 <_fseeko_r+0x434>
   23008:	00800044 	movi	r2,1
   2300c:	90803e26 	beq	r18,r2,23108 <_fseeko_r+0x15c>
   23010:	00800084 	movi	r2,2
   23014:	90801026 	beq	r18,r2,23058 <_fseeko_r+0xac>
   23018:	90000f26 	beq	r18,zero,23058 <_fseeko_r+0xac>
   2301c:	00800584 	movi	r2,22
   23020:	88800015 	stw	r2,0(r17)
   23024:	04ffffc4 	movi	r19,-1
   23028:	9805883a 	mov	r2,r19
   2302c:	dfc01717 	ldw	ra,92(sp)
   23030:	ddc01617 	ldw	r23,88(sp)
   23034:	dd801517 	ldw	r22,84(sp)
   23038:	dd401417 	ldw	r21,80(sp)
   2303c:	dd001317 	ldw	r20,76(sp)
   23040:	dcc01217 	ldw	r19,72(sp)
   23044:	dc801117 	ldw	r18,68(sp)
   23048:	dc401017 	ldw	r17,64(sp)
   2304c:	dc000f17 	ldw	r16,60(sp)
   23050:	dec01804 	addi	sp,sp,96
   23054:	f800283a 	ret
   23058:	80800417 	ldw	r2,16(r16)
   2305c:	002f883a 	mov	r23,zero
   23060:	0027883a 	mov	r19,zero
   23064:	1000cb26 	beq	r2,zero,23394 <_fseeko_r+0x3e8>
   23068:	8080030b 	ldhu	r2,12(r16)
   2306c:	10c2068c 	andi	r3,r2,2074
   23070:	1800071e 	bne	r3,zero,23090 <_fseeko_r+0xe4>
   23074:	10c1000c 	andi	r3,r2,1024
   23078:	1800451e 	bne	r3,zero,23190 <_fseeko_r+0x1e4>
   2307c:	00c000b4 	movhi	r3,2
   23080:	18d1e604 	addi	r3,r3,18328
   23084:	a0c0b726 	beq	r20,r3,23364 <_fseeko_r+0x3b8>
   23088:	10820014 	ori	r2,r2,2048
   2308c:	8080030d 	sth	r2,12(r16)
   23090:	800b883a 	mov	r5,r16
   23094:	8809883a 	mov	r4,r17
   23098:	002a9e80 	call	2a9e8 <_fflush_r>
   2309c:	1027883a 	mov	r19,r2
   230a0:	103fe01e 	bne	r2,zero,23024 <__alt_data_end+0xfffe3024>
   230a4:	81400717 	ldw	r5,28(r16)
   230a8:	900f883a 	mov	r7,r18
   230ac:	a80d883a 	mov	r6,r21
   230b0:	8809883a 	mov	r4,r17
   230b4:	a03ee83a 	callr	r20
   230b8:	00ffffc4 	movi	r3,-1
   230bc:	10ffd926 	beq	r2,r3,23024 <__alt_data_end+0xfffe3024>
   230c0:	81400c17 	ldw	r5,48(r16)
   230c4:	28000526 	beq	r5,zero,230dc <_fseeko_r+0x130>
   230c8:	80801004 	addi	r2,r16,64
   230cc:	28800226 	beq	r5,r2,230d8 <_fseeko_r+0x12c>
   230d0:	8809883a 	mov	r4,r17
   230d4:	002afe40 	call	2afe4 <_free_r>
   230d8:	80000c15 	stw	zero,48(r16)
   230dc:	8080030b 	ldhu	r2,12(r16)
   230e0:	80c00417 	ldw	r3,16(r16)
   230e4:	80000115 	stw	zero,4(r16)
   230e8:	10bdf7cc 	andi	r2,r2,63455
   230ec:	80c00015 	stw	r3,0(r16)
   230f0:	8080030d 	sth	r2,12(r16)
   230f4:	01800204 	movi	r6,8
   230f8:	000b883a 	mov	r5,zero
   230fc:	81001704 	addi	r4,r16,92
   23100:	0023f500 	call	23f50 <memset>
   23104:	003fc806 	br	23028 <__alt_data_end+0xfffe3028>
   23108:	800b883a 	mov	r5,r16
   2310c:	8809883a 	mov	r4,r17
   23110:	002a9e80 	call	2a9e8 <_fflush_r>
   23114:	8080030b 	ldhu	r2,12(r16)
   23118:	10c4000c 	andi	r3,r2,4096
   2311c:	18008726 	beq	r3,zero,2333c <_fseeko_r+0x390>
   23120:	84c01417 	ldw	r19,80(r16)
   23124:	10c0010c 	andi	r3,r2,4
   23128:	1800431e 	bne	r3,zero,23238 <_fseeko_r+0x28c>
   2312c:	1080020c 	andi	r2,r2,8
   23130:	10008026 	beq	r2,zero,23334 <_fseeko_r+0x388>
   23134:	80c00017 	ldw	r3,0(r16)
   23138:	80800417 	ldw	r2,16(r16)
   2313c:	18000226 	beq	r3,zero,23148 <_fseeko_r+0x19c>
   23140:	1887c83a 	sub	r3,r3,r2
   23144:	98e7883a 	add	r19,r19,r3
   23148:	aceb883a 	add	r21,r21,r19
   2314c:	05c00044 	movi	r23,1
   23150:	0025883a 	mov	r18,zero
   23154:	003fc306 	br	23064 <__alt_data_end+0xfffe3064>
   23158:	002adc40 	call	2adc4 <__sinit>
   2315c:	8080030b 	ldhu	r2,12(r16)
   23160:	00c04204 	movi	r3,264
   23164:	1080420c 	andi	r2,r2,264
   23168:	10ffa51e 	bne	r2,r3,23000 <__alt_data_end+0xfffe3000>
   2316c:	800b883a 	mov	r5,r16
   23170:	8809883a 	mov	r4,r17
   23174:	002a9e80 	call	2a9e8 <_fflush_r>
   23178:	003fa106 	br	23000 <__alt_data_end+0xfffe3000>
   2317c:	8080030b 	ldhu	r2,12(r16)
   23180:	00c10004 	movi	r3,1024
   23184:	80c01315 	stw	r3,76(r16)
   23188:	10c4b03a 	or	r2,r2,r3
   2318c:	8080030d 	sth	r2,12(r16)
   23190:	9000311e 	bne	r18,zero,23258 <_fseeko_r+0x2ac>
   23194:	a82d883a 	mov	r22,r21
   23198:	b800371e 	bne	r23,zero,23278 <_fseeko_r+0x2cc>
   2319c:	8080030b 	ldhu	r2,12(r16)
   231a0:	1084000c 	andi	r2,r2,4096
   231a4:	10007f26 	beq	r2,zero,233a4 <_fseeko_r+0x3f8>
   231a8:	80801417 	ldw	r2,80(r16)
   231ac:	81800117 	ldw	r6,4(r16)
   231b0:	81400c17 	ldw	r5,48(r16)
   231b4:	11a7c83a 	sub	r19,r2,r6
   231b8:	28008226 	beq	r5,zero,233c4 <_fseeko_r+0x418>
   231bc:	81c00f17 	ldw	r7,60(r16)
   231c0:	99e7c83a 	sub	r19,r19,r7
   231c4:	81000e17 	ldw	r4,56(r16)
   231c8:	80800417 	ldw	r2,16(r16)
   231cc:	99a7883a 	add	r19,r19,r6
   231d0:	2087c83a 	sub	r3,r4,r2
   231d4:	98e7c83a 	sub	r19,r19,r3
   231d8:	38c7883a 	add	r3,r7,r3
   231dc:	b4c02b16 	blt	r22,r19,2328c <_fseeko_r+0x2e0>
   231e0:	98c9883a 	add	r4,r19,r3
   231e4:	b100292e 	bgeu	r22,r4,2328c <_fseeko_r+0x2e0>
   231e8:	b4e7c83a 	sub	r19,r22,r19
   231ec:	14c5883a 	add	r2,r2,r19
   231f0:	1ce7c83a 	sub	r19,r3,r19
   231f4:	80800015 	stw	r2,0(r16)
   231f8:	84c00115 	stw	r19,4(r16)
   231fc:	28000526 	beq	r5,zero,23214 <_fseeko_r+0x268>
   23200:	80801004 	addi	r2,r16,64
   23204:	28800226 	beq	r5,r2,23210 <_fseeko_r+0x264>
   23208:	8809883a 	mov	r4,r17
   2320c:	002afe40 	call	2afe4 <_free_r>
   23210:	80000c15 	stw	zero,48(r16)
   23214:	8080030b 	ldhu	r2,12(r16)
   23218:	01800204 	movi	r6,8
   2321c:	000b883a 	mov	r5,zero
   23220:	10bff7cc 	andi	r2,r2,65503
   23224:	8080030d 	sth	r2,12(r16)
   23228:	81001704 	addi	r4,r16,92
   2322c:	0023f500 	call	23f50 <memset>
   23230:	0027883a 	mov	r19,zero
   23234:	003f7c06 	br	23028 <__alt_data_end+0xfffe3028>
   23238:	80c00117 	ldw	r3,4(r16)
   2323c:	80800c17 	ldw	r2,48(r16)
   23240:	98e7c83a 	sub	r19,r19,r3
   23244:	10003b26 	beq	r2,zero,23334 <_fseeko_r+0x388>
   23248:	80c00f17 	ldw	r3,60(r16)
   2324c:	80800417 	ldw	r2,16(r16)
   23250:	98e7c83a 	sub	r19,r19,r3
   23254:	003fbc06 	br	23148 <__alt_data_end+0xfffe3148>
   23258:	8140038f 	ldh	r5,14(r16)
   2325c:	d80d883a 	mov	r6,sp
   23260:	8809883a 	mov	r4,r17
   23264:	002340c0 	call	2340c <_fstat_r>
   23268:	103f891e 	bne	r2,zero,23090 <__alt_data_end+0xfffe3090>
   2326c:	dd800417 	ldw	r22,16(sp)
   23270:	adad883a 	add	r22,r21,r22
   23274:	b83fc926 	beq	r23,zero,2319c <__alt_data_end+0xfffe319c>
   23278:	81400c17 	ldw	r5,48(r16)
   2327c:	81800117 	ldw	r6,4(r16)
   23280:	28005026 	beq	r5,zero,233c4 <_fseeko_r+0x418>
   23284:	81c00f17 	ldw	r7,60(r16)
   23288:	003fce06 	br	231c4 <__alt_data_end+0xfffe31c4>
   2328c:	84c01317 	ldw	r19,76(r16)
   23290:	81400717 	ldw	r5,28(r16)
   23294:	000f883a 	mov	r7,zero
   23298:	04e7c83a 	sub	r19,zero,r19
   2329c:	9da6703a 	and	r19,r19,r22
   232a0:	980d883a 	mov	r6,r19
   232a4:	8809883a 	mov	r4,r17
   232a8:	a03ee83a 	callr	r20
   232ac:	00ffffc4 	movi	r3,-1
   232b0:	10ff7726 	beq	r2,r3,23090 <__alt_data_end+0xfffe3090>
   232b4:	80800417 	ldw	r2,16(r16)
   232b8:	81400c17 	ldw	r5,48(r16)
   232bc:	80000115 	stw	zero,4(r16)
   232c0:	80800015 	stw	r2,0(r16)
   232c4:	28000526 	beq	r5,zero,232dc <_fseeko_r+0x330>
   232c8:	80801004 	addi	r2,r16,64
   232cc:	28800226 	beq	r5,r2,232d8 <_fseeko_r+0x32c>
   232d0:	8809883a 	mov	r4,r17
   232d4:	002afe40 	call	2afe4 <_free_r>
   232d8:	80000c15 	stw	zero,48(r16)
   232dc:	8080030b 	ldhu	r2,12(r16)
   232e0:	b4e7c83a 	sub	r19,r22,r19
   232e4:	10bff7cc 	andi	r2,r2,65503
   232e8:	8080030d 	sth	r2,12(r16)
   232ec:	98000b26 	beq	r19,zero,2331c <_fseeko_r+0x370>
   232f0:	800b883a 	mov	r5,r16
   232f4:	8809883a 	mov	r4,r17
   232f8:	00242540 	call	24254 <__srefill_r>
   232fc:	103f641e 	bne	r2,zero,23090 <__alt_data_end+0xfffe3090>
   23300:	80800117 	ldw	r2,4(r16)
   23304:	14ff6236 	bltu	r2,r19,23090 <__alt_data_end+0xfffe3090>
   23308:	80c00017 	ldw	r3,0(r16)
   2330c:	14c5c83a 	sub	r2,r2,r19
   23310:	80800115 	stw	r2,4(r16)
   23314:	1ce7883a 	add	r19,r3,r19
   23318:	84c00015 	stw	r19,0(r16)
   2331c:	01800204 	movi	r6,8
   23320:	000b883a 	mov	r5,zero
   23324:	81001704 	addi	r4,r16,92
   23328:	0023f500 	call	23f50 <memset>
   2332c:	0027883a 	mov	r19,zero
   23330:	003f3d06 	br	23028 <__alt_data_end+0xfffe3028>
   23334:	80800417 	ldw	r2,16(r16)
   23338:	003f8306 	br	23148 <__alt_data_end+0xfffe3148>
   2333c:	81400717 	ldw	r5,28(r16)
   23340:	900f883a 	mov	r7,r18
   23344:	000d883a 	mov	r6,zero
   23348:	8809883a 	mov	r4,r17
   2334c:	a03ee83a 	callr	r20
   23350:	1027883a 	mov	r19,r2
   23354:	00bfffc4 	movi	r2,-1
   23358:	98bf3226 	beq	r19,r2,23024 <__alt_data_end+0xfffe3024>
   2335c:	8080030b 	ldhu	r2,12(r16)
   23360:	003f7006 	br	23124 <__alt_data_end+0xfffe3124>
   23364:	8140038f 	ldh	r5,14(r16)
   23368:	283f4716 	blt	r5,zero,23088 <__alt_data_end+0xfffe3088>
   2336c:	d80d883a 	mov	r6,sp
   23370:	8809883a 	mov	r4,r17
   23374:	002340c0 	call	2340c <_fstat_r>
   23378:	1000041e 	bne	r2,zero,2338c <_fseeko_r+0x3e0>
   2337c:	d8800117 	ldw	r2,4(sp)
   23380:	00e00014 	movui	r3,32768
   23384:	10bc000c 	andi	r2,r2,61440
   23388:	10ff7c26 	beq	r2,r3,2317c <__alt_data_end+0xfffe317c>
   2338c:	8080030b 	ldhu	r2,12(r16)
   23390:	003f3d06 	br	23088 <__alt_data_end+0xfffe3088>
   23394:	800b883a 	mov	r5,r16
   23398:	8809883a 	mov	r4,r17
   2339c:	00235600 	call	23560 <__smakebuf_r>
   233a0:	003f3106 	br	23068 <__alt_data_end+0xfffe3068>
   233a4:	81400717 	ldw	r5,28(r16)
   233a8:	01c00044 	movi	r7,1
   233ac:	000d883a 	mov	r6,zero
   233b0:	8809883a 	mov	r4,r17
   233b4:	a03ee83a 	callr	r20
   233b8:	00ffffc4 	movi	r3,-1
   233bc:	10ff7b1e 	bne	r2,r3,231ac <__alt_data_end+0xfffe31ac>
   233c0:	003f3306 	br	23090 <__alt_data_end+0xfffe3090>
   233c4:	80c00017 	ldw	r3,0(r16)
   233c8:	80800417 	ldw	r2,16(r16)
   233cc:	000b883a 	mov	r5,zero
   233d0:	1887c83a 	sub	r3,r3,r2
   233d4:	98e7c83a 	sub	r19,r19,r3
   233d8:	30c7883a 	add	r3,r6,r3
   233dc:	003f7f06 	br	231dc <__alt_data_end+0xfffe31dc>
   233e0:	00800744 	movi	r2,29
   233e4:	88800015 	stw	r2,0(r17)
   233e8:	04ffffc4 	movi	r19,-1
   233ec:	003f0e06 	br	23028 <__alt_data_end+0xfffe3028>

000233f0 <fseeko>:
   233f0:	008000f4 	movhi	r2,3
   233f4:	109a9604 	addi	r2,r2,27224
   233f8:	300f883a 	mov	r7,r6
   233fc:	280d883a 	mov	r6,r5
   23400:	200b883a 	mov	r5,r4
   23404:	11000017 	ldw	r4,0(r2)
   23408:	0022fac1 	jmpi	22fac <_fseeko_r>

0002340c <_fstat_r>:
   2340c:	defffd04 	addi	sp,sp,-12
   23410:	2805883a 	mov	r2,r5
   23414:	dc000015 	stw	r16,0(sp)
   23418:	040000f4 	movhi	r16,3
   2341c:	dc400115 	stw	r17,4(sp)
   23420:	841f5204 	addi	r16,r16,32072
   23424:	2023883a 	mov	r17,r4
   23428:	300b883a 	mov	r5,r6
   2342c:	1009883a 	mov	r4,r2
   23430:	dfc00215 	stw	ra,8(sp)
   23434:	80000015 	stw	zero,0(r16)
   23438:	0033ae00 	call	33ae0 <fstat>
   2343c:	00ffffc4 	movi	r3,-1
   23440:	10c00526 	beq	r2,r3,23458 <_fstat_r+0x4c>
   23444:	dfc00217 	ldw	ra,8(sp)
   23448:	dc400117 	ldw	r17,4(sp)
   2344c:	dc000017 	ldw	r16,0(sp)
   23450:	dec00304 	addi	sp,sp,12
   23454:	f800283a 	ret
   23458:	80c00017 	ldw	r3,0(r16)
   2345c:	183ff926 	beq	r3,zero,23444 <__alt_data_end+0xfffe3444>
   23460:	88c00015 	stw	r3,0(r17)
   23464:	003ff706 	br	23444 <__alt_data_end+0xfffe3444>

00023468 <_getc_r>:
   23468:	defffd04 	addi	sp,sp,-12
   2346c:	dc000115 	stw	r16,4(sp)
   23470:	dfc00215 	stw	ra,8(sp)
   23474:	2021883a 	mov	r16,r4
   23478:	20000226 	beq	r4,zero,23484 <_getc_r+0x1c>
   2347c:	20800e17 	ldw	r2,56(r4)
   23480:	10000c26 	beq	r2,zero,234b4 <_getc_r+0x4c>
   23484:	28800117 	ldw	r2,4(r5)
   23488:	10bfffc4 	addi	r2,r2,-1
   2348c:	28800115 	stw	r2,4(r5)
   23490:	10000c16 	blt	r2,zero,234c4 <_getc_r+0x5c>
   23494:	28800017 	ldw	r2,0(r5)
   23498:	10c00044 	addi	r3,r2,1
   2349c:	28c00015 	stw	r3,0(r5)
   234a0:	10800003 	ldbu	r2,0(r2)
   234a4:	dfc00217 	ldw	ra,8(sp)
   234a8:	dc000117 	ldw	r16,4(sp)
   234ac:	dec00304 	addi	sp,sp,12
   234b0:	f800283a 	ret
   234b4:	d9400015 	stw	r5,0(sp)
   234b8:	002adc40 	call	2adc4 <__sinit>
   234bc:	d9400017 	ldw	r5,0(sp)
   234c0:	003ff006 	br	23484 <__alt_data_end+0xfffe3484>
   234c4:	8009883a 	mov	r4,r16
   234c8:	dfc00217 	ldw	ra,8(sp)
   234cc:	dc000117 	ldw	r16,4(sp)
   234d0:	dec00304 	addi	sp,sp,12
   234d4:	00244281 	jmpi	24428 <__srget_r>

000234d8 <getc>:
   234d8:	008000f4 	movhi	r2,3
   234dc:	defffd04 	addi	sp,sp,-12
   234e0:	109a9604 	addi	r2,r2,27224
   234e4:	dc400115 	stw	r17,4(sp)
   234e8:	14400017 	ldw	r17,0(r2)
   234ec:	dc000015 	stw	r16,0(sp)
   234f0:	dfc00215 	stw	ra,8(sp)
   234f4:	2021883a 	mov	r16,r4
   234f8:	88000226 	beq	r17,zero,23504 <getc+0x2c>
   234fc:	88800e17 	ldw	r2,56(r17)
   23500:	10000d26 	beq	r2,zero,23538 <getc+0x60>
   23504:	80800117 	ldw	r2,4(r16)
   23508:	10bfffc4 	addi	r2,r2,-1
   2350c:	80800115 	stw	r2,4(r16)
   23510:	10000c16 	blt	r2,zero,23544 <getc+0x6c>
   23514:	80800017 	ldw	r2,0(r16)
   23518:	10c00044 	addi	r3,r2,1
   2351c:	80c00015 	stw	r3,0(r16)
   23520:	10800003 	ldbu	r2,0(r2)
   23524:	dfc00217 	ldw	ra,8(sp)
   23528:	dc400117 	ldw	r17,4(sp)
   2352c:	dc000017 	ldw	r16,0(sp)
   23530:	dec00304 	addi	sp,sp,12
   23534:	f800283a 	ret
   23538:	8809883a 	mov	r4,r17
   2353c:	002adc40 	call	2adc4 <__sinit>
   23540:	003ff006 	br	23504 <__alt_data_end+0xfffe3504>
   23544:	800b883a 	mov	r5,r16
   23548:	8809883a 	mov	r4,r17
   2354c:	dfc00217 	ldw	ra,8(sp)
   23550:	dc400117 	ldw	r17,4(sp)
   23554:	dc000017 	ldw	r16,0(sp)
   23558:	dec00304 	addi	sp,sp,12
   2355c:	00244281 	jmpi	24428 <__srget_r>

00023560 <__smakebuf_r>:
   23560:	2880030b 	ldhu	r2,12(r5)
   23564:	10c0008c 	andi	r3,r2,2
   23568:	1800411e 	bne	r3,zero,23670 <__smakebuf_r+0x110>
   2356c:	deffec04 	addi	sp,sp,-80
   23570:	dc000f15 	stw	r16,60(sp)
   23574:	2821883a 	mov	r16,r5
   23578:	2940038f 	ldh	r5,14(r5)
   2357c:	dc401015 	stw	r17,64(sp)
   23580:	dfc01315 	stw	ra,76(sp)
   23584:	dcc01215 	stw	r19,72(sp)
   23588:	dc801115 	stw	r18,68(sp)
   2358c:	2023883a 	mov	r17,r4
   23590:	28001c16 	blt	r5,zero,23604 <__smakebuf_r+0xa4>
   23594:	d80d883a 	mov	r6,sp
   23598:	002340c0 	call	2340c <_fstat_r>
   2359c:	10001816 	blt	r2,zero,23600 <__smakebuf_r+0xa0>
   235a0:	d8800117 	ldw	r2,4(sp)
   235a4:	00e00014 	movui	r3,32768
   235a8:	10bc000c 	andi	r2,r2,61440
   235ac:	14c80020 	cmpeqi	r19,r2,8192
   235b0:	10c03726 	beq	r2,r3,23690 <__smakebuf_r+0x130>
   235b4:	80c0030b 	ldhu	r3,12(r16)
   235b8:	18c20014 	ori	r3,r3,2048
   235bc:	80c0030d 	sth	r3,12(r16)
   235c0:	00c80004 	movi	r3,8192
   235c4:	10c0521e 	bne	r2,r3,23710 <__smakebuf_r+0x1b0>
   235c8:	8140038f 	ldh	r5,14(r16)
   235cc:	8809883a 	mov	r4,r17
   235d0:	002b9380 	call	2b938 <_isatty_r>
   235d4:	10004c26 	beq	r2,zero,23708 <__smakebuf_r+0x1a8>
   235d8:	8080030b 	ldhu	r2,12(r16)
   235dc:	80c010c4 	addi	r3,r16,67
   235e0:	80c00015 	stw	r3,0(r16)
   235e4:	10800054 	ori	r2,r2,1
   235e8:	8080030d 	sth	r2,12(r16)
   235ec:	00800044 	movi	r2,1
   235f0:	80c00415 	stw	r3,16(r16)
   235f4:	80800515 	stw	r2,20(r16)
   235f8:	04810004 	movi	r18,1024
   235fc:	00000706 	br	2361c <__smakebuf_r+0xbc>
   23600:	8080030b 	ldhu	r2,12(r16)
   23604:	10c0200c 	andi	r3,r2,128
   23608:	18001f1e 	bne	r3,zero,23688 <__smakebuf_r+0x128>
   2360c:	04810004 	movi	r18,1024
   23610:	10820014 	ori	r2,r2,2048
   23614:	8080030d 	sth	r2,12(r16)
   23618:	0027883a 	mov	r19,zero
   2361c:	900b883a 	mov	r5,r18
   23620:	8809883a 	mov	r4,r17
   23624:	00237440 	call	23744 <_malloc_r>
   23628:	10002c26 	beq	r2,zero,236dc <__smakebuf_r+0x17c>
   2362c:	80c0030b 	ldhu	r3,12(r16)
   23630:	010000f4 	movhi	r4,3
   23634:	212a9f04 	addi	r4,r4,-21892
   23638:	89000f15 	stw	r4,60(r17)
   2363c:	18c02014 	ori	r3,r3,128
   23640:	80c0030d 	sth	r3,12(r16)
   23644:	80800015 	stw	r2,0(r16)
   23648:	80800415 	stw	r2,16(r16)
   2364c:	84800515 	stw	r18,20(r16)
   23650:	98001a1e 	bne	r19,zero,236bc <__smakebuf_r+0x15c>
   23654:	dfc01317 	ldw	ra,76(sp)
   23658:	dcc01217 	ldw	r19,72(sp)
   2365c:	dc801117 	ldw	r18,68(sp)
   23660:	dc401017 	ldw	r17,64(sp)
   23664:	dc000f17 	ldw	r16,60(sp)
   23668:	dec01404 	addi	sp,sp,80
   2366c:	f800283a 	ret
   23670:	288010c4 	addi	r2,r5,67
   23674:	28800015 	stw	r2,0(r5)
   23678:	28800415 	stw	r2,16(r5)
   2367c:	00800044 	movi	r2,1
   23680:	28800515 	stw	r2,20(r5)
   23684:	f800283a 	ret
   23688:	04801004 	movi	r18,64
   2368c:	003fe006 	br	23610 <__alt_data_end+0xfffe3610>
   23690:	81000a17 	ldw	r4,40(r16)
   23694:	00c000b4 	movhi	r3,2
   23698:	18d1e604 	addi	r3,r3,18328
   2369c:	20ffc51e 	bne	r4,r3,235b4 <__alt_data_end+0xfffe35b4>
   236a0:	8080030b 	ldhu	r2,12(r16)
   236a4:	04810004 	movi	r18,1024
   236a8:	84801315 	stw	r18,76(r16)
   236ac:	1484b03a 	or	r2,r2,r18
   236b0:	8080030d 	sth	r2,12(r16)
   236b4:	0027883a 	mov	r19,zero
   236b8:	003fd806 	br	2361c <__alt_data_end+0xfffe361c>
   236bc:	8140038f 	ldh	r5,14(r16)
   236c0:	8809883a 	mov	r4,r17
   236c4:	002b9380 	call	2b938 <_isatty_r>
   236c8:	103fe226 	beq	r2,zero,23654 <__alt_data_end+0xfffe3654>
   236cc:	8080030b 	ldhu	r2,12(r16)
   236d0:	10800054 	ori	r2,r2,1
   236d4:	8080030d 	sth	r2,12(r16)
   236d8:	003fde06 	br	23654 <__alt_data_end+0xfffe3654>
   236dc:	8080030b 	ldhu	r2,12(r16)
   236e0:	10c0800c 	andi	r3,r2,512
   236e4:	183fdb1e 	bne	r3,zero,23654 <__alt_data_end+0xfffe3654>
   236e8:	10800094 	ori	r2,r2,2
   236ec:	80c010c4 	addi	r3,r16,67
   236f0:	8080030d 	sth	r2,12(r16)
   236f4:	00800044 	movi	r2,1
   236f8:	80c00015 	stw	r3,0(r16)
   236fc:	80c00415 	stw	r3,16(r16)
   23700:	80800515 	stw	r2,20(r16)
   23704:	003fd306 	br	23654 <__alt_data_end+0xfffe3654>
   23708:	04810004 	movi	r18,1024
   2370c:	003fc306 	br	2361c <__alt_data_end+0xfffe361c>
   23710:	0027883a 	mov	r19,zero
   23714:	04810004 	movi	r18,1024
   23718:	003fc006 	br	2361c <__alt_data_end+0xfffe361c>

0002371c <malloc>:
   2371c:	008000f4 	movhi	r2,3
   23720:	109a9604 	addi	r2,r2,27224
   23724:	200b883a 	mov	r5,r4
   23728:	11000017 	ldw	r4,0(r2)
   2372c:	00237441 	jmpi	23744 <_malloc_r>

00023730 <free>:
   23730:	008000f4 	movhi	r2,3
   23734:	109a9604 	addi	r2,r2,27224
   23738:	200b883a 	mov	r5,r4
   2373c:	11000017 	ldw	r4,0(r2)
   23740:	002afe41 	jmpi	2afe4 <_free_r>

00023744 <_malloc_r>:
   23744:	defff504 	addi	sp,sp,-44
   23748:	dc800315 	stw	r18,12(sp)
   2374c:	dfc00a15 	stw	ra,40(sp)
   23750:	df000915 	stw	fp,36(sp)
   23754:	ddc00815 	stw	r23,32(sp)
   23758:	dd800715 	stw	r22,28(sp)
   2375c:	dd400615 	stw	r21,24(sp)
   23760:	dd000515 	stw	r20,20(sp)
   23764:	dcc00415 	stw	r19,16(sp)
   23768:	dc400215 	stw	r17,8(sp)
   2376c:	dc000115 	stw	r16,4(sp)
   23770:	288002c4 	addi	r2,r5,11
   23774:	00c00584 	movi	r3,22
   23778:	2025883a 	mov	r18,r4
   2377c:	18807f2e 	bgeu	r3,r2,2397c <_malloc_r+0x238>
   23780:	047ffe04 	movi	r17,-8
   23784:	1462703a 	and	r17,r2,r17
   23788:	8800a316 	blt	r17,zero,23a18 <_malloc_r+0x2d4>
   2378c:	8940a236 	bltu	r17,r5,23a18 <_malloc_r+0x2d4>
   23790:	0033db80 	call	33db8 <__malloc_lock>
   23794:	00807dc4 	movi	r2,503
   23798:	1441e92e 	bgeu	r2,r17,23f40 <_malloc_r+0x7fc>
   2379c:	8804d27a 	srli	r2,r17,9
   237a0:	1000a126 	beq	r2,zero,23a28 <_malloc_r+0x2e4>
   237a4:	00c00104 	movi	r3,4
   237a8:	18811e36 	bltu	r3,r2,23c24 <_malloc_r+0x4e0>
   237ac:	8804d1ba 	srli	r2,r17,6
   237b0:	12000e44 	addi	r8,r2,57
   237b4:	11c00e04 	addi	r7,r2,56
   237b8:	4209883a 	add	r4,r8,r8
   237bc:	04c000f4 	movhi	r19,3
   237c0:	2109883a 	add	r4,r4,r4
   237c4:	9cd8f204 	addi	r19,r19,25544
   237c8:	2109883a 	add	r4,r4,r4
   237cc:	9909883a 	add	r4,r19,r4
   237d0:	24000117 	ldw	r16,4(r4)
   237d4:	213ffe04 	addi	r4,r4,-8
   237d8:	24009726 	beq	r4,r16,23a38 <_malloc_r+0x2f4>
   237dc:	80800117 	ldw	r2,4(r16)
   237e0:	01bfff04 	movi	r6,-4
   237e4:	014003c4 	movi	r5,15
   237e8:	1184703a 	and	r2,r2,r6
   237ec:	1447c83a 	sub	r3,r2,r17
   237f0:	28c00716 	blt	r5,r3,23810 <_malloc_r+0xcc>
   237f4:	1800920e 	bge	r3,zero,23a40 <_malloc_r+0x2fc>
   237f8:	84000317 	ldw	r16,12(r16)
   237fc:	24008e26 	beq	r4,r16,23a38 <_malloc_r+0x2f4>
   23800:	80800117 	ldw	r2,4(r16)
   23804:	1184703a 	and	r2,r2,r6
   23808:	1447c83a 	sub	r3,r2,r17
   2380c:	28fff90e 	bge	r5,r3,237f4 <__alt_data_end+0xfffe37f4>
   23810:	3809883a 	mov	r4,r7
   23814:	018000f4 	movhi	r6,3
   23818:	9c000417 	ldw	r16,16(r19)
   2381c:	3198f204 	addi	r6,r6,25544
   23820:	32000204 	addi	r8,r6,8
   23824:	82013426 	beq	r16,r8,23cf8 <_malloc_r+0x5b4>
   23828:	80c00117 	ldw	r3,4(r16)
   2382c:	00bfff04 	movi	r2,-4
   23830:	188e703a 	and	r7,r3,r2
   23834:	3c45c83a 	sub	r2,r7,r17
   23838:	00c003c4 	movi	r3,15
   2383c:	18811f16 	blt	r3,r2,23cbc <_malloc_r+0x578>
   23840:	32000515 	stw	r8,20(r6)
   23844:	32000415 	stw	r8,16(r6)
   23848:	10007f0e 	bge	r2,zero,23a48 <_malloc_r+0x304>
   2384c:	00807fc4 	movi	r2,511
   23850:	11c0fd36 	bltu	r2,r7,23c48 <_malloc_r+0x504>
   23854:	3806d0fa 	srli	r3,r7,3
   23858:	01c00044 	movi	r7,1
   2385c:	30800117 	ldw	r2,4(r6)
   23860:	19400044 	addi	r5,r3,1
   23864:	294b883a 	add	r5,r5,r5
   23868:	1807d0ba 	srai	r3,r3,2
   2386c:	294b883a 	add	r5,r5,r5
   23870:	294b883a 	add	r5,r5,r5
   23874:	298b883a 	add	r5,r5,r6
   23878:	38c6983a 	sll	r3,r7,r3
   2387c:	29c00017 	ldw	r7,0(r5)
   23880:	2a7ffe04 	addi	r9,r5,-8
   23884:	1886b03a 	or	r3,r3,r2
   23888:	82400315 	stw	r9,12(r16)
   2388c:	81c00215 	stw	r7,8(r16)
   23890:	30c00115 	stw	r3,4(r6)
   23894:	2c000015 	stw	r16,0(r5)
   23898:	3c000315 	stw	r16,12(r7)
   2389c:	2005d0ba 	srai	r2,r4,2
   238a0:	01400044 	movi	r5,1
   238a4:	288a983a 	sll	r5,r5,r2
   238a8:	19406f36 	bltu	r3,r5,23a68 <_malloc_r+0x324>
   238ac:	28c4703a 	and	r2,r5,r3
   238b0:	10000a1e 	bne	r2,zero,238dc <_malloc_r+0x198>
   238b4:	00bfff04 	movi	r2,-4
   238b8:	294b883a 	add	r5,r5,r5
   238bc:	2088703a 	and	r4,r4,r2
   238c0:	28c4703a 	and	r2,r5,r3
   238c4:	21000104 	addi	r4,r4,4
   238c8:	1000041e 	bne	r2,zero,238dc <_malloc_r+0x198>
   238cc:	294b883a 	add	r5,r5,r5
   238d0:	28c4703a 	and	r2,r5,r3
   238d4:	21000104 	addi	r4,r4,4
   238d8:	103ffc26 	beq	r2,zero,238cc <__alt_data_end+0xfffe38cc>
   238dc:	02bfff04 	movi	r10,-4
   238e0:	024003c4 	movi	r9,15
   238e4:	21800044 	addi	r6,r4,1
   238e8:	318d883a 	add	r6,r6,r6
   238ec:	318d883a 	add	r6,r6,r6
   238f0:	318d883a 	add	r6,r6,r6
   238f4:	998d883a 	add	r6,r19,r6
   238f8:	333ffe04 	addi	r12,r6,-8
   238fc:	2017883a 	mov	r11,r4
   23900:	31800104 	addi	r6,r6,4
   23904:	34000017 	ldw	r16,0(r6)
   23908:	31fffd04 	addi	r7,r6,-12
   2390c:	81c0041e 	bne	r16,r7,23920 <_malloc_r+0x1dc>
   23910:	0000fb06 	br	23d00 <_malloc_r+0x5bc>
   23914:	1801030e 	bge	r3,zero,23d24 <_malloc_r+0x5e0>
   23918:	84000317 	ldw	r16,12(r16)
   2391c:	81c0f826 	beq	r16,r7,23d00 <_malloc_r+0x5bc>
   23920:	80800117 	ldw	r2,4(r16)
   23924:	1284703a 	and	r2,r2,r10
   23928:	1447c83a 	sub	r3,r2,r17
   2392c:	48fff90e 	bge	r9,r3,23914 <__alt_data_end+0xfffe3914>
   23930:	80800317 	ldw	r2,12(r16)
   23934:	81000217 	ldw	r4,8(r16)
   23938:	89400054 	ori	r5,r17,1
   2393c:	81400115 	stw	r5,4(r16)
   23940:	20800315 	stw	r2,12(r4)
   23944:	11000215 	stw	r4,8(r2)
   23948:	8463883a 	add	r17,r16,r17
   2394c:	9c400515 	stw	r17,20(r19)
   23950:	9c400415 	stw	r17,16(r19)
   23954:	18800054 	ori	r2,r3,1
   23958:	88800115 	stw	r2,4(r17)
   2395c:	8a000315 	stw	r8,12(r17)
   23960:	8a000215 	stw	r8,8(r17)
   23964:	88e3883a 	add	r17,r17,r3
   23968:	88c00015 	stw	r3,0(r17)
   2396c:	9009883a 	mov	r4,r18
   23970:	0033dbc0 	call	33dbc <__malloc_unlock>
   23974:	80800204 	addi	r2,r16,8
   23978:	00001b06 	br	239e8 <_malloc_r+0x2a4>
   2397c:	04400404 	movi	r17,16
   23980:	89402536 	bltu	r17,r5,23a18 <_malloc_r+0x2d4>
   23984:	0033db80 	call	33db8 <__malloc_lock>
   23988:	00800184 	movi	r2,6
   2398c:	01000084 	movi	r4,2
   23990:	04c000f4 	movhi	r19,3
   23994:	1085883a 	add	r2,r2,r2
   23998:	9cd8f204 	addi	r19,r19,25544
   2399c:	1085883a 	add	r2,r2,r2
   239a0:	9885883a 	add	r2,r19,r2
   239a4:	14000117 	ldw	r16,4(r2)
   239a8:	10fffe04 	addi	r3,r2,-8
   239ac:	80c0d926 	beq	r16,r3,23d14 <_malloc_r+0x5d0>
   239b0:	80c00117 	ldw	r3,4(r16)
   239b4:	81000317 	ldw	r4,12(r16)
   239b8:	00bfff04 	movi	r2,-4
   239bc:	1884703a 	and	r2,r3,r2
   239c0:	81400217 	ldw	r5,8(r16)
   239c4:	8085883a 	add	r2,r16,r2
   239c8:	10c00117 	ldw	r3,4(r2)
   239cc:	29000315 	stw	r4,12(r5)
   239d0:	21400215 	stw	r5,8(r4)
   239d4:	18c00054 	ori	r3,r3,1
   239d8:	10c00115 	stw	r3,4(r2)
   239dc:	9009883a 	mov	r4,r18
   239e0:	0033dbc0 	call	33dbc <__malloc_unlock>
   239e4:	80800204 	addi	r2,r16,8
   239e8:	dfc00a17 	ldw	ra,40(sp)
   239ec:	df000917 	ldw	fp,36(sp)
   239f0:	ddc00817 	ldw	r23,32(sp)
   239f4:	dd800717 	ldw	r22,28(sp)
   239f8:	dd400617 	ldw	r21,24(sp)
   239fc:	dd000517 	ldw	r20,20(sp)
   23a00:	dcc00417 	ldw	r19,16(sp)
   23a04:	dc800317 	ldw	r18,12(sp)
   23a08:	dc400217 	ldw	r17,8(sp)
   23a0c:	dc000117 	ldw	r16,4(sp)
   23a10:	dec00b04 	addi	sp,sp,44
   23a14:	f800283a 	ret
   23a18:	00800304 	movi	r2,12
   23a1c:	90800015 	stw	r2,0(r18)
   23a20:	0005883a 	mov	r2,zero
   23a24:	003ff006 	br	239e8 <__alt_data_end+0xfffe39e8>
   23a28:	01002004 	movi	r4,128
   23a2c:	02001004 	movi	r8,64
   23a30:	01c00fc4 	movi	r7,63
   23a34:	003f6106 	br	237bc <__alt_data_end+0xfffe37bc>
   23a38:	4009883a 	mov	r4,r8
   23a3c:	003f7506 	br	23814 <__alt_data_end+0xfffe3814>
   23a40:	81000317 	ldw	r4,12(r16)
   23a44:	003fde06 	br	239c0 <__alt_data_end+0xfffe39c0>
   23a48:	81c5883a 	add	r2,r16,r7
   23a4c:	11400117 	ldw	r5,4(r2)
   23a50:	9009883a 	mov	r4,r18
   23a54:	29400054 	ori	r5,r5,1
   23a58:	11400115 	stw	r5,4(r2)
   23a5c:	0033dbc0 	call	33dbc <__malloc_unlock>
   23a60:	80800204 	addi	r2,r16,8
   23a64:	003fe006 	br	239e8 <__alt_data_end+0xfffe39e8>
   23a68:	9c000217 	ldw	r16,8(r19)
   23a6c:	00bfff04 	movi	r2,-4
   23a70:	85800117 	ldw	r22,4(r16)
   23a74:	b0ac703a 	and	r22,r22,r2
   23a78:	b4400336 	bltu	r22,r17,23a88 <_malloc_r+0x344>
   23a7c:	b445c83a 	sub	r2,r22,r17
   23a80:	00c003c4 	movi	r3,15
   23a84:	18805d16 	blt	r3,r2,23bfc <_malloc_r+0x4b8>
   23a88:	05c000f4 	movhi	r23,3
   23a8c:	008000f4 	movhi	r2,3
   23a90:	109f5504 	addi	r2,r2,32084
   23a94:	bdda9704 	addi	r23,r23,27228
   23a98:	15400017 	ldw	r21,0(r2)
   23a9c:	b8c00017 	ldw	r3,0(r23)
   23aa0:	00bfffc4 	movi	r2,-1
   23aa4:	858d883a 	add	r6,r16,r22
   23aa8:	8d6b883a 	add	r21,r17,r21
   23aac:	1880ea26 	beq	r3,r2,23e58 <_malloc_r+0x714>
   23ab0:	ad4403c4 	addi	r21,r21,4111
   23ab4:	00bc0004 	movi	r2,-4096
   23ab8:	a8aa703a 	and	r21,r21,r2
   23abc:	a80b883a 	mov	r5,r21
   23ac0:	9009883a 	mov	r4,r18
   23ac4:	d9800015 	stw	r6,0(sp)
   23ac8:	00244b00 	call	244b0 <_sbrk_r>
   23acc:	1029883a 	mov	r20,r2
   23ad0:	00bfffc4 	movi	r2,-1
   23ad4:	d9800017 	ldw	r6,0(sp)
   23ad8:	a080e826 	beq	r20,r2,23e7c <_malloc_r+0x738>
   23adc:	a180a636 	bltu	r20,r6,23d78 <_malloc_r+0x634>
   23ae0:	070000f4 	movhi	fp,3
   23ae4:	e71f6004 	addi	fp,fp,32128
   23ae8:	e0800017 	ldw	r2,0(fp)
   23aec:	a887883a 	add	r3,r21,r2
   23af0:	e0c00015 	stw	r3,0(fp)
   23af4:	3500e626 	beq	r6,r20,23e90 <_malloc_r+0x74c>
   23af8:	b9000017 	ldw	r4,0(r23)
   23afc:	00bfffc4 	movi	r2,-1
   23b00:	2080ee26 	beq	r4,r2,23ebc <_malloc_r+0x778>
   23b04:	a185c83a 	sub	r2,r20,r6
   23b08:	10c5883a 	add	r2,r2,r3
   23b0c:	e0800015 	stw	r2,0(fp)
   23b10:	a0c001cc 	andi	r3,r20,7
   23b14:	1800bc26 	beq	r3,zero,23e08 <_malloc_r+0x6c4>
   23b18:	a0e9c83a 	sub	r20,r20,r3
   23b1c:	00840204 	movi	r2,4104
   23b20:	a5000204 	addi	r20,r20,8
   23b24:	10c7c83a 	sub	r3,r2,r3
   23b28:	a545883a 	add	r2,r20,r21
   23b2c:	1083ffcc 	andi	r2,r2,4095
   23b30:	18abc83a 	sub	r21,r3,r2
   23b34:	a80b883a 	mov	r5,r21
   23b38:	9009883a 	mov	r4,r18
   23b3c:	00244b00 	call	244b0 <_sbrk_r>
   23b40:	00ffffc4 	movi	r3,-1
   23b44:	10c0e126 	beq	r2,r3,23ecc <_malloc_r+0x788>
   23b48:	1505c83a 	sub	r2,r2,r20
   23b4c:	1545883a 	add	r2,r2,r21
   23b50:	10800054 	ori	r2,r2,1
   23b54:	e0c00017 	ldw	r3,0(fp)
   23b58:	9d000215 	stw	r20,8(r19)
   23b5c:	a0800115 	stw	r2,4(r20)
   23b60:	a8c7883a 	add	r3,r21,r3
   23b64:	e0c00015 	stw	r3,0(fp)
   23b68:	84c00e26 	beq	r16,r19,23ba4 <_malloc_r+0x460>
   23b6c:	018003c4 	movi	r6,15
   23b70:	3580a72e 	bgeu	r6,r22,23e10 <_malloc_r+0x6cc>
   23b74:	81400117 	ldw	r5,4(r16)
   23b78:	013ffe04 	movi	r4,-8
   23b7c:	b0bffd04 	addi	r2,r22,-12
   23b80:	1104703a 	and	r2,r2,r4
   23b84:	2900004c 	andi	r4,r5,1
   23b88:	2088b03a 	or	r4,r4,r2
   23b8c:	81000115 	stw	r4,4(r16)
   23b90:	01400144 	movi	r5,5
   23b94:	8089883a 	add	r4,r16,r2
   23b98:	21400115 	stw	r5,4(r4)
   23b9c:	21400215 	stw	r5,8(r4)
   23ba0:	3080cd36 	bltu	r6,r2,23ed8 <_malloc_r+0x794>
   23ba4:	008000f4 	movhi	r2,3
   23ba8:	109f5404 	addi	r2,r2,32080
   23bac:	11000017 	ldw	r4,0(r2)
   23bb0:	20c0012e 	bgeu	r4,r3,23bb8 <_malloc_r+0x474>
   23bb4:	10c00015 	stw	r3,0(r2)
   23bb8:	008000f4 	movhi	r2,3
   23bbc:	109f5304 	addi	r2,r2,32076
   23bc0:	11000017 	ldw	r4,0(r2)
   23bc4:	9c000217 	ldw	r16,8(r19)
   23bc8:	20c0012e 	bgeu	r4,r3,23bd0 <_malloc_r+0x48c>
   23bcc:	10c00015 	stw	r3,0(r2)
   23bd0:	80c00117 	ldw	r3,4(r16)
   23bd4:	00bfff04 	movi	r2,-4
   23bd8:	1886703a 	and	r3,r3,r2
   23bdc:	1c45c83a 	sub	r2,r3,r17
   23be0:	1c400236 	bltu	r3,r17,23bec <_malloc_r+0x4a8>
   23be4:	00c003c4 	movi	r3,15
   23be8:	18800416 	blt	r3,r2,23bfc <_malloc_r+0x4b8>
   23bec:	9009883a 	mov	r4,r18
   23bf0:	0033dbc0 	call	33dbc <__malloc_unlock>
   23bf4:	0005883a 	mov	r2,zero
   23bf8:	003f7b06 	br	239e8 <__alt_data_end+0xfffe39e8>
   23bfc:	88c00054 	ori	r3,r17,1
   23c00:	80c00115 	stw	r3,4(r16)
   23c04:	8463883a 	add	r17,r16,r17
   23c08:	10800054 	ori	r2,r2,1
   23c0c:	9c400215 	stw	r17,8(r19)
   23c10:	88800115 	stw	r2,4(r17)
   23c14:	9009883a 	mov	r4,r18
   23c18:	0033dbc0 	call	33dbc <__malloc_unlock>
   23c1c:	80800204 	addi	r2,r16,8
   23c20:	003f7106 	br	239e8 <__alt_data_end+0xfffe39e8>
   23c24:	00c00504 	movi	r3,20
   23c28:	18804a2e 	bgeu	r3,r2,23d54 <_malloc_r+0x610>
   23c2c:	00c01504 	movi	r3,84
   23c30:	18806e36 	bltu	r3,r2,23dec <_malloc_r+0x6a8>
   23c34:	8804d33a 	srli	r2,r17,12
   23c38:	12001bc4 	addi	r8,r2,111
   23c3c:	11c01b84 	addi	r7,r2,110
   23c40:	4209883a 	add	r4,r8,r8
   23c44:	003edd06 	br	237bc <__alt_data_end+0xfffe37bc>
   23c48:	3804d27a 	srli	r2,r7,9
   23c4c:	00c00104 	movi	r3,4
   23c50:	1880442e 	bgeu	r3,r2,23d64 <_malloc_r+0x620>
   23c54:	00c00504 	movi	r3,20
   23c58:	18808136 	bltu	r3,r2,23e60 <_malloc_r+0x71c>
   23c5c:	11401704 	addi	r5,r2,92
   23c60:	10c016c4 	addi	r3,r2,91
   23c64:	294b883a 	add	r5,r5,r5
   23c68:	294b883a 	add	r5,r5,r5
   23c6c:	294b883a 	add	r5,r5,r5
   23c70:	994b883a 	add	r5,r19,r5
   23c74:	28800017 	ldw	r2,0(r5)
   23c78:	018000f4 	movhi	r6,3
   23c7c:	297ffe04 	addi	r5,r5,-8
   23c80:	3198f204 	addi	r6,r6,25544
   23c84:	28806526 	beq	r5,r2,23e1c <_malloc_r+0x6d8>
   23c88:	01bfff04 	movi	r6,-4
   23c8c:	10c00117 	ldw	r3,4(r2)
   23c90:	1986703a 	and	r3,r3,r6
   23c94:	38c0022e 	bgeu	r7,r3,23ca0 <_malloc_r+0x55c>
   23c98:	10800217 	ldw	r2,8(r2)
   23c9c:	28bffb1e 	bne	r5,r2,23c8c <__alt_data_end+0xfffe3c8c>
   23ca0:	11400317 	ldw	r5,12(r2)
   23ca4:	98c00117 	ldw	r3,4(r19)
   23ca8:	81400315 	stw	r5,12(r16)
   23cac:	80800215 	stw	r2,8(r16)
   23cb0:	2c000215 	stw	r16,8(r5)
   23cb4:	14000315 	stw	r16,12(r2)
   23cb8:	003ef806 	br	2389c <__alt_data_end+0xfffe389c>
   23cbc:	88c00054 	ori	r3,r17,1
   23cc0:	80c00115 	stw	r3,4(r16)
   23cc4:	8463883a 	add	r17,r16,r17
   23cc8:	34400515 	stw	r17,20(r6)
   23ccc:	34400415 	stw	r17,16(r6)
   23cd0:	10c00054 	ori	r3,r2,1
   23cd4:	8a000315 	stw	r8,12(r17)
   23cd8:	8a000215 	stw	r8,8(r17)
   23cdc:	88c00115 	stw	r3,4(r17)
   23ce0:	88a3883a 	add	r17,r17,r2
   23ce4:	88800015 	stw	r2,0(r17)
   23ce8:	9009883a 	mov	r4,r18
   23cec:	0033dbc0 	call	33dbc <__malloc_unlock>
   23cf0:	80800204 	addi	r2,r16,8
   23cf4:	003f3c06 	br	239e8 <__alt_data_end+0xfffe39e8>
   23cf8:	30c00117 	ldw	r3,4(r6)
   23cfc:	003ee706 	br	2389c <__alt_data_end+0xfffe389c>
   23d00:	5ac00044 	addi	r11,r11,1
   23d04:	588000cc 	andi	r2,r11,3
   23d08:	31800204 	addi	r6,r6,8
   23d0c:	103efd1e 	bne	r2,zero,23904 <__alt_data_end+0xfffe3904>
   23d10:	00002406 	br	23da4 <_malloc_r+0x660>
   23d14:	14000317 	ldw	r16,12(r2)
   23d18:	143f251e 	bne	r2,r16,239b0 <__alt_data_end+0xfffe39b0>
   23d1c:	21000084 	addi	r4,r4,2
   23d20:	003ebc06 	br	23814 <__alt_data_end+0xfffe3814>
   23d24:	8085883a 	add	r2,r16,r2
   23d28:	10c00117 	ldw	r3,4(r2)
   23d2c:	81000317 	ldw	r4,12(r16)
   23d30:	81400217 	ldw	r5,8(r16)
   23d34:	18c00054 	ori	r3,r3,1
   23d38:	10c00115 	stw	r3,4(r2)
   23d3c:	29000315 	stw	r4,12(r5)
   23d40:	21400215 	stw	r5,8(r4)
   23d44:	9009883a 	mov	r4,r18
   23d48:	0033dbc0 	call	33dbc <__malloc_unlock>
   23d4c:	80800204 	addi	r2,r16,8
   23d50:	003f2506 	br	239e8 <__alt_data_end+0xfffe39e8>
   23d54:	12001704 	addi	r8,r2,92
   23d58:	11c016c4 	addi	r7,r2,91
   23d5c:	4209883a 	add	r4,r8,r8
   23d60:	003e9606 	br	237bc <__alt_data_end+0xfffe37bc>
   23d64:	3804d1ba 	srli	r2,r7,6
   23d68:	11400e44 	addi	r5,r2,57
   23d6c:	10c00e04 	addi	r3,r2,56
   23d70:	294b883a 	add	r5,r5,r5
   23d74:	003fbc06 	br	23c68 <__alt_data_end+0xfffe3c68>
   23d78:	84ff5926 	beq	r16,r19,23ae0 <__alt_data_end+0xfffe3ae0>
   23d7c:	008000f4 	movhi	r2,3
   23d80:	1098f204 	addi	r2,r2,25544
   23d84:	14000217 	ldw	r16,8(r2)
   23d88:	00bfff04 	movi	r2,-4
   23d8c:	80c00117 	ldw	r3,4(r16)
   23d90:	1886703a 	and	r3,r3,r2
   23d94:	003f9106 	br	23bdc <__alt_data_end+0xfffe3bdc>
   23d98:	60800217 	ldw	r2,8(r12)
   23d9c:	213fffc4 	addi	r4,r4,-1
   23da0:	1300651e 	bne	r2,r12,23f38 <_malloc_r+0x7f4>
   23da4:	208000cc 	andi	r2,r4,3
   23da8:	633ffe04 	addi	r12,r12,-8
   23dac:	103ffa1e 	bne	r2,zero,23d98 <__alt_data_end+0xfffe3d98>
   23db0:	98800117 	ldw	r2,4(r19)
   23db4:	0146303a 	nor	r3,zero,r5
   23db8:	1884703a 	and	r2,r3,r2
   23dbc:	98800115 	stw	r2,4(r19)
   23dc0:	294b883a 	add	r5,r5,r5
   23dc4:	117f2836 	bltu	r2,r5,23a68 <__alt_data_end+0xfffe3a68>
   23dc8:	283f2726 	beq	r5,zero,23a68 <__alt_data_end+0xfffe3a68>
   23dcc:	2886703a 	and	r3,r5,r2
   23dd0:	5809883a 	mov	r4,r11
   23dd4:	183ec31e 	bne	r3,zero,238e4 <__alt_data_end+0xfffe38e4>
   23dd8:	294b883a 	add	r5,r5,r5
   23ddc:	2886703a 	and	r3,r5,r2
   23de0:	21000104 	addi	r4,r4,4
   23de4:	183ffc26 	beq	r3,zero,23dd8 <__alt_data_end+0xfffe3dd8>
   23de8:	003ebe06 	br	238e4 <__alt_data_end+0xfffe38e4>
   23dec:	00c05504 	movi	r3,340
   23df0:	18801236 	bltu	r3,r2,23e3c <_malloc_r+0x6f8>
   23df4:	8804d3fa 	srli	r2,r17,15
   23df8:	12001e04 	addi	r8,r2,120
   23dfc:	11c01dc4 	addi	r7,r2,119
   23e00:	4209883a 	add	r4,r8,r8
   23e04:	003e6d06 	br	237bc <__alt_data_end+0xfffe37bc>
   23e08:	00c40004 	movi	r3,4096
   23e0c:	003f4606 	br	23b28 <__alt_data_end+0xfffe3b28>
   23e10:	00800044 	movi	r2,1
   23e14:	a0800115 	stw	r2,4(r20)
   23e18:	003f7406 	br	23bec <__alt_data_end+0xfffe3bec>
   23e1c:	1805d0ba 	srai	r2,r3,2
   23e20:	01c00044 	movi	r7,1
   23e24:	30c00117 	ldw	r3,4(r6)
   23e28:	388e983a 	sll	r7,r7,r2
   23e2c:	2805883a 	mov	r2,r5
   23e30:	38c6b03a 	or	r3,r7,r3
   23e34:	30c00115 	stw	r3,4(r6)
   23e38:	003f9b06 	br	23ca8 <__alt_data_end+0xfffe3ca8>
   23e3c:	00c15504 	movi	r3,1364
   23e40:	18801a36 	bltu	r3,r2,23eac <_malloc_r+0x768>
   23e44:	8804d4ba 	srli	r2,r17,18
   23e48:	12001f44 	addi	r8,r2,125
   23e4c:	11c01f04 	addi	r7,r2,124
   23e50:	4209883a 	add	r4,r8,r8
   23e54:	003e5906 	br	237bc <__alt_data_end+0xfffe37bc>
   23e58:	ad400404 	addi	r21,r21,16
   23e5c:	003f1706 	br	23abc <__alt_data_end+0xfffe3abc>
   23e60:	00c01504 	movi	r3,84
   23e64:	18802336 	bltu	r3,r2,23ef4 <_malloc_r+0x7b0>
   23e68:	3804d33a 	srli	r2,r7,12
   23e6c:	11401bc4 	addi	r5,r2,111
   23e70:	10c01b84 	addi	r3,r2,110
   23e74:	294b883a 	add	r5,r5,r5
   23e78:	003f7b06 	br	23c68 <__alt_data_end+0xfffe3c68>
   23e7c:	9c000217 	ldw	r16,8(r19)
   23e80:	00bfff04 	movi	r2,-4
   23e84:	80c00117 	ldw	r3,4(r16)
   23e88:	1886703a 	and	r3,r3,r2
   23e8c:	003f5306 	br	23bdc <__alt_data_end+0xfffe3bdc>
   23e90:	3083ffcc 	andi	r2,r6,4095
   23e94:	103f181e 	bne	r2,zero,23af8 <__alt_data_end+0xfffe3af8>
   23e98:	99000217 	ldw	r4,8(r19)
   23e9c:	b545883a 	add	r2,r22,r21
   23ea0:	10800054 	ori	r2,r2,1
   23ea4:	20800115 	stw	r2,4(r4)
   23ea8:	003f3e06 	br	23ba4 <__alt_data_end+0xfffe3ba4>
   23eac:	01003f84 	movi	r4,254
   23eb0:	02001fc4 	movi	r8,127
   23eb4:	01c01f84 	movi	r7,126
   23eb8:	003e4006 	br	237bc <__alt_data_end+0xfffe37bc>
   23ebc:	008000f4 	movhi	r2,3
   23ec0:	109a9704 	addi	r2,r2,27228
   23ec4:	15000015 	stw	r20,0(r2)
   23ec8:	003f1106 	br	23b10 <__alt_data_end+0xfffe3b10>
   23ecc:	00800044 	movi	r2,1
   23ed0:	002b883a 	mov	r21,zero
   23ed4:	003f1f06 	br	23b54 <__alt_data_end+0xfffe3b54>
   23ed8:	81400204 	addi	r5,r16,8
   23edc:	9009883a 	mov	r4,r18
   23ee0:	002afe40 	call	2afe4 <_free_r>
   23ee4:	008000f4 	movhi	r2,3
   23ee8:	109f6004 	addi	r2,r2,32128
   23eec:	10c00017 	ldw	r3,0(r2)
   23ef0:	003f2c06 	br	23ba4 <__alt_data_end+0xfffe3ba4>
   23ef4:	00c05504 	movi	r3,340
   23ef8:	18800536 	bltu	r3,r2,23f10 <_malloc_r+0x7cc>
   23efc:	3804d3fa 	srli	r2,r7,15
   23f00:	11401e04 	addi	r5,r2,120
   23f04:	10c01dc4 	addi	r3,r2,119
   23f08:	294b883a 	add	r5,r5,r5
   23f0c:	003f5606 	br	23c68 <__alt_data_end+0xfffe3c68>
   23f10:	00c15504 	movi	r3,1364
   23f14:	18800536 	bltu	r3,r2,23f2c <_malloc_r+0x7e8>
   23f18:	3804d4ba 	srli	r2,r7,18
   23f1c:	11401f44 	addi	r5,r2,125
   23f20:	10c01f04 	addi	r3,r2,124
   23f24:	294b883a 	add	r5,r5,r5
   23f28:	003f4f06 	br	23c68 <__alt_data_end+0xfffe3c68>
   23f2c:	01403f84 	movi	r5,254
   23f30:	00c01f84 	movi	r3,126
   23f34:	003f4c06 	br	23c68 <__alt_data_end+0xfffe3c68>
   23f38:	98800117 	ldw	r2,4(r19)
   23f3c:	003fa006 	br	23dc0 <__alt_data_end+0xfffe3dc0>
   23f40:	8808d0fa 	srli	r4,r17,3
   23f44:	20800044 	addi	r2,r4,1
   23f48:	1085883a 	add	r2,r2,r2
   23f4c:	003e9006 	br	23990 <__alt_data_end+0xfffe3990>

00023f50 <memset>:
   23f50:	20c000cc 	andi	r3,r4,3
   23f54:	2005883a 	mov	r2,r4
   23f58:	18004426 	beq	r3,zero,2406c <memset+0x11c>
   23f5c:	31ffffc4 	addi	r7,r6,-1
   23f60:	30004026 	beq	r6,zero,24064 <memset+0x114>
   23f64:	2813883a 	mov	r9,r5
   23f68:	200d883a 	mov	r6,r4
   23f6c:	2007883a 	mov	r3,r4
   23f70:	00000406 	br	23f84 <memset+0x34>
   23f74:	3a3fffc4 	addi	r8,r7,-1
   23f78:	31800044 	addi	r6,r6,1
   23f7c:	38003926 	beq	r7,zero,24064 <memset+0x114>
   23f80:	400f883a 	mov	r7,r8
   23f84:	18c00044 	addi	r3,r3,1
   23f88:	32400005 	stb	r9,0(r6)
   23f8c:	1a0000cc 	andi	r8,r3,3
   23f90:	403ff81e 	bne	r8,zero,23f74 <__alt_data_end+0xfffe3f74>
   23f94:	010000c4 	movi	r4,3
   23f98:	21c02d2e 	bgeu	r4,r7,24050 <memset+0x100>
   23f9c:	29003fcc 	andi	r4,r5,255
   23fa0:	200c923a 	slli	r6,r4,8
   23fa4:	3108b03a 	or	r4,r6,r4
   23fa8:	200c943a 	slli	r6,r4,16
   23fac:	218cb03a 	or	r6,r4,r6
   23fb0:	010003c4 	movi	r4,15
   23fb4:	21c0182e 	bgeu	r4,r7,24018 <memset+0xc8>
   23fb8:	3b3ffc04 	addi	r12,r7,-16
   23fbc:	6018d13a 	srli	r12,r12,4
   23fc0:	1a000104 	addi	r8,r3,4
   23fc4:	1ac00204 	addi	r11,r3,8
   23fc8:	6008913a 	slli	r4,r12,4
   23fcc:	1a800304 	addi	r10,r3,12
   23fd0:	1813883a 	mov	r9,r3
   23fd4:	21000504 	addi	r4,r4,20
   23fd8:	1909883a 	add	r4,r3,r4
   23fdc:	49800015 	stw	r6,0(r9)
   23fe0:	41800015 	stw	r6,0(r8)
   23fe4:	59800015 	stw	r6,0(r11)
   23fe8:	51800015 	stw	r6,0(r10)
   23fec:	42000404 	addi	r8,r8,16
   23ff0:	4a400404 	addi	r9,r9,16
   23ff4:	5ac00404 	addi	r11,r11,16
   23ff8:	52800404 	addi	r10,r10,16
   23ffc:	413ff71e 	bne	r8,r4,23fdc <__alt_data_end+0xfffe3fdc>
   24000:	63000044 	addi	r12,r12,1
   24004:	6018913a 	slli	r12,r12,4
   24008:	39c003cc 	andi	r7,r7,15
   2400c:	010000c4 	movi	r4,3
   24010:	1b07883a 	add	r3,r3,r12
   24014:	21c00e2e 	bgeu	r4,r7,24050 <memset+0x100>
   24018:	1813883a 	mov	r9,r3
   2401c:	3811883a 	mov	r8,r7
   24020:	010000c4 	movi	r4,3
   24024:	49800015 	stw	r6,0(r9)
   24028:	423fff04 	addi	r8,r8,-4
   2402c:	4a400104 	addi	r9,r9,4
   24030:	223ffc36 	bltu	r4,r8,24024 <__alt_data_end+0xfffe4024>
   24034:	393fff04 	addi	r4,r7,-4
   24038:	2008d0ba 	srli	r4,r4,2
   2403c:	39c000cc 	andi	r7,r7,3
   24040:	21000044 	addi	r4,r4,1
   24044:	2109883a 	add	r4,r4,r4
   24048:	2109883a 	add	r4,r4,r4
   2404c:	1907883a 	add	r3,r3,r4
   24050:	38000526 	beq	r7,zero,24068 <memset+0x118>
   24054:	19cf883a 	add	r7,r3,r7
   24058:	19400005 	stb	r5,0(r3)
   2405c:	18c00044 	addi	r3,r3,1
   24060:	38fffd1e 	bne	r7,r3,24058 <__alt_data_end+0xfffe4058>
   24064:	f800283a 	ret
   24068:	f800283a 	ret
   2406c:	2007883a 	mov	r3,r4
   24070:	300f883a 	mov	r7,r6
   24074:	003fc706 	br	23f94 <__alt_data_end+0xfffe3f94>

00024078 <_open_r>:
   24078:	defffd04 	addi	sp,sp,-12
   2407c:	2805883a 	mov	r2,r5
   24080:	dc000015 	stw	r16,0(sp)
   24084:	040000f4 	movhi	r16,3
   24088:	dc400115 	stw	r17,4(sp)
   2408c:	300b883a 	mov	r5,r6
   24090:	841f5204 	addi	r16,r16,32072
   24094:	2023883a 	mov	r17,r4
   24098:	380d883a 	mov	r6,r7
   2409c:	1009883a 	mov	r4,r2
   240a0:	dfc00215 	stw	ra,8(sp)
   240a4:	80000015 	stw	zero,0(r16)
   240a8:	0033dc00 	call	33dc0 <open>
   240ac:	00ffffc4 	movi	r3,-1
   240b0:	10c00526 	beq	r2,r3,240c8 <_open_r+0x50>
   240b4:	dfc00217 	ldw	ra,8(sp)
   240b8:	dc400117 	ldw	r17,4(sp)
   240bc:	dc000017 	ldw	r16,0(sp)
   240c0:	dec00304 	addi	sp,sp,12
   240c4:	f800283a 	ret
   240c8:	80c00017 	ldw	r3,0(r16)
   240cc:	183ff926 	beq	r3,zero,240b4 <__alt_data_end+0xfffe40b4>
   240d0:	88c00015 	stw	r3,0(r17)
   240d4:	003ff706 	br	240b4 <__alt_data_end+0xfffe40b4>

000240d8 <_printf_r>:
   240d8:	defffd04 	addi	sp,sp,-12
   240dc:	2805883a 	mov	r2,r5
   240e0:	dfc00015 	stw	ra,0(sp)
   240e4:	d9800115 	stw	r6,4(sp)
   240e8:	d9c00215 	stw	r7,8(sp)
   240ec:	21400217 	ldw	r5,8(r4)
   240f0:	d9c00104 	addi	r7,sp,4
   240f4:	100d883a 	mov	r6,r2
   240f8:	0026a6c0 	call	26a6c <___vfprintf_internal_r>
   240fc:	dfc00017 	ldw	ra,0(sp)
   24100:	dec00304 	addi	sp,sp,12
   24104:	f800283a 	ret

00024108 <printf>:
   24108:	defffc04 	addi	sp,sp,-16
   2410c:	dfc00015 	stw	ra,0(sp)
   24110:	d9400115 	stw	r5,4(sp)
   24114:	d9800215 	stw	r6,8(sp)
   24118:	d9c00315 	stw	r7,12(sp)
   2411c:	008000f4 	movhi	r2,3
   24120:	109a9604 	addi	r2,r2,27224
   24124:	10800017 	ldw	r2,0(r2)
   24128:	200b883a 	mov	r5,r4
   2412c:	d9800104 	addi	r6,sp,4
   24130:	11000217 	ldw	r4,8(r2)
   24134:	0028c640 	call	28c64 <__vfprintf_internal>
   24138:	dfc00017 	ldw	ra,0(sp)
   2413c:	dec00404 	addi	sp,sp,16
   24140:	f800283a 	ret

00024144 <_putchar_r>:
   24144:	21800217 	ldw	r6,8(r4)
   24148:	002ce4c1 	jmpi	2ce4c <_putc_r>

0002414c <putchar>:
   2414c:	008000f4 	movhi	r2,3
   24150:	109a9604 	addi	r2,r2,27224
   24154:	200b883a 	mov	r5,r4
   24158:	11000017 	ldw	r4,0(r2)
   2415c:	21800217 	ldw	r6,8(r4)
   24160:	002ce4c1 	jmpi	2ce4c <_putc_r>

00024164 <_puts_r>:
   24164:	defff604 	addi	sp,sp,-40
   24168:	dc000715 	stw	r16,28(sp)
   2416c:	2021883a 	mov	r16,r4
   24170:	2809883a 	mov	r4,r5
   24174:	dc400815 	stw	r17,32(sp)
   24178:	dfc00915 	stw	ra,36(sp)
   2417c:	2823883a 	mov	r17,r5
   24180:	00247fc0 	call	247fc <strlen>
   24184:	10c00044 	addi	r3,r2,1
   24188:	d8800115 	stw	r2,4(sp)
   2418c:	008000f4 	movhi	r2,3
   24190:	10953304 	addi	r2,r2,21708
   24194:	d8800215 	stw	r2,8(sp)
   24198:	00800044 	movi	r2,1
   2419c:	d8800315 	stw	r2,12(sp)
   241a0:	00800084 	movi	r2,2
   241a4:	dc400015 	stw	r17,0(sp)
   241a8:	d8c00615 	stw	r3,24(sp)
   241ac:	dec00415 	stw	sp,16(sp)
   241b0:	d8800515 	stw	r2,20(sp)
   241b4:	80000226 	beq	r16,zero,241c0 <_puts_r+0x5c>
   241b8:	80800e17 	ldw	r2,56(r16)
   241bc:	10001426 	beq	r2,zero,24210 <_puts_r+0xac>
   241c0:	81400217 	ldw	r5,8(r16)
   241c4:	2880030b 	ldhu	r2,12(r5)
   241c8:	10c8000c 	andi	r3,r2,8192
   241cc:	1800061e 	bne	r3,zero,241e8 <_puts_r+0x84>
   241d0:	29001917 	ldw	r4,100(r5)
   241d4:	00f7ffc4 	movi	r3,-8193
   241d8:	10880014 	ori	r2,r2,8192
   241dc:	20c6703a 	and	r3,r4,r3
   241e0:	2880030d 	sth	r2,12(r5)
   241e4:	28c01915 	stw	r3,100(r5)
   241e8:	d9800404 	addi	r6,sp,16
   241ec:	8009883a 	mov	r4,r16
   241f0:	002b2f40 	call	2b2f4 <__sfvwrite_r>
   241f4:	1000091e 	bne	r2,zero,2421c <_puts_r+0xb8>
   241f8:	00800284 	movi	r2,10
   241fc:	dfc00917 	ldw	ra,36(sp)
   24200:	dc400817 	ldw	r17,32(sp)
   24204:	dc000717 	ldw	r16,28(sp)
   24208:	dec00a04 	addi	sp,sp,40
   2420c:	f800283a 	ret
   24210:	8009883a 	mov	r4,r16
   24214:	002adc40 	call	2adc4 <__sinit>
   24218:	003fe906 	br	241c0 <__alt_data_end+0xfffe41c0>
   2421c:	00bfffc4 	movi	r2,-1
   24220:	003ff606 	br	241fc <__alt_data_end+0xfffe41fc>

00024224 <puts>:
   24224:	008000f4 	movhi	r2,3
   24228:	109a9604 	addi	r2,r2,27224
   2422c:	200b883a 	mov	r5,r4
   24230:	11000017 	ldw	r4,0(r2)
   24234:	00241641 	jmpi	24164 <_puts_r>

00024238 <lflush>:
   24238:	2080030b 	ldhu	r2,12(r4)
   2423c:	00c00244 	movi	r3,9
   24240:	1080024c 	andi	r2,r2,9
   24244:	10c00226 	beq	r2,r3,24250 <lflush+0x18>
   24248:	0005883a 	mov	r2,zero
   2424c:	f800283a 	ret
   24250:	002aa441 	jmpi	2aa44 <fflush>

00024254 <__srefill_r>:
   24254:	defffc04 	addi	sp,sp,-16
   24258:	dc400115 	stw	r17,4(sp)
   2425c:	dc000015 	stw	r16,0(sp)
   24260:	dfc00315 	stw	ra,12(sp)
   24264:	dc800215 	stw	r18,8(sp)
   24268:	2023883a 	mov	r17,r4
   2426c:	2821883a 	mov	r16,r5
   24270:	20000226 	beq	r4,zero,2427c <__srefill_r+0x28>
   24274:	20800e17 	ldw	r2,56(r4)
   24278:	10003c26 	beq	r2,zero,2436c <__srefill_r+0x118>
   2427c:	80c0030b 	ldhu	r3,12(r16)
   24280:	1908000c 	andi	r4,r3,8192
   24284:	1805883a 	mov	r2,r3
   24288:	2000071e 	bne	r4,zero,242a8 <__srefill_r+0x54>
   2428c:	81001917 	ldw	r4,100(r16)
   24290:	18880014 	ori	r2,r3,8192
   24294:	00f7ffc4 	movi	r3,-8193
   24298:	20c8703a 	and	r4,r4,r3
   2429c:	8080030d 	sth	r2,12(r16)
   242a0:	1007883a 	mov	r3,r2
   242a4:	81001915 	stw	r4,100(r16)
   242a8:	80000115 	stw	zero,4(r16)
   242ac:	1100080c 	andi	r4,r2,32
   242b0:	2000571e 	bne	r4,zero,24410 <__srefill_r+0x1bc>
   242b4:	1100010c 	andi	r4,r2,4
   242b8:	20001f26 	beq	r4,zero,24338 <__srefill_r+0xe4>
   242bc:	81400c17 	ldw	r5,48(r16)
   242c0:	28000826 	beq	r5,zero,242e4 <__srefill_r+0x90>
   242c4:	80801004 	addi	r2,r16,64
   242c8:	28800226 	beq	r5,r2,242d4 <__srefill_r+0x80>
   242cc:	8809883a 	mov	r4,r17
   242d0:	002afe40 	call	2afe4 <_free_r>
   242d4:	80800f17 	ldw	r2,60(r16)
   242d8:	80000c15 	stw	zero,48(r16)
   242dc:	80800115 	stw	r2,4(r16)
   242e0:	1000391e 	bne	r2,zero,243c8 <__srefill_r+0x174>
   242e4:	80800417 	ldw	r2,16(r16)
   242e8:	10004b26 	beq	r2,zero,24418 <__srefill_r+0x1c4>
   242ec:	8480030b 	ldhu	r18,12(r16)
   242f0:	908000cc 	andi	r2,r18,3
   242f4:	10001f1e 	bne	r2,zero,24374 <__srefill_r+0x120>
   242f8:	81800417 	ldw	r6,16(r16)
   242fc:	80800817 	ldw	r2,32(r16)
   24300:	81c00517 	ldw	r7,20(r16)
   24304:	81400717 	ldw	r5,28(r16)
   24308:	81800015 	stw	r6,0(r16)
   2430c:	8809883a 	mov	r4,r17
   24310:	103ee83a 	callr	r2
   24314:	80800115 	stw	r2,4(r16)
   24318:	00800e0e 	bge	zero,r2,24354 <__srefill_r+0x100>
   2431c:	0005883a 	mov	r2,zero
   24320:	dfc00317 	ldw	ra,12(sp)
   24324:	dc800217 	ldw	r18,8(sp)
   24328:	dc400117 	ldw	r17,4(sp)
   2432c:	dc000017 	ldw	r16,0(sp)
   24330:	dec00404 	addi	sp,sp,16
   24334:	f800283a 	ret
   24338:	1100040c 	andi	r4,r2,16
   2433c:	20003026 	beq	r4,zero,24400 <__srefill_r+0x1ac>
   24340:	1080020c 	andi	r2,r2,8
   24344:	1000241e 	bne	r2,zero,243d8 <__srefill_r+0x184>
   24348:	18c00114 	ori	r3,r3,4
   2434c:	80c0030d 	sth	r3,12(r16)
   24350:	003fe406 	br	242e4 <__alt_data_end+0xfffe42e4>
   24354:	80c0030b 	ldhu	r3,12(r16)
   24358:	1000161e 	bne	r2,zero,243b4 <__srefill_r+0x160>
   2435c:	18c00814 	ori	r3,r3,32
   24360:	00bfffc4 	movi	r2,-1
   24364:	80c0030d 	sth	r3,12(r16)
   24368:	003fed06 	br	24320 <__alt_data_end+0xfffe4320>
   2436c:	002adc40 	call	2adc4 <__sinit>
   24370:	003fc206 	br	2427c <__alt_data_end+0xfffe427c>
   24374:	008000f4 	movhi	r2,3
   24378:	109a9504 	addi	r2,r2,27220
   2437c:	11000017 	ldw	r4,0(r2)
   24380:	014000b4 	movhi	r5,2
   24384:	00800044 	movi	r2,1
   24388:	29508e04 	addi	r5,r5,16952
   2438c:	8080030d 	sth	r2,12(r16)
   24390:	002b7b00 	call	2b7b0 <_fwalk>
   24394:	00800244 	movi	r2,9
   24398:	8480030d 	sth	r18,12(r16)
   2439c:	9480024c 	andi	r18,r18,9
   243a0:	90bfd51e 	bne	r18,r2,242f8 <__alt_data_end+0xfffe42f8>
   243a4:	800b883a 	mov	r5,r16
   243a8:	8809883a 	mov	r4,r17
   243ac:	002a7cc0 	call	2a7cc <__sflush_r>
   243b0:	003fd106 	br	242f8 <__alt_data_end+0xfffe42f8>
   243b4:	18c01014 	ori	r3,r3,64
   243b8:	80000115 	stw	zero,4(r16)
   243bc:	00bfffc4 	movi	r2,-1
   243c0:	80c0030d 	sth	r3,12(r16)
   243c4:	003fd606 	br	24320 <__alt_data_end+0xfffe4320>
   243c8:	80c00e17 	ldw	r3,56(r16)
   243cc:	0005883a 	mov	r2,zero
   243d0:	80c00015 	stw	r3,0(r16)
   243d4:	003fd206 	br	24320 <__alt_data_end+0xfffe4320>
   243d8:	800b883a 	mov	r5,r16
   243dc:	8809883a 	mov	r4,r17
   243e0:	002a9e80 	call	2a9e8 <_fflush_r>
   243e4:	10000a1e 	bne	r2,zero,24410 <__srefill_r+0x1bc>
   243e8:	8080030b 	ldhu	r2,12(r16)
   243ec:	00fffdc4 	movi	r3,-9
   243f0:	80000215 	stw	zero,8(r16)
   243f4:	1886703a 	and	r3,r3,r2
   243f8:	80000615 	stw	zero,24(r16)
   243fc:	003fd206 	br	24348 <__alt_data_end+0xfffe4348>
   24400:	00800244 	movi	r2,9
   24404:	88800015 	stw	r2,0(r17)
   24408:	18c01014 	ori	r3,r3,64
   2440c:	80c0030d 	sth	r3,12(r16)
   24410:	00bfffc4 	movi	r2,-1
   24414:	003fc206 	br	24320 <__alt_data_end+0xfffe4320>
   24418:	800b883a 	mov	r5,r16
   2441c:	8809883a 	mov	r4,r17
   24420:	00235600 	call	23560 <__smakebuf_r>
   24424:	003fb106 	br	242ec <__alt_data_end+0xfffe42ec>

00024428 <__srget_r>:
   24428:	defffd04 	addi	sp,sp,-12
   2442c:	dc400115 	stw	r17,4(sp)
   24430:	dc000015 	stw	r16,0(sp)
   24434:	dfc00215 	stw	ra,8(sp)
   24438:	2023883a 	mov	r17,r4
   2443c:	2821883a 	mov	r16,r5
   24440:	20000226 	beq	r4,zero,2444c <__srget_r+0x24>
   24444:	20800e17 	ldw	r2,56(r4)
   24448:	10001026 	beq	r2,zero,2448c <__srget_r+0x64>
   2444c:	800b883a 	mov	r5,r16
   24450:	8809883a 	mov	r4,r17
   24454:	00242540 	call	24254 <__srefill_r>
   24458:	10000e1e 	bne	r2,zero,24494 <__srget_r+0x6c>
   2445c:	80c00017 	ldw	r3,0(r16)
   24460:	80800117 	ldw	r2,4(r16)
   24464:	19000044 	addi	r4,r3,1
   24468:	10bfffc4 	addi	r2,r2,-1
   2446c:	80800115 	stw	r2,4(r16)
   24470:	81000015 	stw	r4,0(r16)
   24474:	18800003 	ldbu	r2,0(r3)
   24478:	dfc00217 	ldw	ra,8(sp)
   2447c:	dc400117 	ldw	r17,4(sp)
   24480:	dc000017 	ldw	r16,0(sp)
   24484:	dec00304 	addi	sp,sp,12
   24488:	f800283a 	ret
   2448c:	002adc40 	call	2adc4 <__sinit>
   24490:	003fee06 	br	2444c <__alt_data_end+0xfffe444c>
   24494:	00bfffc4 	movi	r2,-1
   24498:	003ff706 	br	24478 <__alt_data_end+0xfffe4478>

0002449c <__srget>:
   2449c:	008000f4 	movhi	r2,3
   244a0:	109a9604 	addi	r2,r2,27224
   244a4:	200b883a 	mov	r5,r4
   244a8:	11000017 	ldw	r4,0(r2)
   244ac:	00244281 	jmpi	24428 <__srget_r>

000244b0 <_sbrk_r>:
   244b0:	defffd04 	addi	sp,sp,-12
   244b4:	dc000015 	stw	r16,0(sp)
   244b8:	040000f4 	movhi	r16,3
   244bc:	dc400115 	stw	r17,4(sp)
   244c0:	841f5204 	addi	r16,r16,32072
   244c4:	2023883a 	mov	r17,r4
   244c8:	2809883a 	mov	r4,r5
   244cc:	dfc00215 	stw	ra,8(sp)
   244d0:	80000015 	stw	zero,0(r16)
   244d4:	00340200 	call	34020 <sbrk>
   244d8:	00ffffc4 	movi	r3,-1
   244dc:	10c00526 	beq	r2,r3,244f4 <_sbrk_r+0x44>
   244e0:	dfc00217 	ldw	ra,8(sp)
   244e4:	dc400117 	ldw	r17,4(sp)
   244e8:	dc000017 	ldw	r16,0(sp)
   244ec:	dec00304 	addi	sp,sp,12
   244f0:	f800283a 	ret
   244f4:	80c00017 	ldw	r3,0(r16)
   244f8:	183ff926 	beq	r3,zero,244e0 <__alt_data_end+0xfffe44e0>
   244fc:	88c00015 	stw	r3,0(r17)
   24500:	003ff706 	br	244e0 <__alt_data_end+0xfffe44e0>

00024504 <_snprintf_r>:
   24504:	30003116 	blt	r6,zero,245cc <_snprintf_r+0xc8>
   24508:	deffe404 	addi	sp,sp,-112
   2450c:	00c08204 	movi	r3,520
   24510:	dc001a15 	stw	r16,104(sp)
   24514:	3005883a 	mov	r2,r6
   24518:	dfc01b15 	stw	ra,108(sp)
   2451c:	d8c0030d 	sth	r3,12(sp)
   24520:	d9400015 	stw	r5,0(sp)
   24524:	d9400415 	stw	r5,16(sp)
   24528:	380d883a 	mov	r6,r7
   2452c:	2021883a 	mov	r16,r4
   24530:	10001026 	beq	r2,zero,24574 <_snprintf_r+0x70>
   24534:	10bfffc4 	addi	r2,r2,-1
   24538:	d8800215 	stw	r2,8(sp)
   2453c:	d8800515 	stw	r2,20(sp)
   24540:	d9c01c04 	addi	r7,sp,112
   24544:	00bfffc4 	movi	r2,-1
   24548:	d80b883a 	mov	r5,sp
   2454c:	d880038d 	sth	r2,14(sp)
   24550:	00248940 	call	24894 <___svfprintf_internal_r>
   24554:	00ffffc4 	movi	r3,-1
   24558:	10c01316 	blt	r2,r3,245a8 <_snprintf_r+0xa4>
   2455c:	d8c00017 	ldw	r3,0(sp)
   24560:	18000005 	stb	zero,0(r3)
   24564:	dfc01b17 	ldw	ra,108(sp)
   24568:	dc001a17 	ldw	r16,104(sp)
   2456c:	dec01c04 	addi	sp,sp,112
   24570:	f800283a 	ret
   24574:	00bfffc4 	movi	r2,-1
   24578:	d9c01c04 	addi	r7,sp,112
   2457c:	d80b883a 	mov	r5,sp
   24580:	d8000215 	stw	zero,8(sp)
   24584:	d8000515 	stw	zero,20(sp)
   24588:	d880038d 	sth	r2,14(sp)
   2458c:	00248940 	call	24894 <___svfprintf_internal_r>
   24590:	00ffffc4 	movi	r3,-1
   24594:	10c00716 	blt	r2,r3,245b4 <_snprintf_r+0xb0>
   24598:	dfc01b17 	ldw	ra,108(sp)
   2459c:	dc001a17 	ldw	r16,104(sp)
   245a0:	dec01c04 	addi	sp,sp,112
   245a4:	f800283a 	ret
   245a8:	00c022c4 	movi	r3,139
   245ac:	80c00015 	stw	r3,0(r16)
   245b0:	003fea06 	br	2455c <__alt_data_end+0xfffe455c>
   245b4:	00c022c4 	movi	r3,139
   245b8:	80c00015 	stw	r3,0(r16)
   245bc:	dfc01b17 	ldw	ra,108(sp)
   245c0:	dc001a17 	ldw	r16,104(sp)
   245c4:	dec01c04 	addi	sp,sp,112
   245c8:	f800283a 	ret
   245cc:	008022c4 	movi	r2,139
   245d0:	20800015 	stw	r2,0(r4)
   245d4:	00bfffc4 	movi	r2,-1
   245d8:	f800283a 	ret

000245dc <snprintf>:
   245dc:	deffe304 	addi	sp,sp,-116
   245e0:	dfc01b15 	stw	ra,108(sp)
   245e4:	dc001a15 	stw	r16,104(sp)
   245e8:	d9c01c15 	stw	r7,112(sp)
   245ec:	008000f4 	movhi	r2,3
   245f0:	109a9604 	addi	r2,r2,27224
   245f4:	14000017 	ldw	r16,0(r2)
   245f8:	28002d16 	blt	r5,zero,246b0 <snprintf+0xd4>
   245fc:	00808204 	movi	r2,520
   24600:	d880030d 	sth	r2,12(sp)
   24604:	d9000015 	stw	r4,0(sp)
   24608:	d9000415 	stw	r4,16(sp)
   2460c:	28001126 	beq	r5,zero,24654 <snprintf+0x78>
   24610:	28bfffc4 	addi	r2,r5,-1
   24614:	d8800215 	stw	r2,8(sp)
   24618:	d8800515 	stw	r2,20(sp)
   2461c:	d9c01c04 	addi	r7,sp,112
   24620:	00bfffc4 	movi	r2,-1
   24624:	d80b883a 	mov	r5,sp
   24628:	8009883a 	mov	r4,r16
   2462c:	d880038d 	sth	r2,14(sp)
   24630:	00248940 	call	24894 <___svfprintf_internal_r>
   24634:	00ffffc4 	movi	r3,-1
   24638:	10c01416 	blt	r2,r3,2468c <snprintf+0xb0>
   2463c:	d8c00017 	ldw	r3,0(sp)
   24640:	18000005 	stb	zero,0(r3)
   24644:	dfc01b17 	ldw	ra,108(sp)
   24648:	dc001a17 	ldw	r16,104(sp)
   2464c:	dec01d04 	addi	sp,sp,116
   24650:	f800283a 	ret
   24654:	00bfffc4 	movi	r2,-1
   24658:	d9c01c04 	addi	r7,sp,112
   2465c:	d80b883a 	mov	r5,sp
   24660:	8009883a 	mov	r4,r16
   24664:	d8000215 	stw	zero,8(sp)
   24668:	d8000515 	stw	zero,20(sp)
   2466c:	d880038d 	sth	r2,14(sp)
   24670:	00248940 	call	24894 <___svfprintf_internal_r>
   24674:	00ffffc4 	movi	r3,-1
   24678:	10c00716 	blt	r2,r3,24698 <snprintf+0xbc>
   2467c:	dfc01b17 	ldw	ra,108(sp)
   24680:	dc001a17 	ldw	r16,104(sp)
   24684:	dec01d04 	addi	sp,sp,116
   24688:	f800283a 	ret
   2468c:	00c022c4 	movi	r3,139
   24690:	80c00015 	stw	r3,0(r16)
   24694:	003fe906 	br	2463c <__alt_data_end+0xfffe463c>
   24698:	00c022c4 	movi	r3,139
   2469c:	80c00015 	stw	r3,0(r16)
   246a0:	dfc01b17 	ldw	ra,108(sp)
   246a4:	dc001a17 	ldw	r16,104(sp)
   246a8:	dec01d04 	addi	sp,sp,116
   246ac:	f800283a 	ret
   246b0:	008022c4 	movi	r2,139
   246b4:	80800015 	stw	r2,0(r16)
   246b8:	00bfffc4 	movi	r2,-1
   246bc:	003fef06 	br	2467c <__alt_data_end+0xfffe467c>

000246c0 <__sread>:
   246c0:	defffe04 	addi	sp,sp,-8
   246c4:	dc000015 	stw	r16,0(sp)
   246c8:	2821883a 	mov	r16,r5
   246cc:	2940038f 	ldh	r5,14(r5)
   246d0:	dfc00115 	stw	ra,4(sp)
   246d4:	002cfb40 	call	2cfb4 <_read_r>
   246d8:	10000716 	blt	r2,zero,246f8 <__sread+0x38>
   246dc:	80c01417 	ldw	r3,80(r16)
   246e0:	1887883a 	add	r3,r3,r2
   246e4:	80c01415 	stw	r3,80(r16)
   246e8:	dfc00117 	ldw	ra,4(sp)
   246ec:	dc000017 	ldw	r16,0(sp)
   246f0:	dec00204 	addi	sp,sp,8
   246f4:	f800283a 	ret
   246f8:	80c0030b 	ldhu	r3,12(r16)
   246fc:	18fbffcc 	andi	r3,r3,61439
   24700:	80c0030d 	sth	r3,12(r16)
   24704:	dfc00117 	ldw	ra,4(sp)
   24708:	dc000017 	ldw	r16,0(sp)
   2470c:	dec00204 	addi	sp,sp,8
   24710:	f800283a 	ret

00024714 <__seofread>:
   24714:	0005883a 	mov	r2,zero
   24718:	f800283a 	ret

0002471c <__swrite>:
   2471c:	2880030b 	ldhu	r2,12(r5)
   24720:	defffb04 	addi	sp,sp,-20
   24724:	dcc00315 	stw	r19,12(sp)
   24728:	dc800215 	stw	r18,8(sp)
   2472c:	dc400115 	stw	r17,4(sp)
   24730:	dc000015 	stw	r16,0(sp)
   24734:	dfc00415 	stw	ra,16(sp)
   24738:	10c0400c 	andi	r3,r2,256
   2473c:	2821883a 	mov	r16,r5
   24740:	2023883a 	mov	r17,r4
   24744:	3025883a 	mov	r18,r6
   24748:	3827883a 	mov	r19,r7
   2474c:	18000526 	beq	r3,zero,24764 <__swrite+0x48>
   24750:	2940038f 	ldh	r5,14(r5)
   24754:	01c00084 	movi	r7,2
   24758:	000d883a 	mov	r6,zero
   2475c:	002ba680 	call	2ba68 <_lseek_r>
   24760:	8080030b 	ldhu	r2,12(r16)
   24764:	8140038f 	ldh	r5,14(r16)
   24768:	10bbffcc 	andi	r2,r2,61439
   2476c:	980f883a 	mov	r7,r19
   24770:	900d883a 	mov	r6,r18
   24774:	8809883a 	mov	r4,r17
   24778:	8080030d 	sth	r2,12(r16)
   2477c:	dfc00417 	ldw	ra,16(sp)
   24780:	dcc00317 	ldw	r19,12(sp)
   24784:	dc800217 	ldw	r18,8(sp)
   24788:	dc400117 	ldw	r17,4(sp)
   2478c:	dc000017 	ldw	r16,0(sp)
   24790:	dec00504 	addi	sp,sp,20
   24794:	0028d3c1 	jmpi	28d3c <_write_r>

00024798 <__sseek>:
   24798:	defffe04 	addi	sp,sp,-8
   2479c:	dc000015 	stw	r16,0(sp)
   247a0:	2821883a 	mov	r16,r5
   247a4:	2940038f 	ldh	r5,14(r5)
   247a8:	dfc00115 	stw	ra,4(sp)
   247ac:	002ba680 	call	2ba68 <_lseek_r>
   247b0:	00ffffc4 	movi	r3,-1
   247b4:	10c00826 	beq	r2,r3,247d8 <__sseek+0x40>
   247b8:	80c0030b 	ldhu	r3,12(r16)
   247bc:	80801415 	stw	r2,80(r16)
   247c0:	18c40014 	ori	r3,r3,4096
   247c4:	80c0030d 	sth	r3,12(r16)
   247c8:	dfc00117 	ldw	ra,4(sp)
   247cc:	dc000017 	ldw	r16,0(sp)
   247d0:	dec00204 	addi	sp,sp,8
   247d4:	f800283a 	ret
   247d8:	80c0030b 	ldhu	r3,12(r16)
   247dc:	18fbffcc 	andi	r3,r3,61439
   247e0:	80c0030d 	sth	r3,12(r16)
   247e4:	dfc00117 	ldw	ra,4(sp)
   247e8:	dc000017 	ldw	r16,0(sp)
   247ec:	dec00204 	addi	sp,sp,8
   247f0:	f800283a 	ret

000247f4 <__sclose>:
   247f4:	2940038f 	ldh	r5,14(r5)
   247f8:	0028ef01 	jmpi	28ef0 <_close_r>

000247fc <strlen>:
   247fc:	208000cc 	andi	r2,r4,3
   24800:	10002026 	beq	r2,zero,24884 <strlen+0x88>
   24804:	20800007 	ldb	r2,0(r4)
   24808:	10002026 	beq	r2,zero,2488c <strlen+0x90>
   2480c:	2005883a 	mov	r2,r4
   24810:	00000206 	br	2481c <strlen+0x20>
   24814:	10c00007 	ldb	r3,0(r2)
   24818:	18001826 	beq	r3,zero,2487c <strlen+0x80>
   2481c:	10800044 	addi	r2,r2,1
   24820:	10c000cc 	andi	r3,r2,3
   24824:	183ffb1e 	bne	r3,zero,24814 <__alt_data_end+0xfffe4814>
   24828:	10c00017 	ldw	r3,0(r2)
   2482c:	01ffbff4 	movhi	r7,65279
   24830:	39ffbfc4 	addi	r7,r7,-257
   24834:	00ca303a 	nor	r5,zero,r3
   24838:	01a02074 	movhi	r6,32897
   2483c:	19c7883a 	add	r3,r3,r7
   24840:	31a02004 	addi	r6,r6,-32640
   24844:	1946703a 	and	r3,r3,r5
   24848:	1986703a 	and	r3,r3,r6
   2484c:	1800091e 	bne	r3,zero,24874 <strlen+0x78>
   24850:	10800104 	addi	r2,r2,4
   24854:	10c00017 	ldw	r3,0(r2)
   24858:	19cb883a 	add	r5,r3,r7
   2485c:	00c6303a 	nor	r3,zero,r3
   24860:	28c6703a 	and	r3,r5,r3
   24864:	1986703a 	and	r3,r3,r6
   24868:	183ff926 	beq	r3,zero,24850 <__alt_data_end+0xfffe4850>
   2486c:	00000106 	br	24874 <strlen+0x78>
   24870:	10800044 	addi	r2,r2,1
   24874:	10c00007 	ldb	r3,0(r2)
   24878:	183ffd1e 	bne	r3,zero,24870 <__alt_data_end+0xfffe4870>
   2487c:	1105c83a 	sub	r2,r2,r4
   24880:	f800283a 	ret
   24884:	2005883a 	mov	r2,r4
   24888:	003fe706 	br	24828 <__alt_data_end+0xfffe4828>
   2488c:	0005883a 	mov	r2,zero
   24890:	f800283a 	ret

00024894 <___svfprintf_internal_r>:
   24894:	deffb704 	addi	sp,sp,-292
   24898:	dfc04815 	stw	ra,288(sp)
   2489c:	ddc04615 	stw	r23,280(sp)
   248a0:	d9402c15 	stw	r5,176(sp)
   248a4:	d9003915 	stw	r4,228(sp)
   248a8:	302f883a 	mov	r23,r6
   248ac:	d9c02d15 	stw	r7,180(sp)
   248b0:	df004715 	stw	fp,284(sp)
   248b4:	dd804515 	stw	r22,276(sp)
   248b8:	dd404415 	stw	r21,272(sp)
   248bc:	dd004315 	stw	r20,268(sp)
   248c0:	dcc04215 	stw	r19,264(sp)
   248c4:	dc804115 	stw	r18,260(sp)
   248c8:	dc404015 	stw	r17,256(sp)
   248cc:	dc003f15 	stw	r16,252(sp)
   248d0:	002ba380 	call	2ba38 <_localeconv_r>
   248d4:	10800017 	ldw	r2,0(r2)
   248d8:	1009883a 	mov	r4,r2
   248dc:	d8803415 	stw	r2,208(sp)
   248e0:	00247fc0 	call	247fc <strlen>
   248e4:	d8c02c17 	ldw	r3,176(sp)
   248e8:	d8803815 	stw	r2,224(sp)
   248ec:	1880030b 	ldhu	r2,12(r3)
   248f0:	1080200c 	andi	r2,r2,128
   248f4:	10000226 	beq	r2,zero,24900 <___svfprintf_internal_r+0x6c>
   248f8:	18800417 	ldw	r2,16(r3)
   248fc:	10067f26 	beq	r2,zero,262fc <___svfprintf_internal_r+0x1a68>
   24900:	dcc03917 	ldw	r19,228(sp)
   24904:	d8c00404 	addi	r3,sp,16
   24908:	054000f4 	movhi	r21,3
   2490c:	d9001e04 	addi	r4,sp,120
   24910:	ad554484 	addi	r21,r21,21778
   24914:	d8c01e15 	stw	r3,120(sp)
   24918:	d8002015 	stw	zero,128(sp)
   2491c:	d8001f15 	stw	zero,124(sp)
   24920:	d8003315 	stw	zero,204(sp)
   24924:	d8003615 	stw	zero,216(sp)
   24928:	d8003715 	stw	zero,220(sp)
   2492c:	1811883a 	mov	r8,r3
   24930:	d8003a15 	stw	zero,232(sp)
   24934:	d8003b15 	stw	zero,236(sp)
   24938:	d8002f15 	stw	zero,188(sp)
   2493c:	d9002815 	stw	r4,160(sp)
   24940:	b8800007 	ldb	r2,0(r23)
   24944:	10026726 	beq	r2,zero,252e4 <___svfprintf_internal_r+0xa50>
   24948:	00c00944 	movi	r3,37
   2494c:	b821883a 	mov	r16,r23
   24950:	10c0021e 	bne	r2,r3,2495c <___svfprintf_internal_r+0xc8>
   24954:	00001406 	br	249a8 <___svfprintf_internal_r+0x114>
   24958:	10c00326 	beq	r2,r3,24968 <___svfprintf_internal_r+0xd4>
   2495c:	84000044 	addi	r16,r16,1
   24960:	80800007 	ldb	r2,0(r16)
   24964:	103ffc1e 	bne	r2,zero,24958 <__alt_data_end+0xfffe4958>
   24968:	85e3c83a 	sub	r17,r16,r23
   2496c:	88000e26 	beq	r17,zero,249a8 <___svfprintf_internal_r+0x114>
   24970:	d8c02017 	ldw	r3,128(sp)
   24974:	d8801f17 	ldw	r2,124(sp)
   24978:	45c00015 	stw	r23,0(r8)
   2497c:	1c47883a 	add	r3,r3,r17
   24980:	10800044 	addi	r2,r2,1
   24984:	d8c02015 	stw	r3,128(sp)
   24988:	44400115 	stw	r17,4(r8)
   2498c:	d8801f15 	stw	r2,124(sp)
   24990:	00c001c4 	movi	r3,7
   24994:	18809716 	blt	r3,r2,24bf4 <___svfprintf_internal_r+0x360>
   24998:	42000204 	addi	r8,r8,8
   2499c:	d9402f17 	ldw	r5,188(sp)
   249a0:	2c4b883a 	add	r5,r5,r17
   249a4:	d9402f15 	stw	r5,188(sp)
   249a8:	80800007 	ldb	r2,0(r16)
   249ac:	10009826 	beq	r2,zero,24c10 <___svfprintf_internal_r+0x37c>
   249b0:	84400047 	ldb	r17,1(r16)
   249b4:	00bfffc4 	movi	r2,-1
   249b8:	85c00044 	addi	r23,r16,1
   249bc:	d8002785 	stb	zero,158(sp)
   249c0:	0007883a 	mov	r3,zero
   249c4:	000f883a 	mov	r7,zero
   249c8:	d8802915 	stw	r2,164(sp)
   249cc:	d8003115 	stw	zero,196(sp)
   249d0:	0025883a 	mov	r18,zero
   249d4:	01401604 	movi	r5,88
   249d8:	01800244 	movi	r6,9
   249dc:	02800a84 	movi	r10,42
   249e0:	02401b04 	movi	r9,108
   249e4:	bdc00044 	addi	r23,r23,1
   249e8:	88bff804 	addi	r2,r17,-32
   249ec:	2882f036 	bltu	r5,r2,255b0 <___svfprintf_internal_r+0xd1c>
   249f0:	100490ba 	slli	r2,r2,2
   249f4:	010000b4 	movhi	r4,2
   249f8:	21128204 	addi	r4,r4,18952
   249fc:	1105883a 	add	r2,r2,r4
   24a00:	10800017 	ldw	r2,0(r2)
   24a04:	1000683a 	jmp	r2
   24a08:	00025518 	cmpnei	zero,zero,2388
   24a0c:	000255b0 	cmpltui	zero,zero,2390
   24a10:	000255b0 	cmpltui	zero,zero,2390
   24a14:	0002550c 	andi	zero,zero,2388
   24a18:	000255b0 	cmpltui	zero,zero,2390
   24a1c:	000255b0 	cmpltui	zero,zero,2390
   24a20:	000255b0 	cmpltui	zero,zero,2390
   24a24:	000255b0 	cmpltui	zero,zero,2390
   24a28:	000255b0 	cmpltui	zero,zero,2390
   24a2c:	000255b0 	cmpltui	zero,zero,2390
   24a30:	00024c6c 	andhi	zero,zero,2353
   24a34:	00025448 	cmpgei	zero,zero,2385
   24a38:	000255b0 	cmpltui	zero,zero,2390
   24a3c:	00024b7c 	xorhi	zero,zero,2349
   24a40:	00024c94 	movui	zero,2354
   24a44:	000255b0 	cmpltui	zero,zero,2390
   24a48:	00024d08 	cmpgei	zero,zero,2356
   24a4c:	00024cd4 	movui	zero,2355
   24a50:	00024cd4 	movui	zero,2355
   24a54:	00024cd4 	movui	zero,2355
   24a58:	00024cd4 	movui	zero,2355
   24a5c:	00024cd4 	movui	zero,2355
   24a60:	00024cd4 	movui	zero,2355
   24a64:	00024cd4 	movui	zero,2355
   24a68:	00024cd4 	movui	zero,2355
   24a6c:	00024cd4 	movui	zero,2355
   24a70:	000255b0 	cmpltui	zero,zero,2390
   24a74:	000255b0 	cmpltui	zero,zero,2390
   24a78:	000255b0 	cmpltui	zero,zero,2390
   24a7c:	000255b0 	cmpltui	zero,zero,2390
   24a80:	000255b0 	cmpltui	zero,zero,2390
   24a84:	000255b0 	cmpltui	zero,zero,2390
   24a88:	000255b0 	cmpltui	zero,zero,2390
   24a8c:	000255b0 	cmpltui	zero,zero,2390
   24a90:	000255b0 	cmpltui	zero,zero,2390
   24a94:	000255b0 	cmpltui	zero,zero,2390
   24a98:	00024dc0 	call	24dc <__alt_mem_onchip_memory2_0-0x1db24>
   24a9c:	00024d14 	movui	zero,2356
   24aa0:	000255b0 	cmpltui	zero,zero,2390
   24aa4:	00024d14 	movui	zero,2356
   24aa8:	000255b0 	cmpltui	zero,zero,2390
   24aac:	000255b0 	cmpltui	zero,zero,2390
   24ab0:	000255b0 	cmpltui	zero,zero,2390
   24ab4:	000255b0 	cmpltui	zero,zero,2390
   24ab8:	00024db4 	movhi	zero,2358
   24abc:	000255b0 	cmpltui	zero,zero,2390
   24ac0:	000255b0 	cmpltui	zero,zero,2390
   24ac4:	00024e7c 	xorhi	zero,zero,2361
   24ac8:	000255b0 	cmpltui	zero,zero,2390
   24acc:	000255b0 	cmpltui	zero,zero,2390
   24ad0:	000255b0 	cmpltui	zero,zero,2390
   24ad4:	000255b0 	cmpltui	zero,zero,2390
   24ad8:	000255b0 	cmpltui	zero,zero,2390
   24adc:	000252ec 	andhi	zero,zero,2379
   24ae0:	000255b0 	cmpltui	zero,zero,2390
   24ae4:	000255b0 	cmpltui	zero,zero,2390
   24ae8:	0002534c 	andi	zero,zero,2381
   24aec:	000255b0 	cmpltui	zero,zero,2390
   24af0:	000255b0 	cmpltui	zero,zero,2390
   24af4:	000255b0 	cmpltui	zero,zero,2390
   24af8:	000255b0 	cmpltui	zero,zero,2390
   24afc:	000255b0 	cmpltui	zero,zero,2390
   24b00:	000255b0 	cmpltui	zero,zero,2390
   24b04:	000255b0 	cmpltui	zero,zero,2390
   24b08:	000255b0 	cmpltui	zero,zero,2390
   24b0c:	000255b0 	cmpltui	zero,zero,2390
   24b10:	000255b0 	cmpltui	zero,zero,2390
   24b14:	000253fc 	xorhi	zero,zero,2383
   24b18:	00025538 	rdprs	zero,zero,2388
   24b1c:	00024d14 	movui	zero,2356
   24b20:	00024d14 	movui	zero,2356
   24b24:	00024d14 	movui	zero,2356
   24b28:	0002558c 	andi	zero,zero,2390
   24b2c:	00025538 	rdprs	zero,zero,2388
   24b30:	000255b0 	cmpltui	zero,zero,2390
   24b34:	000255b0 	cmpltui	zero,zero,2390
   24b38:	00025548 	cmpgei	zero,zero,2389
   24b3c:	000255b0 	cmpltui	zero,zero,2390
   24b40:	00025558 	cmpnei	zero,zero,2389
   24b44:	00025438 	rdprs	zero,zero,2384
   24b48:	00024b88 	cmpgei	zero,zero,2350
   24b4c:	00025458 	cmpnei	zero,zero,2385
   24b50:	000255b0 	cmpltui	zero,zero,2390
   24b54:	00025464 	muli	zero,zero,2385
   24b58:	000255b0 	cmpltui	zero,zero,2390
   24b5c:	000254c0 	call	254c <__alt_mem_onchip_memory2_0-0x1dab4>
   24b60:	000255b0 	cmpltui	zero,zero,2390
   24b64:	000255b0 	cmpltui	zero,zero,2390
   24b68:	000254d0 	cmplti	zero,zero,2387
   24b6c:	d9003117 	ldw	r4,196(sp)
   24b70:	d8802d15 	stw	r2,180(sp)
