
D8M_Camera_Test.elf:     file format elf32-littlenios2
D8M_Camera_Test.elf
architecture: nios2:r1, flags 0x00000112:
EXEC_P, HAS_SYMS, D_PAGED
start address 0x00020188

Program Header:
    LOAD off    0x00001000 vaddr 0x00020000 paddr 0x00020000 align 2**12
         filesz 0x00000020 memsz 0x00000020 flags r-x
    LOAD off    0x00001020 vaddr 0x00020020 paddr 0x00020020 align 2**12
         filesz 0x000157dc memsz 0x000157dc flags r-x
    LOAD off    0x000167fc vaddr 0x000357fc paddr 0x00036a94 align 2**12
         filesz 0x00001298 memsz 0x00001298 flags rw-
    LOAD off    0x00017d2c vaddr 0x00037d2c paddr 0x00037d2c align 2**12
         filesz 0x00000000 memsz 0x0000019c flags rw-

Sections:
Idx Name          Size      VMA       LMA       File off  Algn
  0 .entry        00000020  00020000  00020000  00001000  2**5
                  CONTENTS, ALLOC, LOAD, READONLY, CODE
  1 .exceptions   00000168  00020020  00020020  00001020  2**2
                  CONTENTS, ALLOC, LOAD, READONLY, CODE
  2 .text         00014d40  00020188  00020188  00001188  2**2
                  CONTENTS, ALLOC, LOAD, READONLY, CODE
  3 .rodata       00000934  00034ec8  00034ec8  00015ec8  2**2
                  CONTENTS, ALLOC, LOAD, READONLY, DATA
  4 .rwdata       00001298  000357fc  00036a94  000167fc  2**2
                  CONTENTS, ALLOC, LOAD, DATA, SMALL_DATA
  5 .bss          0000019c  00037d2c  00037d2c  00017d2c  2**2
                  ALLOC, SMALL_DATA
  6 .onchip_memory2_0 00000000  00037ec8  00037ec8  00017a94  2**0
                  CONTENTS
  7 .comment      00000046  00000000  00000000  00017a94  2**0
                  CONTENTS, READONLY
  8 .debug_aranges 00001218  00000000  00000000  00017ae0  2**3
                  CONTENTS, READONLY, DEBUGGING
  9 .debug_info   0003064b  00000000  00000000  00018cf8  2**0
                  CONTENTS, READONLY, DEBUGGING
 10 .debug_abbrev 0000bf8a  00000000  00000000  00049343  2**0
                  CONTENTS, READONLY, DEBUGGING
 11 .debug_line   0000f48b  00000000  00000000  000552cd  2**0
                  CONTENTS, READONLY, DEBUGGING
 12 .debug_frame  00002818  00000000  00000000  00064758  2**2
                  CONTENTS, READONLY, DEBUGGING
 13 .debug_str    000042ab  00000000  00000000  00066f70  2**0
                  CONTENTS, READONLY, DEBUGGING
 14 .debug_loc    0001f0ec  00000000  00000000  0006b21b  2**0
                  CONTENTS, READONLY, DEBUGGING
 15 .debug_alt_sim_info 00000060  00000000  00000000  0008a308  2**2
                  CONTENTS, READONLY, DEBUGGING
 16 .debug_ranges 00001d50  00000000  00000000  0008a368  2**3
                  CONTENTS, READONLY, DEBUGGING
 17 .thread_model 00000003  00000000  00000000  0008fd5a  2**0
                  CONTENTS, READONLY
 18 .cpu          0000000a  00000000  00000000  0008fd5d  2**0
                  CONTENTS, READONLY
 19 .qsys         00000001  00000000  00000000  0008fd67  2**0
                  CONTENTS, READONLY
 20 .simulation_enabled 00000001  00000000  00000000  0008fd68  2**0
                  CONTENTS, READONLY
 21 .sysid_hash   00000004  00000000  00000000  0008fd69  2**0
                  CONTENTS, READONLY
 22 .sysid_base   00000004  00000000  00000000  0008fd6d  2**0
                  CONTENTS, READONLY
 23 .sysid_time   00000004  00000000  00000000  0008fd71  2**0
                  CONTENTS, READONLY
 24 .stderr_dev   00000009  00000000  00000000  0008fd75  2**0
                  CONTENTS, READONLY
 25 .stdin_dev    00000009  00000000  00000000  0008fd7e  2**0
                  CONTENTS, READONLY
 26 .stdout_dev   00000005  00000000  00000000  0008fd87  2**0
                  CONTENTS, READONLY
 27 .sopc_system_name 00000004  00000000  00000000  0008fd8c  2**0
                  CONTENTS, READONLY
 28 .quartus_project_dir 00000043  00000000  00000000  0008fd90  2**0
                  CONTENTS, READONLY
 29 .jdi          0000414a  00000000  00000000  0008fdd3  2**0
                  CONTENTS, READONLY
 30 .sopcinfo     000a0485  00000000  00000000  00093f1d  2**0
                  CONTENTS, READONLY
SYMBOL TABLE:
00020000 l    d  .entry	00000000 .entry
00020020 l    d  .exceptions	00000000 .exceptions
00020188 l    d  .text	00000000 .text
00034ec8 l    d  .rodata	00000000 .rodata
000357fc l    d  .rwdata	00000000 .rwdata
00037d2c l    d  .bss	00000000 .bss
00037ec8 l    d  .onchip_memory2_0	00000000 .onchip_memory2_0
00000000 l    d  .comment	00000000 .comment
00000000 l    d  .debug_aranges	00000000 .debug_aranges
00000000 l    d  .debug_info	00000000 .debug_info
00000000 l    d  .debug_abbrev	00000000 .debug_abbrev
00000000 l    d  .debug_line	00000000 .debug_line
00000000 l    d  .debug_frame	00000000 .debug_frame
00000000 l    d  .debug_str	00000000 .debug_str
00000000 l    d  .debug_loc	00000000 .debug_loc
00000000 l    d  .debug_alt_sim_info	00000000 .debug_alt_sim_info
00000000 l    d  .debug_ranges	00000000 .debug_ranges
00000000 l    df *ABS*	00000000 ../D8M_Camera_Test_bsp//obj/HAL/src/crt0.o
000201d0 l       .text	00000000 alt_after_alt_main
00000000 l    df *ABS*	00000000 alt_irq_handler.c
00000000 l    df *ABS*	00000000 alt_instruction_exception_entry.c
00000000 l    df *ABS*	00000000 I2C_core.c
00000000 l    df *ABS*	00000000 auto_focus.c
00000000 l    df *ABS*	00000000 main.c
00000000 l    df *ABS*	00000000 mipi_bridge_config.c
000357fc l     O .rwdata	00000034 MipiBridgeReg
00000000 l    df *ABS*	00000000 mipi_camera_config.c
00035830 l     O .rwdata	00000774 MipiCameraReg
00000000 l    df *ABS*	00000000 queue.c
00000000 l    df *ABS*	00000000 lib2-divmod.c
00000000 l    df *ABS*	00000000 fopen.c
00000000 l    df *ABS*	00000000 fseek.c
00000000 l    df *ABS*	00000000 fseeko.c
00000000 l    df *ABS*	00000000 fstatr.c
00000000 l    df *ABS*	00000000 getc.c
00000000 l    df *ABS*	00000000 impure.c
00035fa4 l     O .rwdata	00000424 impure_data
00000000 l    df *ABS*	00000000 int_errno.c
00000000 l    df *ABS*	00000000 makebuf.c
00000000 l    df *ABS*	00000000 malloc.c
00000000 l    df *ABS*	00000000 mallocr.c
00000000 l    df *ABS*	00000000 memset.c
00000000 l    df *ABS*	00000000 openr.c
00000000 l    df *ABS*	00000000 printf.c
00000000 l    df *ABS*	00000000 putchar.c
00000000 l    df *ABS*	00000000 puts.c
00000000 l    df *ABS*	00000000 refill.c
00024238 l     F .text	0000001c lflush
00000000 l    df *ABS*	00000000 rget.c
00000000 l    df *ABS*	00000000 sbrkr.c
00000000 l    df *ABS*	00000000 snprintf.c
00000000 l    df *ABS*	00000000 stdio.c
00000000 l    df *ABS*	00000000 strlen.c
00000000 l    df *ABS*	00000000 vfprintf.c
00035512 l     O .rodata	00000010 zeroes.4389
00035522 l     O .rodata	00000010 blanks.4388
00000000 l    df *ABS*	00000000 vfprintf.c
00035532 l     O .rodata	00000010 zeroes.4404
00028c80 l     F .text	000000bc __sbprintf
00035542 l     O .rodata	00000010 blanks.4403
00000000 l    df *ABS*	00000000 writer.c
00000000 l    df *ABS*	00000000 wsetup.c
00000000 l    df *ABS*	00000000 closer.c
00000000 l    df *ABS*	00000000 dtoa.c
00028f44 l     F .text	00000200 quorem
00000000 l    df *ABS*	00000000 fflush.c
00000000 l    df *ABS*	00000000 findfp.c
0002aa74 l     F .text	00000008 __fp_unlock
0002aa88 l     F .text	0000019c __sinit.part.1
0002ac24 l     F .text	00000008 __fp_lock
00000000 l    df *ABS*	00000000 flags.c
00000000 l    df *ABS*	00000000 mallocr.c
00000000 l    df *ABS*	00000000 fvwrite.c
00000000 l    df *ABS*	00000000 fwalk.c
00000000 l    df *ABS*	00000000 isattyr.c
00000000 l    df *ABS*	00000000 locale.c
000367f0 l     O .rwdata	00000020 lc_ctype_charset
000367d0 l     O .rwdata	00000020 lc_message_charset
00036810 l     O .rwdata	00000038 lconv
00000000 l    df *ABS*	00000000 lseekr.c
00000000 l    df *ABS*	00000000 memchr.c
00000000 l    df *ABS*	00000000 memcpy.c
00000000 l    df *ABS*	00000000 memmove.c
00000000 l    df *ABS*	00000000 mprec.c
00035570 l     O .rodata	0000000c p05.2768
00000000 l    df *ABS*	00000000 putc.c
00000000 l    df *ABS*	00000000 readr.c
00000000 l    df *ABS*	00000000 mallocr.c
00000000 l    df *ABS*	00000000 s_fpclassify.c
00000000 l    df *ABS*	00000000 strcmp.c
00000000 l    df *ABS*	00000000 vfprintf.c
000356a4 l     O .rodata	00000010 blanks.4332
00035694 l     O .rodata	00000010 zeroes.4333
00000000 l    df *ABS*	00000000 vfprintf.c
0002ead4 l     F .text	000000fc __sprint_r.part.0
000356c4 l     O .rodata	00000010 blanks.4348
000356b4 l     O .rodata	00000010 zeroes.4349
00030060 l     F .text	000000bc __sbprintf
00000000 l    df *ABS*	00000000 wbuf.c
00000000 l    df *ABS*	00000000 mallocr.c
00000000 l    df *ABS*	00000000 fclose.c
00000000 l    df *ABS*	00000000 fputwc.c
00000000 l    df *ABS*	00000000 wcrtomb.c
00000000 l    df *ABS*	00000000 wctomb_r.c
00000000 l    df *ABS*	00000000 libgcc2.c
00000000 l    df *ABS*	00000000 libgcc2.c
00000000 l    df *ABS*	00000000 adddf3.c
00000000 l    df *ABS*	00000000 divdf3.c
00000000 l    df *ABS*	00000000 eqdf2.c
00000000 l    df *ABS*	00000000 gedf2.c
00000000 l    df *ABS*	00000000 ledf2.c
00000000 l    df *ABS*	00000000 muldf3.c
00000000 l    df *ABS*	00000000 subdf3.c
00000000 l    df *ABS*	00000000 fixdfsi.c
00000000 l    df *ABS*	00000000 floatsidf.c
00000000 l    df *ABS*	00000000 floatunsidf.c
00000000 l    df *ABS*	00000000 libgcc2.c
00000000 l    df *ABS*	00000000 libgcc2.c
00000000 l    df *ABS*	00000000 alt_close.c
00000000 l    df *ABS*	00000000 alt_dev.c
00033a08 l     F .text	00000008 alt_dev_null_write
00000000 l    df *ABS*	00000000 alt_errno.c
00000000 l    df *ABS*	00000000 alt_fcntl.c
00000000 l    df *ABS*	00000000 alt_fstat.c
00000000 l    df *ABS*	00000000 alt_isatty.c
00000000 l    df *ABS*	00000000 alt_load.c
00000000 l    df *ABS*	00000000 alt_lseek.c
00000000 l    df *ABS*	00000000 alt_main.c
00000000 l    df *ABS*	00000000 alt_malloc_lock.c
00000000 l    df *ABS*	00000000 alt_open.c
00000000 l    df *ABS*	00000000 alt_putstr.c
00000000 l    df *ABS*	00000000 alt_read.c
00033f50 l     F .text	00000020 alt_get_errno
00000000 l    df *ABS*	00000000 alt_release_fd.c
00000000 l    df *ABS*	00000000 alt_sbrk.c
00036a84 l     O .rwdata	00000004 heap_end
00000000 l    df *ABS*	00000000 alt_tick.c
00000000 l    df *ABS*	00000000 alt_usleep.c
00000000 l    df *ABS*	00000000 alt_write.c
0003415c l     F .text	00000020 alt_get_errno
00000000 l    df *ABS*	00000000 alt_sys_init.c
00036a1c l     O .rwdata	0000002c jtag_uart
000369f0 l     O .rwdata	0000002c uart0
00000000 l    df *ABS*	00000000 altera_avalon_jtag_uart_fd.c
00000000 l    df *ABS*	00000000 altera_avalon_jtag_uart_read.c
00000000 l    df *ABS*	00000000 altera_avalon_jtag_uart_write.c
00000000 l    df *ABS*	00000000 altera_avalon_timer_sc.c
0003432c l     F .text	0000003c alt_avalon_timer_sc_irq
00000000 l    df *ABS*	00000000 altera_avalon_uart_fd.c
00000000 l    df *ABS*	00000000 altera_avalon_uart_read.c
00000000 l    df *ABS*	00000000 altera_avalon_uart_write.c
00000000 l    df *ABS*	00000000 alt_busy_sleep.c
00000000 l    df *ABS*	00000000 alt_dcache_flush_all.c
00000000 l    df *ABS*	00000000 alt_dev_llist_insert.c
00000000 l    df *ABS*	00000000 alt_do_ctors.c
00000000 l    df *ABS*	00000000 alt_do_dtors.c
00000000 l    df *ABS*	00000000 alt_find_dev.c
00000000 l    df *ABS*	00000000 alt_find_file.c
00000000 l    df *ABS*	00000000 alt_get_fd.c
00000000 l    df *ABS*	00000000 alt_icache_flush_all.c
00000000 l    df *ABS*	00000000 alt_iic.c
00000000 l    df *ABS*	00000000 alt_iic_isr_register.c
00000000 l    df *ABS*	00000000 alt_io_redirect.c
00034908 l     F .text	00000070 alt_open_fd.constprop.0
00000000 l    df *ABS*	00000000 alt_irq_vars.c
00000000 l    df *ABS*	00000000 altera_nios2_gen2_irq.c
00000000 l    df *ABS*	00000000 alt_icache_flush.c
00000000 l    df *ABS*	00000000 atexit.c
00000000 l    df *ABS*	00000000 exit.c
00000000 l    df *ABS*	00000000 fputs.c
00000000 l    df *ABS*	00000000 memcmp.c
00000000 l    df *ABS*	00000000 __atexit.c
00000000 l    df *ABS*	00000000 __call_atexit.c
00000000 l    df *ABS*	00000000 alt_exit.c
00037d7c g     O .bss	00000004 alt_instruction_exception_handler
0002414c g     F .text	00000018 putchar
0002ccd4 g     F .text	00000074 _mprec_log10
0002cdc0 g     F .text	0000008c __any_on
0002b938 g     F .text	00000054 _isatty_r
0003557c g     O .rodata	00000028 __mprec_tinytens
00033d54 g     F .text	00000064 alt_main
00024164 g     F .text	000000c0 _puts_r
00037dc8 g     O .bss	00000100 alt_irq
0002ba68 g     F .text	00000060 _lseek_r
00021288 g     F .text	000000b0 Focus_Released
00020528 g     F .text	00000060 ACK_check
00036a94 g       *ABS*	00000000 __flash_rwdata_start
0002049c g     F .text	0000008c ACK_single_check
0002ae14 g     F .text	000000ac __sflags
00032470 g     F .text	00000088 .hidden __eqdf2
000210a8 g     F .text	000001e0 Focus_Window
00022240 g     F .text	0000006c OV8865_write_AF
00037ec8 g       *ABS*	00000000 __alt_heap_start
00022b10 g     F .text	00000064 QUEUE_IsFull
00024108 g     F .text	0000003c printf
00030644 g     F .text	0000009c _wcrtomb_r
00024798 g     F .text	0000005c __sseek
0002adc4 g     F .text	00000010 __sinit
0003011c g     F .text	00000140 __swbuf_r
0002b98c g     F .text	0000007c _setlocale_r
0002ac2c g     F .text	00000068 __sfmoreglue
00033dbc g     F .text	00000004 __malloc_unlock
0002bcf4 g     F .text	0000015c memmove
00020588 g     F .text	00000200 OC_I2C_Write
0002adac g     F .text	00000018 _cleanup
000245dc g     F .text	000000e4 snprintf
0002be50 g     F .text	000000a8 _Balloc
00020f80 g     F .text	00000128 Focus_Init
00033f3c g     F .text	00000014 alt_putstr
000324f8 g     F .text	000000dc .hidden __gtdf2
000349ec g     F .text	00000008 altera_nios2_gen2_irq_init
00020000 g     F .entry	0000001c __reset
00020020 g       *ABS*	00000000 __flash_exceptions_start
0002340c g     F .text	0000005c _fstat_r
00036a50 g     O .rwdata	00000001 focus_scal
00037d48 g     O .bss	00000004 errno
0002449c g     F .text	00000014 __srget
00024714 g     F .text	00000008 __seofread
0002d898 g     F .text	0000123c ___svfiprintf_internal_r
00037d68 g     O .bss	00000004 alt_argv
0003ea48 g       *ABS*	00000000 _gp
00034158 g     F .text	00000004 usleep
00036848 g     O .rwdata	00000180 alt_fd_list
00023468 g     F .text	00000070 _getc_r
000234d8 g     F .text	00000088 getc
00024144 g     F .text	00000008 _putchar_r
0003468c g     F .text	00000074 alt_find_dev
0002bbac g     F .text	00000148 memcpy
000202dc g     F .text	0000013c oc_i2c_init_ex
0002aa7c g     F .text	0000000c _cleanup_r
0003375c g     F .text	000000dc .hidden __floatsidf
00034978 g     F .text	00000074 alt_io_redirect
000325d4 g     F .text	000000f4 .hidden __ltdf2
00034ec8 g       *ABS*	00000000 __DTOR_END__
00024224 g     F .text	00000014 puts
00034a2c g     F .text	00000074 alt_exception_cause_generated_bad_addr
0002d578 g     F .text	00000074 __fpclassifyd
0002cc30 g     F .text	000000a4 __ratio
00030044 g     F .text	0000001c __vfiprintf_internal
00022ad0 g     F .text	00000040 QUEUE_IsEmpty
0003429c g     F .text	0000005c altera_avalon_jtag_uart_read
0002371c g     F .text	00000014 malloc
000240d8 g     F .text	00000030 _printf_r
00020000 g       *ABS*	00000000 __alt_mem_onchip_memory2_0
00022dc4 g     F .text	00000064 .hidden __udivsi3
00033b64 g     F .text	00000080 isatty
000355cc g     O .rodata	000000c8 __mprec_tens
0002ba08 g     F .text	0000000c __locale_charset
000349f4 g     F .text	00000038 alt_icache_flush
00037d54 g     O .bss	00000004 __malloc_top_pad
00022c98 g     F .text	00000034 QUEUE_Empty
00037d2c g     O .bss	00000002 x_len
0002232c g     F .text	000000d0 OV8865_FOCUS_Move_to
00036a64 g     O .rwdata	00000004 __mb_cur_max
0002ba38 g     F .text	0000000c _localeconv_r
00037d2e g     O .bss	00000002 prevhori
0002c25c g     F .text	0000003c __i2b
0002b2f4 g     F .text	000004bc __sfvwrite_r
00022c08 g     F .text	00000090 QUEUE_Pop
000244b0 g     F .text	00000054 _sbrk_r
0002cfb4 g     F .text	00000060 _read_r
00036a4e g     O .rwdata	00000002 focus_height
00036a6c g     O .rwdata	00000004 alt_max_fd
00037d30 g     O .bss	00000004 col_and_det
00030338 g     F .text	000000f0 _fclose_r
000221d4 g     F .text	0000006c OV8865_write_cmos_sensor_8
0002aa44 g     F .text	00000030 fflush
00037d50 g     O .bss	00000004 __malloc_max_sbrked_mem
00037d34 g     O .bss	00000004 x_values
000312dc g     F .text	000008ac .hidden __adddf3
0002c9d8 g     F .text	0000010c __b2d
00030da4 g     F .text	00000538 .hidden __umoddi3
00033cc4 g     F .text	00000090 lseek
00036a54 g     O .rwdata	00000004 _global_impure_ptr
0002d014 g     F .text	00000564 _realloc_r
00037ec8 g       *ABS*	00000000 __bss_end
000348a0 g     F .text	00000068 alt_iic_isr_register
000340a0 g     F .text	000000b8 alt_tick
0003082c g     F .text	00000578 .hidden __udivdi3
000305a0 g     F .text	00000024 _fputwc_r
000355a4 g     O .rodata	00000028 __mprec_bigtens
0002c040 g     F .text	00000104 __s2b
00033838 g     F .text	000000a8 .hidden __floatunsidf
00036a4a g     O .rwdata	00000002 video_h
0002c718 g     F .text	00000060 __mcmp
0002ade4 g     F .text	00000018 __fp_lock_all
00034888 g     F .text	00000018 alt_ic_irq_enabled
00021338 g     F .text	000000b8 mipi_clear_error
00020af0 g     F .text	00000210 OC_I2CL_Write
0003406c g     F .text	00000034 alt_alarm_stop
00037d78 g     O .bss	00000004 alt_irq_active
00022fac g     F .text	00000444 _fseeko_r
00020788 g     F .text	00000064 ACK_judge_for_read
000200fc g     F .exceptions	00000060 alt_irq_handler
000224dc g     F .text	000000cc OV8865SetGain
000369c8 g     O .rwdata	00000028 alt_dev_null
000201d4 g     F .text	00000058 Write32_Data
00037d38 g     O .bss	00000002 hori_dist
0003456c g     F .text	00000018 alt_dcache_flush_all
0002c144 g     F .text	00000068 __hi0bits
000336dc g     F .text	00000080 .hidden __fixdfsi
00036a51 g     O .rwdata	00000001 focus_scal_f
00036a94 g       *ABS*	00000000 __ram_rwdata_end
00036a70 g     O .rwdata	00000008 alt_dev_list
0003417c g     F .text	00000088 write
0002ce4c g     F .text	000000a0 _putc_r
000357fc g       *ABS*	00000000 __ram_rodata_end
00033ae0 g     F .text	00000084 fstat
000325d4 g     F .text	000000f4 .hidden __ledf2
0002c490 g     F .text	00000140 __pow5mult
0002ebe8 g     F .text	0000145c ___vfiprintf_internal_r
00037d60 g     O .bss	00000004 __nlocale_changed
00022e28 g     F .text	00000058 .hidden __umodsi3
00021488 g     F .text	00000178 mipi_show_error_info_more
00037ec8 g       *ABS*	00000000 end
000233f0 g     F .text	0000001c fseeko
00037d3a g     O .bss	00000002 pix_dist_from_cen
00034464 g     F .text	00000090 altera_avalon_uart_write
00022f90 g     F .text	0000001c fseek
0002015c g     F .exceptions	0000002c alt_instruction_exception_entry
00034ec8 g       *ABS*	00000000 __CTOR_LIST__
00040000 g       *ABS*	00000000 __alt_stack_pointer
00034368 g     F .text	00000050 alt_avalon_timer_sc_init
000343c8 g     F .text	00000010 altera_avalon_uart_write_fd
000338e0 g     F .text	00000064 .hidden __clzsi2
00024504 g     F .text	000000d8 _snprintf_r
000342f8 g     F .text	00000034 altera_avalon_jtag_uart_write
0002add4 g     F .text	00000004 __sfp_lock_acquire
0002bac8 g     F .text	000000e4 memchr
00026a6c g     F .text	000021f8 ___vfprintf_internal_r
0002afe4 g     F .text	00000310 _free_r
0002ba14 g     F .text	00000010 __locale_mb_cur_max
00037d3c g     O .bss	00000002 detected
00034d34 g     F .text	00000180 __call_exitprocs
00024428 g     F .text	00000074 __srget_r
00037d5c g     O .bss	00000004 __mlocale_changed
00036a5c g     O .rwdata	00000004 __malloc_sbrk_base
00020188 g     F .text	0000004c _start
00037d74 g     O .bss	00000004 _alt_tick_rate
00037d3e g     O .bss	00000002 x_cen
0002c5d0 g     F .text	00000148 __lshift
00022b74 g     F .text	00000094 QUEUE_Push
00037d70 g     O .bss	00000004 _alt_nticks
00033f70 g     F .text	0000008c read
00034224 g     F .text	00000058 alt_sys_init
0002d6c8 g     F .text	000001d0 __ssprint_r
00024078 g     F .text	00000060 _open_r
00034c1c g     F .text	00000118 __register_exitproc
00022170 g     F .text	00000064 OV8865_read_cmos_sensor_8
0002c298 g     F .text	000001f8 __multiply
00021f5c g     F .text	0000006c MipiBridgeRegWrite
000357fc g       *ABS*	00000000 __ram_rwdata_start
00034ec8 g       *ABS*	00000000 __ram_rodata_start
00037d80 g     O .bss	00000028 __malloc_current_mallinfo
0002cae4 g     F .text	0000014c __d2b
0003427c g     F .text	00000010 altera_avalon_jtag_uart_read_fd
000347ac g     F .text	0000004c alt_get_fd
000344f4 g     F .text	00000078 alt_busy_sleep
00028ef0 g     F .text	00000054 _close_r
00021688 g     F .text	000001b0 sendToControl
00034ba0 g     F .text	0000007c memcmp
00037ec8 g       *ABS*	00000000 __alt_stack_base
00028d9c g     F .text	00000154 __swsetup_r
00020284 g     F .text	00000058 oc_i2c_init
00031b88 g     F .text	000008e8 .hidden __divdf3
0002ac94 g     F .text	00000118 __sfp
0002cd48 g     F .text	00000078 __copybits
000363c8 g     O .rwdata	00000408 __malloc_av_
0002ade0 g     F .text	00000004 __sinit_lock_release
000326c8 g     F .text	00000718 .hidden __muldf3
000246c0 g     F .text	00000054 __sread
00034700 g     F .text	000000ac alt_find_file
00034584 g     F .text	00000078 alt_dev_llist_insert
00033db8 g     F .text	00000004 __malloc_lock
00034020 g     F .text	0000004c sbrk
00024894 g     F .text	000021d8 ___svfprintf_internal_r
00022824 g     F .text	00000208 MipiCameraInit
00021f10 g     F .text	0000004c nSWAP16
0002a9e8 g     F .text	0000005c _fflush_r
00030274 g     F .text	000000c4 _calloc_r
00022a2c g     F .text	00000070 QUEUE_New
00022f74 g     F .text	00000018 fopen
00037d2c g       *ABS*	00000000 __bss_start
00023f50 g     F .text	00000128 memset
00021838 g     F .text	000006d8 main
00037d64 g     O .bss	00000004 alt_envp
00037d4c g     O .bss	00000004 __malloc_max_total_mem
0003428c g     F .text	00000010 altera_avalon_jtag_uart_write_fd
0003025c g     F .text	00000018 __swbuf
00037d40 g     O .bss	00000002 prevdiag
000247f4 g     F .text	00000008 __sclose
00040000 g       *ABS*	00000000 __alt_heap_limit
00030428 g     F .text	00000014 fclose
00029144 g     F .text	00001688 _dtoa_r
00023744 g     F .text	0000080c _malloc_r
000307a0 g     F .text	00000030 __ascii_wctomb
00036a80 g     O .rwdata	00000004 alt_errno
0002b7b0 g     F .text	000000c4 _fwalk
0002ceec g     F .text	000000c8 putc
00022ccc g     F .text	00000084 .hidden __divsi3
00020418 g     F .text	00000084 oc_i2c_uninit
0002aec0 g     F .text	00000124 _malloc_trim_r
00034ec8 g       *ABS*	00000000 __CTOR_END__
00022664 g     F .text	000001c0 MIPI_BIN_LEVEL
0002d5ec g     F .text	000000dc strcmp
00034ec8 g       *ABS*	00000000 __flash_rodata_start
00034ec8 g       *ABS*	00000000 __DTOR_LIST__
00037d42 g     O .bss	00000002 color
00032470 g     F .text	00000088 .hidden __nedf2
00034204 g     F .text	00000020 alt_irq_init
00033ffc g     F .text	00000024 alt_release_fd
00022040 g     F .text	00000130 MipiBridgeInit
000356d4 g     O .rodata	00000100 .hidden __clz_tab
00037d58 g     O .bss	00000004 _PathLocale
00034aa0 g     F .text	00000014 atexit
00028d3c g     F .text	00000060 _write_r
00037d44 g     O .bss	00000002 diag_dist
0002ba44 g     F .text	00000018 setlocale
00036a58 g     O .rwdata	00000004 _impure_ptr
00037d6c g     O .bss	00000004 alt_argc
00021fc8 g     F .text	00000078 MipiBridgeRegRead
0002a7cc g     F .text	0000021c __sflush_r
00034644 g     F .text	00000048 _do_dtors
0002ba30 g     F .text	00000008 __locale_cjk_lang
00022f8c g     F .text	00000004 _fseek_r
00036a48 g     O .rwdata	00000002 video_w
00024254 g     F .text	000001d4 __srefill_r
00020020 g       .exceptions	00000000 alt_irq_entry
0002c974 g     F .text	00000064 __ulp
0002adfc g     F .text	00000018 __fp_unlock_all
00036a78 g     O .rwdata	00000008 alt_fs_list
0002022c g     F .text	00000058 Read32_Data
000207ec g     F .text	000001cc OC_I2C_Read
00020020 g       *ABS*	00000000 __ram_exceptions_start
0002ba5c g     F .text	0000000c localeconv
00034804 g     F .text	00000004 alt_ic_isr_register
00036a94 g       *ABS*	00000000 _edata
000343b8 g     F .text	00000010 altera_avalon_uart_read_fd
00037ec8 g       *ABS*	00000000 _end
000225a8 g     F .text	000000bc OV8865ReadExposure
0003043c g     F .text	00000164 __fputwc
00020188 g       *ABS*	00000000 __ram_exceptions_end
00034aec g     F .text	0000009c _fputs_r
00037da8 g     O .bss	00000020 msgVision
00034848 g     F .text	00000040 alt_ic_irq_disable
0002471c g     F .text	0000007c __swrite
00036a60 g     O .rwdata	00000004 __malloc_trim_threshold
000209b8 g     F .text	00000138 OC_I2C_Read_Continue
0002ba24 g     F .text	0000000c __locale_msgcharset
00034ab4 g     F .text	00000038 exit
00036a52 g     O .rwdata	00000001 focus_th
0002b874 g     F .text	000000c4 _fwalk_reent
0002c778 g     F .text	000001fc __mdiff
00022d50 g     F .text	00000074 .hidden __modsi3
00040000 g       *ABS*	00000000 __alt_data_end
00020020 g     F .exceptions	00000000 alt_exception
0002add8 g     F .text	00000004 __sfp_lock_release
000213f0 g     F .text	00000098 mipi_show_error_info
00022a9c g     F .text	00000034 QUEUE_Delete
00020d00 g     F .text	00000280 OC_I2CL_Read
00022e80 g     F .text	000000f4 _fopen_r
00034eb4 g     F .text	00000014 _exit
00023560 g     F .text	000001bc __smakebuf_r
000247fc g     F .text	00000098 strlen
00033dc0 g     F .text	0000017c open
000324f8 g     F .text	000000dc .hidden __gedf2
00036a68 g     O .rwdata	00000004 __wctomb
0002ebd0 g     F .text	00000018 __sprint_r
000347f8 g     F .text	0000000c alt_icache_flush_all
000223fc g     F .text	000000e0 OV8865SetExposure
00034b88 g     F .text	00000018 fputs
00036a90 g     O .rwdata	00000004 alt_priority_mask
00036a4c g     O .rwdata	00000002 focus_width
00034808 g     F .text	00000040 alt_ic_irq_enable
00028c64 g     F .text	0000001c __vfprintf_internal
000343d8 g     F .text	0000008c altera_avalon_uart_read
000307d0 g     F .text	0000005c _wctomb_r
00021600 g     F .text	00000088 MIPI_Init
00032de0 g     F .text	000008fc .hidden __subdf3
00033a10 g     F .text	000000d0 fcntl
0002c1ac g     F .text	000000b0 __lo0bits
00036a88 g     O .rwdata	00000008 alt_alarm_list
000345fc g     F .text	00000048 _do_ctors
000306e0 g     F .text	000000c0 wcrtomb
00033944 g     F .text	000000c4 close
000222ac g     F .text	00000080 OV8865_read_AF
00033be4 g     F .text	000000e0 alt_load
000305c4 g     F .text	00000080 fputwc
00023730 g     F .text	00000014 free
0002addc g     F .text	00000004 __sinit_lock_acquire
0002bf20 g     F .text	00000120 __multadd
0002bef8 g     F .text	00000028 _Bfree



Disassembly of section .entry:

00020000 <__reset>:
   20000:	00840014 	movui	r2,4096
   20004:	1001483a 	initi	r2
   20008:	10bff804 	addi	r2,r2,-32
   2000c:	00bffd16 	blt	zero,r2,20004 <__alt_data_end+0xfffe0004>
   20010:	004000b4 	movhi	at,2
   20014:	08406214 	ori	at,at,392
   20018:	0800683a 	jmp	at
   2001c:	00000000 	call	0 <__alt_mem_onchip_memory2_0-0x20000>

Disassembly of section .exceptions:

00020020 <alt_exception>:
   20020:	deffed04 	addi	sp,sp,-76
   20024:	dfc00015 	stw	ra,0(sp)
   20028:	d8400215 	stw	at,8(sp)
   2002c:	d8800315 	stw	r2,12(sp)
   20030:	d8c00415 	stw	r3,16(sp)
   20034:	d9000515 	stw	r4,20(sp)
   20038:	d9400615 	stw	r5,24(sp)
   2003c:	d9800715 	stw	r6,28(sp)
   20040:	d9c00815 	stw	r7,32(sp)
   20044:	000b307a 	rdctl	r5,estatus
   20048:	da000915 	stw	r8,36(sp)
   2004c:	da400a15 	stw	r9,40(sp)
   20050:	da800b15 	stw	r10,44(sp)
   20054:	dac00c15 	stw	r11,48(sp)
   20058:	db000d15 	stw	r12,52(sp)
   2005c:	db400e15 	stw	r13,56(sp)
   20060:	db800f15 	stw	r14,60(sp)
   20064:	dbc01015 	stw	r15,64(sp)
   20068:	d9401115 	stw	r5,68(sp)
   2006c:	ebffff04 	addi	r15,ea,-4
   20070:	dbc01215 	stw	r15,72(sp)
   20074:	0009313a 	rdctl	r4,ipending
   20078:	2880004c 	andi	r2,r5,1
   2007c:	10000326 	beq	r2,zero,2008c <alt_exception+0x6c>
   20080:	20000226 	beq	r4,zero,2008c <alt_exception+0x6c>
   20084:	00200fc0 	call	200fc <alt_irq_handler>
   20088:	00000706 	br	200a8 <alt_exception+0x88>
   2008c:	df401215 	stw	ea,72(sp)
   20090:	e8bfff17 	ldw	r2,-4(ea)
   20094:	e93fff04 	addi	r4,ea,-4
   20098:	002015c0 	call	2015c <alt_instruction_exception_entry>
   2009c:	1000021e 	bne	r2,zero,200a8 <alt_exception+0x88>
   200a0:	ebffff04 	addi	r15,ea,-4
   200a4:	dbc01215 	stw	r15,72(sp)
   200a8:	d9401117 	ldw	r5,68(sp)
   200ac:	df401217 	ldw	ea,72(sp)
   200b0:	dfc00017 	ldw	ra,0(sp)
   200b4:	2801707a 	wrctl	estatus,r5
   200b8:	d8400217 	ldw	at,8(sp)
   200bc:	d8800317 	ldw	r2,12(sp)
   200c0:	d8c00417 	ldw	r3,16(sp)
   200c4:	d9000517 	ldw	r4,20(sp)
   200c8:	d9400617 	ldw	r5,24(sp)
   200cc:	d9800717 	ldw	r6,28(sp)
   200d0:	d9c00817 	ldw	r7,32(sp)
   200d4:	da000917 	ldw	r8,36(sp)
   200d8:	da400a17 	ldw	r9,40(sp)
   200dc:	da800b17 	ldw	r10,44(sp)
   200e0:	dac00c17 	ldw	r11,48(sp)
   200e4:	db000d17 	ldw	r12,52(sp)
   200e8:	db400e17 	ldw	r13,56(sp)
   200ec:	db800f17 	ldw	r14,60(sp)
   200f0:	dbc01017 	ldw	r15,64(sp)
   200f4:	dec01304 	addi	sp,sp,76
   200f8:	ef80083a 	eret

000200fc <alt_irq_handler>:
   200fc:	defffe04 	addi	sp,sp,-8
   20100:	dfc00115 	stw	ra,4(sp)
   20104:	dc000015 	stw	r16,0(sp)
   20108:	0009313a 	rdctl	r4,ipending
   2010c:	040000f4 	movhi	r16,3
   20110:	841f7204 	addi	r16,r16,32200
   20114:	0005883a 	mov	r2,zero
   20118:	00c00044 	movi	r3,1
   2011c:	20ca703a 	and	r5,r4,r3
   20120:	28000b26 	beq	r5,zero,20150 <alt_irq_handler+0x54>
   20124:	100490fa 	slli	r2,r2,3
   20128:	8085883a 	add	r2,r16,r2
   2012c:	10c00017 	ldw	r3,0(r2)
   20130:	11000117 	ldw	r4,4(r2)
   20134:	183ee83a 	callr	r3
   20138:	0009313a 	rdctl	r4,ipending
   2013c:	203ff51e 	bne	r4,zero,20114 <__alt_data_end+0xfffe0114>
   20140:	dfc00117 	ldw	ra,4(sp)
   20144:	dc000017 	ldw	r16,0(sp)
   20148:	dec00204 	addi	sp,sp,8
   2014c:	f800283a 	ret
   20150:	18c7883a 	add	r3,r3,r3
   20154:	10800044 	addi	r2,r2,1
   20158:	003ff006 	br	2011c <__alt_data_end+0xfffe011c>

0002015c <alt_instruction_exception_entry>:
   2015c:	000531fa 	rdctl	r2,exception
   20160:	000d333a 	rdctl	r6,badaddr
   20164:	d0e4cd17 	ldw	r3,-27852(gp)
   20168:	18000426 	beq	r3,zero,2017c <alt_instruction_exception_entry+0x20>
   2016c:	10801f0c 	andi	r2,r2,124
   20170:	200b883a 	mov	r5,r4
   20174:	1008d0ba 	srli	r4,r2,2
   20178:	1800683a 	jmp	r3
   2017c:	003da03a 	break	0
   20180:	0005883a 	mov	r2,zero
   20184:	f800283a 	ret

Disassembly of section .text:

00020188 <_start>:
   20188:	00820014 	movui	r2,2048
   2018c:	10000033 	initd	0(r2)
   20190:	10bff804 	addi	r2,r2,-32
   20194:	00bffd16 	blt	zero,r2,2018c <__alt_data_end+0xfffe018c>
   20198:	06c00134 	movhi	sp,4
   2019c:	dec00014 	ori	sp,sp,0
   201a0:	068000f4 	movhi	gp,3
   201a4:	d6ba9214 	ori	gp,gp,59976
   201a8:	008000f4 	movhi	r2,3
   201ac:	109f4b14 	ori	r2,r2,32044
   201b0:	00c000f4 	movhi	r3,3
   201b4:	18dfb214 	ori	r3,r3,32456
   201b8:	10c00326 	beq	r2,r3,201c8 <_start+0x40>
   201bc:	10000015 	stw	zero,0(r2)
   201c0:	10800104 	addi	r2,r2,4
   201c4:	10fffd36 	bltu	r2,r3,201bc <__alt_data_end+0xfffe01bc>
   201c8:	0033be40 	call	33be4 <alt_load>
   201cc:	0033d540 	call	33d54 <alt_main>

000201d0 <alt_after_alt_main>:
   201d0:	003fff06 	br	201d0 <__alt_data_end+0xfffe01d0>

000201d4 <Write32_Data>:
#define SLEEP_TIME 250  //us
#define ACK_SLEEP_TIME 250 //us
#define TRUE 1
#define FALSE 0

bool Write32_Data(alt_32 base_address, alt_32 offset_address, alt_32 Data){
   201d4:	defffb04 	addi	sp,sp,-20
   201d8:	df000415 	stw	fp,16(sp)
   201dc:	df000404 	addi	fp,sp,16
   201e0:	e13ffd15 	stw	r4,-12(fp)
   201e4:	e17ffe15 	stw	r5,-8(fp)
   201e8:	e1bfff15 	stw	r6,-4(fp)
	bool bPass;
    IOWR(base_address, offset_address,Data);
   201ec:	e0bffe17 	ldw	r2,-8(fp)
   201f0:	1085883a 	add	r2,r2,r2
   201f4:	1085883a 	add	r2,r2,r2
   201f8:	1007883a 	mov	r3,r2
   201fc:	e0bffd17 	ldw	r2,-12(fp)
   20200:	1885883a 	add	r2,r3,r2
   20204:	1007883a 	mov	r3,r2
   20208:	e0bfff17 	ldw	r2,-4(fp)
   2020c:	18800035 	stwio	r2,0(r3)
    bPass=TRUE;
   20210:	00800044 	movi	r2,1
   20214:	e0bffc15 	stw	r2,-16(fp)
    return bPass;
   20218:	e0bffc17 	ldw	r2,-16(fp)
}
   2021c:	e037883a 	mov	sp,fp
   20220:	df000017 	ldw	fp,0(sp)
   20224:	dec00104 	addi	sp,sp,4
   20228:	f800283a 	ret

0002022c <Read32_Data>:



bool  Read32_Data(alt_32 base_address, alt_32 offset_address, alt_32 *pData32){
   2022c:	defffb04 	addi	sp,sp,-20
   20230:	df000415 	stw	fp,16(sp)
   20234:	df000404 	addi	fp,sp,16
   20238:	e13ffd15 	stw	r4,-12(fp)
   2023c:	e17ffe15 	stw	r5,-8(fp)
   20240:	e1bfff15 	stw	r6,-4(fp)
	bool bPass;
	*pData32 =IORD(base_address ,offset_address  );
   20244:	e0bffe17 	ldw	r2,-8(fp)
   20248:	1085883a 	add	r2,r2,r2
   2024c:	1085883a 	add	r2,r2,r2
   20250:	1007883a 	mov	r3,r2
   20254:	e0bffd17 	ldw	r2,-12(fp)
   20258:	1885883a 	add	r2,r3,r2
   2025c:	10c00037 	ldwio	r3,0(r2)
   20260:	e0bfff17 	ldw	r2,-4(fp)
   20264:	10c00015 	stw	r3,0(r2)
	bPass=TRUE;
   20268:	00800044 	movi	r2,1
   2026c:	e0bffc15 	stw	r2,-16(fp)
    return bPass;
   20270:	e0bffc17 	ldw	r2,-16(fp)
}
   20274:	e037883a 	mov	sp,fp
   20278:	df000017 	ldw	fp,0(sp)
   2027c:	dec00104 	addi	sp,sp,4
   20280:	f800283a 	ret

00020284 <oc_i2c_init>:

bool oc_i2c_init(alt_32 i2c_base){
   20284:	defffa04 	addi	sp,sp,-24
   20288:	dfc00515 	stw	ra,20(sp)
   2028c:	df000415 	stw	fp,16(sp)
   20290:	df000404 	addi	fp,sp,16
   20294:	e13fff15 	stw	r4,-4(fp)
	bool bSuccess;
	const alt_32 ref_clk = 50*1000*1000; // 50MHz
   20298:	0080bef4 	movhi	r2,763
   2029c:	10bc2004 	addi	r2,r2,-3968
   202a0:	e0bffc15 	stw	r2,-16(fp)
	const alt_32 i2c_clk = 400*1000; // 400KHz
   202a4:	008001b4 	movhi	r2,6
   202a8:	1086a004 	addi	r2,r2,6784
   202ac:	e0bffd15 	stw	r2,-12(fp)

	bSuccess = oc_i2c_init_ex(i2c_base, ref_clk, i2c_clk);
   202b0:	e1bffd17 	ldw	r6,-12(fp)
   202b4:	e17ffc17 	ldw	r5,-16(fp)
   202b8:	e13fff17 	ldw	r4,-4(fp)
   202bc:	00202dc0 	call	202dc <oc_i2c_init_ex>
   202c0:	e0bffe15 	stw	r2,-8(fp)

	return bSuccess;
   202c4:	e0bffe17 	ldw	r2,-8(fp)
}
   202c8:	e037883a 	mov	sp,fp
   202cc:	dfc00117 	ldw	ra,4(sp)
   202d0:	df000017 	ldw	fp,0(sp)
   202d4:	dec00204 	addi	sp,sp,8
   202d8:	f800283a 	ret

000202dc <oc_i2c_init_ex>:

bool  oc_i2c_init_ex(alt_32 i2c_base, alt_32 ref_clk, alt_32 i2c_clk)
{
   202dc:	defff604 	addi	sp,sp,-40
   202e0:	dfc00915 	stw	ra,36(sp)
   202e4:	df000815 	stw	fp,32(sp)
   202e8:	df000804 	addi	fp,sp,32
   202ec:	e13ffd15 	stw	r4,-12(fp)
   202f0:	e17ffe15 	stw	r5,-8(fp)
   202f4:	e1bfff15 	stw	r6,-4(fp)
	bool bSuccess=TRUE;
   202f8:	00800044 	movi	r2,1
   202fc:	e0bff815 	stw	r2,-32(fp)
	alt_32 read_data;
	alt_32 prescale;
	alt_u8 prescale_high;
	alt_u8 prescale_low;
	const alt_u8 ControlValue = 0x80;
   20300:	00bfe004 	movi	r2,-128
   20304:	e0bff905 	stb	r2,-28(fp)

    // I2c sysclock =50M hz
	// i2c scl max 400k
	//scl =sysclock/(prescale*5)
	prescale = (ref_clk/(5*i2c_clk))-1;
   20308:	e0bfff17 	ldw	r2,-4(fp)
   2030c:	10800164 	muli	r2,r2,5
   20310:	100b883a 	mov	r5,r2
   20314:	e13ffe17 	ldw	r4,-8(fp)
   20318:	0022ccc0 	call	22ccc <__divsi3>
   2031c:	10bfffc4 	addi	r2,r2,-1
   20320:	e0bffa15 	stw	r2,-24(fp)
	prescale_low = prescale & 0xFF;
   20324:	e0bffa17 	ldw	r2,-24(fp)
   20328:	e0bffb05 	stb	r2,-20(fp)
	prescale_high = (prescale >> 8) & 0xFF;
   2032c:	e0bffa17 	ldw	r2,-24(fp)
   20330:	1005d23a 	srai	r2,r2,8
   20334:	e0bffb45 	stb	r2,-19(fp)

   IOWR(i2c_base, 0, prescale_low);//write low byte of  prescale (reg 0)
   20338:	e0bffd17 	ldw	r2,-12(fp)
   2033c:	e0fffb03 	ldbu	r3,-20(fp)
   20340:	10c00035 	stwio	r3,0(r2)
   IOWR(i2c_base, 1, prescale_high);//write high byte of prescale (reg 1)
   20344:	e0bffd17 	ldw	r2,-12(fp)
   20348:	10800104 	addi	r2,r2,4
   2034c:	1007883a 	mov	r3,r2
   20350:	e0bffb43 	ldbu	r2,-19(fp)
   20354:	18800035 	stwio	r2,0(r3)

   //enable the I2C core, but disable the IRQ
   IOWR( i2c_base, 2, ControlValue);
   20358:	e0bffd17 	ldw	r2,-12(fp)
   2035c:	10800204 	addi	r2,r2,8
   20360:	1007883a 	mov	r3,r2
   20364:	e0bff903 	ldbu	r2,-28(fp)
   20368:	18800035 	stwio	r2,0(r3)


    // check prescale low byte
    if (bSuccess){
   2036c:	e0bff817 	ldw	r2,-32(fp)
   20370:	10000826 	beq	r2,zero,20394 <oc_i2c_init_ex+0xb8>
    	read_data =IORD(i2c_base, 0);
   20374:	e0bffd17 	ldw	r2,-12(fp)
   20378:	10800037 	ldwio	r2,0(r2)
   2037c:	e0bffc15 	stw	r2,-16(fp)
        if( (read_data & 0x00ff) != prescale_low ){
   20380:	e0bffc17 	ldw	r2,-16(fp)
   20384:	10c03fcc 	andi	r3,r2,255
   20388:	e0bffb03 	ldbu	r2,-20(fp)
   2038c:	18800126 	beq	r3,r2,20394 <oc_i2c_init_ex+0xb8>
            bSuccess = FALSE;
   20390:	e03ff815 	stw	zero,-32(fp)
        }
    }

    // check prescale high byte
    if (bSuccess){
   20394:	e0bff817 	ldw	r2,-32(fp)
   20398:	10000926 	beq	r2,zero,203c0 <oc_i2c_init_ex+0xe4>
    	read_data =IORD(i2c_base, 1);
   2039c:	e0bffd17 	ldw	r2,-12(fp)
   203a0:	10800104 	addi	r2,r2,4
   203a4:	10800037 	ldwio	r2,0(r2)
   203a8:	e0bffc15 	stw	r2,-16(fp)
        if( (read_data & 0x00ff) != prescale_high ){
   203ac:	e0bffc17 	ldw	r2,-16(fp)
   203b0:	10c03fcc 	andi	r3,r2,255
   203b4:	e0bffb43 	ldbu	r2,-19(fp)
   203b8:	18800126 	beq	r3,r2,203c0 <oc_i2c_init_ex+0xe4>
            bSuccess = FALSE;
   203bc:	e03ff815 	stw	zero,-32(fp)
        }
    }

    // check control
    if (bSuccess){
   203c0:	e0bff817 	ldw	r2,-32(fp)
   203c4:	10000926 	beq	r2,zero,203ec <oc_i2c_init_ex+0x110>
    	read_data =IORD(i2c_base, 2);
   203c8:	e0bffd17 	ldw	r2,-12(fp)
   203cc:	10800204 	addi	r2,r2,8
   203d0:	10800037 	ldwio	r2,0(r2)
   203d4:	e0bffc15 	stw	r2,-16(fp)
        if( (read_data & 0x00ff) != ControlValue ){
   203d8:	e0bffc17 	ldw	r2,-16(fp)
   203dc:	10c03fcc 	andi	r3,r2,255
   203e0:	e0bff903 	ldbu	r2,-28(fp)
   203e4:	18800126 	beq	r3,r2,203ec <oc_i2c_init_ex+0x110>
            bSuccess = FALSE;
   203e8:	e03ff815 	stw	zero,-32(fp)
        }
    }

   if (bSuccess){
   203ec:	e0bff817 	ldw	r2,-32(fp)
   203f0:	1000031e 	bne	r2,zero,20400 <oc_i2c_init_ex+0x124>
//       printf("\nI2C core is enabled! \r\n");
   }
   else
       printf("\nI2C core is not enabled successfully! \r\n");
   203f4:	010000f4 	movhi	r4,3
   203f8:	2113b204 	addi	r4,r4,20168
   203fc:	00242240 	call	24224 <puts>

   return bSuccess;
   20400:	e0bff817 	ldw	r2,-32(fp)

}
   20404:	e037883a 	mov	sp,fp
   20408:	dfc00117 	ldw	ra,4(sp)
   2040c:	df000017 	ldw	fp,0(sp)
   20410:	dec00204 	addi	sp,sp,8
   20414:	f800283a 	ret

00020418 <oc_i2c_uninit>:

bool oc_i2c_uninit(alt_32 i2c_base)
{
   20418:	defffa04 	addi	sp,sp,-24
   2041c:	dfc00515 	stw	ra,20(sp)
   20420:	df000415 	stw	fp,16(sp)
   20424:	df000404 	addi	fp,sp,16
   20428:	e13fff15 	stw	r4,-4(fp)
	bool bSuccess=TRUE;
   2042c:	00800044 	movi	r2,1
   20430:	e0bffc15 	stw	r2,-16(fp)
	alt_32 read_data;
	const alt_u8 ControlValue = 0x00;
   20434:	e03ffd05 	stb	zero,-12(fp)

    IOWR( i2c_base, 2, ControlValue);
   20438:	e0bfff17 	ldw	r2,-4(fp)
   2043c:	10800204 	addi	r2,r2,8
   20440:	1007883a 	mov	r3,r2
   20444:	e0bffd03 	ldbu	r2,-12(fp)
   20448:	18800035 	stwio	r2,0(r3)
   	read_data =IORD(i2c_base, 2);
   2044c:	e0bfff17 	ldw	r2,-4(fp)
   20450:	10800204 	addi	r2,r2,8
   20454:	10800037 	ldwio	r2,0(r2)
   20458:	e0bffe15 	stw	r2,-8(fp)
	if( (read_data & 0x00ff) != ControlValue ){
   2045c:	e0bffe17 	ldw	r2,-8(fp)
   20460:	10c03fcc 	andi	r3,r2,255
   20464:	e0bffd03 	ldbu	r2,-12(fp)
   20468:	18800126 	beq	r3,r2,20470 <oc_i2c_uninit+0x58>
            bSuccess = FALSE;
   2046c:	e03ffc15 	stw	zero,-16(fp)
    }

   if (bSuccess){
   20470:	e0bffc17 	ldw	r2,-16(fp)
   20474:	1000031e 	bne	r2,zero,20484 <oc_i2c_uninit+0x6c>
//       printf("\I2C core  is disabled! \r\n");
   }
   else
       printf("\I2C core is failed to disable! \r\n");
   20478:	010000f4 	movhi	r4,3
   2047c:	2113bd04 	addi	r4,r4,20212
   20480:	00242240 	call	24224 <puts>

   return bSuccess;
   20484:	e0bffc17 	ldw	r2,-16(fp)

}
   20488:	e037883a 	mov	sp,fp
   2048c:	dfc00117 	ldw	ra,4(sp)
   20490:	df000017 	ldw	fp,0(sp)
   20494:	dec00204 	addi	sp,sp,8
   20498:	f800283a 	ret

0002049c <ACK_single_check>:




bool  ACK_single_check(alt_32 i2c_base)
{
   2049c:	defffb04 	addi	sp,sp,-20
   204a0:	dfc00415 	stw	ra,16(sp)
   204a4:	df000315 	stw	fp,12(sp)
   204a8:	df000304 	addi	fp,sp,12
   204ac:	e13fff15 	stw	r4,-4(fp)
	bool bSuccess=TRUE;
   204b0:	00800044 	movi	r2,1
   204b4:	e0bffd15 	stw	r2,-12(fp)
	alt_32 read_data;

    usleep(ACK_SLEEP_TIME);
   204b8:	01003e84 	movi	r4,250
   204bc:	00341580 	call	34158 <usleep>
    read_data =IORD(i2c_base, 4);
   204c0:	e0bfff17 	ldw	r2,-4(fp)
   204c4:	10800404 	addi	r2,r2,16
   204c8:	10800037 	ldwio	r2,0(r2)
   204cc:	e0bffe15 	stw	r2,-8(fp)
    if(read_data & 0x02)
   204d0:	e0bffe17 	ldw	r2,-8(fp)
   204d4:	1080008c 	andi	r2,r2,2
   204d8:	10000126 	beq	r2,zero,204e0 <ACK_single_check+0x44>
            bSuccess = FALSE;
   204dc:	e03ffd15 	stw	zero,-12(fp)
     if (bSuccess){
   204e0:	e0bffd17 	ldw	r2,-12(fp)
   204e4:	10000a26 	beq	r2,zero,20510 <ACK_single_check+0x74>
            usleep(ACK_SLEEP_TIME);
   204e8:	01003e84 	movi	r4,250
   204ec:	00341580 	call	34158 <usleep>
            read_data =IORD(i2c_base, 4);
   204f0:	e0bfff17 	ldw	r2,-4(fp)
   204f4:	10800404 	addi	r2,r2,16
   204f8:	10800037 	ldwio	r2,0(r2)
   204fc:	e0bffe15 	stw	r2,-8(fp)
                if(read_data & 0x80)
   20500:	e0bffe17 	ldw	r2,-8(fp)
   20504:	1080200c 	andi	r2,r2,128
   20508:	10000126 	beq	r2,zero,20510 <ACK_single_check+0x74>
                    bSuccess = FALSE;
   2050c:	e03ffd15 	stw	zero,-12(fp)
     }
    return bSuccess;
   20510:	e0bffd17 	ldw	r2,-12(fp)
}
   20514:	e037883a 	mov	sp,fp
   20518:	dfc00117 	ldw	ra,4(sp)
   2051c:	df000017 	ldw	fp,0(sp)
   20520:	dec00204 	addi	sp,sp,8
   20524:	f800283a 	ret

00020528 <ACK_check>:


bool  ACK_check(alt_32 i2c_base){
   20528:	defffb04 	addi	sp,sp,-20
   2052c:	dfc00415 	stw	ra,16(sp)
   20530:	df000315 	stw	fp,12(sp)
   20534:	df000304 	addi	fp,sp,12
   20538:	e13fff15 	stw	r4,-4(fp)
    bool bSuccess = FALSE;
   2053c:	e03ffd15 	stw	zero,-12(fp)
    int i=0;
   20540:	e03ffe15 	stw	zero,-8(fp)

    while(!bSuccess && i++ < 10){
   20544:	00000306 	br	20554 <ACK_check+0x2c>
        bSuccess = ACK_single_check(i2c_base);
   20548:	e13fff17 	ldw	r4,-4(fp)
   2054c:	002049c0 	call	2049c <ACK_single_check>
   20550:	e0bffd15 	stw	r2,-12(fp)

bool  ACK_check(alt_32 i2c_base){
    bool bSuccess = FALSE;
    int i=0;

    while(!bSuccess && i++ < 10){
   20554:	e0bffd17 	ldw	r2,-12(fp)
   20558:	1000051e 	bne	r2,zero,20570 <ACK_check+0x48>
   2055c:	e0bffe17 	ldw	r2,-8(fp)
   20560:	10c00044 	addi	r3,r2,1
   20564:	e0fffe15 	stw	r3,-8(fp)
   20568:	10800290 	cmplti	r2,r2,10
   2056c:	103ff61e 	bne	r2,zero,20548 <__alt_data_end+0xfffe0548>
        bSuccess = ACK_single_check(i2c_base);
    }

    return bSuccess;
   20570:	e0bffd17 	ldw	r2,-12(fp)
}
   20574:	e037883a 	mov	sp,fp
   20578:	dfc00117 	ldw	ra,4(sp)
   2057c:	df000017 	ldw	fp,0(sp)
   20580:	dec00204 	addi	sp,sp,8
   20584:	f800283a 	ret

00020588 <OC_I2C_Write>:

bool  OC_I2C_Write(alt_32 i2c_base,alt_u8 device_address,alt_u8 sub_address, alt_u8 *pData, int nWriteLength)
{
   20588:	defff904 	addi	sp,sp,-28
   2058c:	dfc00615 	stw	ra,24(sp)
   20590:	df000515 	stw	fp,20(sp)
   20594:	df000504 	addi	fp,sp,20
   20598:	e13ffc15 	stw	r4,-16(fp)
   2059c:	2807883a 	mov	r3,r5
   205a0:	3005883a 	mov	r2,r6
   205a4:	e1ffff15 	stw	r7,-4(fp)
   205a8:	e0fffd05 	stb	r3,-12(fp)
   205ac:	e0bffe05 	stb	r2,-8(fp)
    //DWORD reg_data = 0x0;
    int i;

   //set the tx reg audio chip dev address with write bit
   if (!Write32_Data( i2c_base, 3,device_address)){
   205b0:	e0bffd03 	ldbu	r2,-12(fp)
   205b4:	100d883a 	mov	r6,r2
   205b8:	014000c4 	movi	r5,3
   205bc:	e13ffc17 	ldw	r4,-16(fp)
   205c0:	00201d40 	call	201d4 <Write32_Data>
   205c4:	1000051e 	bne	r2,zero,205dc <OC_I2C_Write+0x54>
       printf("OC_I2C_Write error[0]\r\n");
   205c8:	010000f4 	movhi	r4,3
   205cc:	2113c604 	addi	r4,r4,20248
   205d0:	00242240 	call	24224 <puts>
       return FALSE;
   205d4:	0005883a 	mov	r2,zero
   205d8:	00006606 	br	20774 <OC_I2C_Write+0x1ec>
   }
   //set STA and WR bits(bit7 and bit4)
   if (!Write32_Data( i2c_base, 4,0x90)){
   205dc:	01802404 	movi	r6,144
   205e0:	01400104 	movi	r5,4
   205e4:	e13ffc17 	ldw	r4,-16(fp)
   205e8:	00201d40 	call	201d4 <Write32_Data>
   205ec:	1000051e 	bne	r2,zero,20604 <OC_I2C_Write+0x7c>
       printf("OC_I2C_Write error[1]\r\n");
   205f0:	010000f4 	movhi	r4,3
   205f4:	2113cc04 	addi	r4,r4,20272
   205f8:	00242240 	call	24224 <puts>
       return FALSE;
   205fc:	0005883a 	mov	r2,zero
   20600:	00005c06 	br	20774 <OC_I2C_Write+0x1ec>
   }

   //wait TIP bit go to 0 to end Tx
    if(!ACK_check( i2c_base)){
   20604:	e13ffc17 	ldw	r4,-16(fp)
   20608:	00205280 	call	20528 <ACK_check>
   2060c:	1000051e 	bne	r2,zero,20624 <OC_I2C_Write+0x9c>
        printf("OC_I2C_Write error[2]\r\n");
   20610:	010000f4 	movhi	r4,3
   20614:	2113d204 	addi	r4,r4,20296
   20618:	00242240 	call	24224 <puts>
        return FALSE;
   2061c:	0005883a 	mov	r2,zero
   20620:	00005406 	br	20774 <OC_I2C_Write+0x1ec>
    }
  // printf("\n receive ACK-device address! \n");

   //set the txr reg data with reg address + 1 data MSB
   if (!Write32_Data( i2c_base, 3,sub_address)){
   20624:	e0bffe03 	ldbu	r2,-8(fp)
   20628:	100d883a 	mov	r6,r2
   2062c:	014000c4 	movi	r5,3
   20630:	e13ffc17 	ldw	r4,-16(fp)
   20634:	00201d40 	call	201d4 <Write32_Data>
   20638:	1000051e 	bne	r2,zero,20650 <OC_I2C_Write+0xc8>
       printf("OC_I2C_Write error[3]\r\n");
   2063c:	010000f4 	movhi	r4,3
   20640:	2113d804 	addi	r4,r4,20320
   20644:	00242240 	call	24224 <puts>
       return FALSE;
   20648:	0005883a 	mov	r2,zero
   2064c:	00004906 	br	20774 <OC_I2C_Write+0x1ec>
   }

   //set WR bits(bit4)
    if (!Write32_Data( i2c_base, 4,0x10)){
   20650:	01800404 	movi	r6,16
   20654:	01400104 	movi	r5,4
   20658:	e13ffc17 	ldw	r4,-16(fp)
   2065c:	00201d40 	call	201d4 <Write32_Data>
   20660:	1000051e 	bne	r2,zero,20678 <OC_I2C_Write+0xf0>
        printf("OC_I2C_Write error[4]\r\n");
   20664:	010000f4 	movhi	r4,3
   20668:	2113de04 	addi	r4,r4,20344
   2066c:	00242240 	call	24224 <puts>
        return FALSE;
   20670:	0005883a 	mov	r2,zero
   20674:	00003f06 	br	20774 <OC_I2C_Write+0x1ec>
    }

   //wait TIP bit go to 0 to end Tx
    if(!ACK_check( i2c_base)){
   20678:	e13ffc17 	ldw	r4,-16(fp)
   2067c:	00205280 	call	20528 <ACK_check>
   20680:	1000051e 	bne	r2,zero,20698 <OC_I2C_Write+0x110>
        printf("OC_I2C_Write error[5]\r\n");
   20684:	010000f4 	movhi	r4,3
   20688:	2113e404 	addi	r4,r4,20368
   2068c:	00242240 	call	24224 <puts>
        return FALSE;
   20690:	0005883a 	mov	r2,zero
   20694:	00003706 	br	20774 <OC_I2C_Write+0x1ec>
    }
 //  printf("\n receive ACK-reg address! \n");

#if 1
        for( i=nWriteLength-1;i>=0;i--){
   20698:	e0800217 	ldw	r2,8(fp)
   2069c:	10bfffc4 	addi	r2,r2,-1
   206a0:	e0bffb15 	stw	r2,-20(fp)
   206a4:	00002406 	br	20738 <OC_I2C_Write+0x1b0>
        //set the txr reg data with the data
          if (!Write32_Data( i2c_base, 3,*(pData+i))){
   206a8:	e0bffb17 	ldw	r2,-20(fp)
   206ac:	e0ffff17 	ldw	r3,-4(fp)
   206b0:	1885883a 	add	r2,r3,r2
   206b4:	10800003 	ldbu	r2,0(r2)
   206b8:	10803fcc 	andi	r2,r2,255
   206bc:	100d883a 	mov	r6,r2
   206c0:	014000c4 	movi	r5,3
   206c4:	e13ffc17 	ldw	r4,-16(fp)
   206c8:	00201d40 	call	201d4 <Write32_Data>
   206cc:	1000051e 	bne	r2,zero,206e4 <OC_I2C_Write+0x15c>
              printf("OC_I2C_Write error[6]\r\n");
   206d0:	010000f4 	movhi	r4,3
   206d4:	2113ea04 	addi	r4,r4,20392
   206d8:	00242240 	call	24224 <puts>
              return FALSE;
   206dc:	0005883a 	mov	r2,zero
   206e0:	00002406 	br	20774 <OC_I2C_Write+0x1ec>
          }

        //set STO and WR bits(bit7 and bit4)
         if (!Write32_Data( i2c_base, 4,0x10)){
   206e4:	01800404 	movi	r6,16
   206e8:	01400104 	movi	r5,4
   206ec:	e13ffc17 	ldw	r4,-16(fp)
   206f0:	00201d40 	call	201d4 <Write32_Data>
   206f4:	1000051e 	bne	r2,zero,2070c <OC_I2C_Write+0x184>
             printf("OC_I2C_Write error[7]\r\n");
   206f8:	010000f4 	movhi	r4,3
   206fc:	2113f004 	addi	r4,r4,20416
   20700:	00242240 	call	24224 <puts>
              return FALSE;
   20704:	0005883a 	mov	r2,zero
   20708:	00001a06 	br	20774 <OC_I2C_Write+0x1ec>
         }

         //wait TIP bit go to 0 to end Tx
          if(!ACK_check( i2c_base)){
   2070c:	e13ffc17 	ldw	r4,-16(fp)
   20710:	00205280 	call	20528 <ACK_check>
   20714:	1000051e 	bne	r2,zero,2072c <OC_I2C_Write+0x1a4>
              printf("OC_I2C_Write error[8]\r\n");
   20718:	010000f4 	movhi	r4,3
   2071c:	2113f604 	addi	r4,r4,20440
   20720:	00242240 	call	24224 <puts>
              return FALSE;
   20724:	0005883a 	mov	r2,zero
   20728:	00001206 	br	20774 <OC_I2C_Write+0x1ec>
        return FALSE;
    }
 //  printf("\n receive ACK-reg address! \n");

#if 1
        for( i=nWriteLength-1;i>=0;i--){
   2072c:	e0bffb17 	ldw	r2,-20(fp)
   20730:	10bfffc4 	addi	r2,r2,-1
   20734:	e0bffb15 	stw	r2,-20(fp)
   20738:	e0bffb17 	ldw	r2,-20(fp)
   2073c:	103fda0e 	bge	r2,zero,206a8 <__alt_data_end+0xfffe06a8>
   //wait TIP bit go to 0 to end Tx
    if(!ACK_check( i2c_base))
        return false;
#endif

     if (!Write32_Data( i2c_base, 4,0x40)){
   20740:	01801004 	movi	r6,64
   20744:	01400104 	movi	r5,4
   20748:	e13ffc17 	ldw	r4,-16(fp)
   2074c:	00201d40 	call	201d4 <Write32_Data>
   20750:	1000051e 	bne	r2,zero,20768 <OC_I2C_Write+0x1e0>
         printf("OC_I2C_Write error[9]\r\n");
   20754:	010000f4 	movhi	r4,3
   20758:	2113fc04 	addi	r4,r4,20464
   2075c:	00242240 	call	24224 <puts>
         return FALSE;
   20760:	0005883a 	mov	r2,zero
   20764:	00000306 	br	20774 <OC_I2C_Write+0x1ec>
     }
         //Sleep(10);
     //OS_msleep(1);
     usleep(SLEEP_TIME);
   20768:	01003e84 	movi	r4,250
   2076c:	00341580 	call	34158 <usleep>

  // printf("\n receive ACK-data! \n");

     return TRUE;
   20770:	00800044 	movi	r2,1

}
   20774:	e037883a 	mov	sp,fp
   20778:	dfc00117 	ldw	ra,4(sp)
   2077c:	df000017 	ldw	fp,0(sp)
   20780:	dec00204 	addi	sp,sp,8
   20784:	f800283a 	ret

00020788 <ACK_judge_for_read>:


bool ACK_judge_for_read(alt_32 i2c_base)
{
   20788:	defffb04 	addi	sp,sp,-20
   2078c:	dfc00415 	stw	ra,16(sp)
   20790:	df000315 	stw	fp,12(sp)
   20794:	df000304 	addi	fp,sp,12
   20798:	e13fff15 	stw	r4,-4(fp)
	bool bSuccess;
    alt_32 this_data;

   // OS_msleep( SLEEP_TIME );
     usleep(ACK_SLEEP_TIME);
   2079c:	01003e84 	movi	r4,250
   207a0:	00341580 	call	34158 <usleep>
    //   while(this_data & 0x02)
//   {
//      this_data =  Read32_Data ( hPCIe, i2c_base, 4);
//   }
    bSuccess =  Read32_Data ( i2c_base, 4, &this_data);
   207a4:	e0bffe04 	addi	r2,fp,-8
   207a8:	100d883a 	mov	r6,r2
   207ac:	01400104 	movi	r5,4
   207b0:	e13fff17 	ldw	r4,-4(fp)
   207b4:	002022c0 	call	2022c <Read32_Data>
   207b8:	e0bffd15 	stw	r2,-12(fp)
    if (bSuccess){
   207bc:	e0bffd17 	ldw	r2,-12(fp)
   207c0:	10000426 	beq	r2,zero,207d4 <ACK_judge_for_read+0x4c>
        if(this_data & 0x02)
   207c4:	e0bffe17 	ldw	r2,-8(fp)
   207c8:	1080008c 	andi	r2,r2,2
   207cc:	10000126 	beq	r2,zero,207d4 <ACK_judge_for_read+0x4c>
            bSuccess = FALSE;
   207d0:	e03ffd15 	stw	zero,-12(fp)
    }
   //wait the rx ACK signal 0-valid

    return bSuccess;
   207d4:	e0bffd17 	ldw	r2,-12(fp)

}
   207d8:	e037883a 	mov	sp,fp
   207dc:	dfc00117 	ldw	ra,4(sp)
   207e0:	df000017 	ldw	fp,0(sp)
   207e4:	dec00204 	addi	sp,sp,8
   207e8:	f800283a 	ret

000207ec <OC_I2C_Read>:

bool  OC_I2C_Read(alt_32 i2c_base,alt_u8 device_address,alt_u8 sub_address, alt_u8 *pData8, int nReadLength){
   207ec:	defff804 	addi	sp,sp,-32
   207f0:	dfc00715 	stw	ra,28(sp)
   207f4:	df000615 	stw	fp,24(sp)
   207f8:	df000604 	addi	fp,sp,24
   207fc:	e13ffc15 	stw	r4,-16(fp)
   20800:	2807883a 	mov	r3,r5
   20804:	3005883a 	mov	r2,r6
   20808:	e1ffff15 	stw	r7,-4(fp)
   2080c:	e0fffd05 	stb	r3,-12(fp)
   20810:	e0bffe05 	stb	r2,-8(fp)
    //BYTE data = 0x0;
    alt_32 Data32;
    int i;

   //set the tx reg audio chip dev address with write bit
   IOWR( i2c_base, 3,device_address);
   20814:	e0bffc17 	ldw	r2,-16(fp)
   20818:	10800304 	addi	r2,r2,12
   2081c:	1007883a 	mov	r3,r2
   20820:	e0bffd03 	ldbu	r2,-12(fp)
   20824:	18800035 	stwio	r2,0(r3)
   //set STA and WR bits(bit7 and bit4)
   IOWR( i2c_base, 4,0x90);
   20828:	e0bffc17 	ldw	r2,-16(fp)
   2082c:	10800404 	addi	r2,r2,16
   20830:	1007883a 	mov	r3,r2
   20834:	00802404 	movi	r2,144
   20838:	18800035 	stwio	r2,0(r3)
   //wait TIP bit go to 0 to end Tx
   if (!ACK_check( i2c_base)){
   2083c:	e13ffc17 	ldw	r4,-16(fp)
   20840:	00205280 	call	20528 <ACK_check>
   20844:	1000051e 	bne	r2,zero,2085c <OC_I2C_Read+0x70>
       printf("OC_I2C_Read error[2]\r\n");
   20848:	010000f4 	movhi	r4,3
   2084c:	21140204 	addi	r4,r4,20488
   20850:	00242240 	call	24224 <puts>
       return FALSE;
   20854:	0005883a 	mov	r2,zero
   20858:	00005206 	br	209a4 <OC_I2C_Read+0x1b8>
   }
   IOWR(i2c_base, 3,sub_address);
   2085c:	e0bffc17 	ldw	r2,-16(fp)
   20860:	10800304 	addi	r2,r2,12
   20864:	1007883a 	mov	r3,r2
   20868:	e0bffe03 	ldbu	r2,-8(fp)
   2086c:	18800035 	stwio	r2,0(r3)

   //set WR bits(bit4)
   IOWR( i2c_base, 4,0x10);
   20870:	e0bffc17 	ldw	r2,-16(fp)
   20874:	10800404 	addi	r2,r2,16
   20878:	1007883a 	mov	r3,r2
   2087c:	00800404 	movi	r2,16
   20880:	18800035 	stwio	r2,0(r3)
   //wait TIP bit go to 0 to end Tx
    if (!ACK_check( i2c_base)){
   20884:	e13ffc17 	ldw	r4,-16(fp)
   20888:	00205280 	call	20528 <ACK_check>
   2088c:	1000051e 	bne	r2,zero,208a4 <OC_I2C_Read+0xb8>
        printf("OC_I2C_Read error[5]\r\n");
   20890:	010000f4 	movhi	r4,3
   20894:	21140804 	addi	r4,r4,20512
   20898:	00242240 	call	24224 <puts>
        return FALSE;
   2089c:	0005883a 	mov	r2,zero
   208a0:	00004006 	br	209a4 <OC_I2C_Read+0x1b8>
  // printf("\n read receive ACK-reg address! \n");

   //read
    //set the tx reg audio chip dev address with read bit 1

    IOWR(i2c_base, 3,device_address|0x01);
   208a4:	e0bffc17 	ldw	r2,-16(fp)
   208a8:	10800304 	addi	r2,r2,12
   208ac:	1007883a 	mov	r3,r2
   208b0:	e0bffd03 	ldbu	r2,-12(fp)
   208b4:	10800054 	ori	r2,r2,1
   208b8:	10803fcc 	andi	r2,r2,255
   208bc:	18800035 	stwio	r2,0(r3)

   //set STA and WR bits(bit7 and bit4)
    IOWR( i2c_base, 4,0x90);
   208c0:	e0bffc17 	ldw	r2,-16(fp)
   208c4:	10800404 	addi	r2,r2,16
   208c8:	1007883a 	mov	r3,r2
   208cc:	00802404 	movi	r2,144
   208d0:	18800035 	stwio	r2,0(r3)

   //wait TIP bit go to 0 to end Tx
    if (!ACK_check( i2c_base)){
   208d4:	e13ffc17 	ldw	r4,-16(fp)
   208d8:	00205280 	call	20528 <ACK_check>
   208dc:	1000051e 	bne	r2,zero,208f4 <OC_I2C_Read+0x108>
        printf("OC_I2C_Read error[8]\r\n");
   208e0:	010000f4 	movhi	r4,3
   208e4:	21140e04 	addi	r4,r4,20536
   208e8:	00242240 	call	24224 <puts>
        return FALSE;
   208ec:	0005883a 	mov	r2,zero
   208f0:	00002c06 	br	209a4 <OC_I2C_Read+0x1b8>
    }

    for(i=0;i<nReadLength;i++){
   208f4:	e03ffa15 	stw	zero,-24(fp)
   208f8:	00001f06 	br	20978 <OC_I2C_Read+0x18c>
  // printf("\n read receive ACK-device address(read)! \n");
   //set the RD and ACK bit(bit5 and bit3)
    	IOWR( i2c_base, 4,((i+1) == nReadLength)?0x28:0x20);
   208fc:	e0bffc17 	ldw	r2,-16(fp)
   20900:	10800404 	addi	r2,r2,16
   20904:	1009883a 	mov	r4,r2
   20908:	e0bffa17 	ldw	r2,-24(fp)
   2090c:	10c00044 	addi	r3,r2,1
   20910:	e0800217 	ldw	r2,8(fp)
   20914:	1880021e 	bne	r3,r2,20920 <OC_I2C_Read+0x134>
   20918:	00800a04 	movi	r2,40
   2091c:	00000106 	br	20924 <OC_I2C_Read+0x138>
   20920:	00800804 	movi	r2,32
   20924:	20800035 	stwio	r2,0(r4)

        if (!ACK_judge_for_read( i2c_base)){
   20928:	e13ffc17 	ldw	r4,-16(fp)
   2092c:	00207880 	call	20788 <ACK_judge_for_read>
   20930:	1000051e 	bne	r2,zero,20948 <OC_I2C_Read+0x15c>
            printf("OC_I2C_Read error[10]\r\n");
   20934:	010000f4 	movhi	r4,3
   20938:	21141404 	addi	r4,r4,20560
   2093c:	00242240 	call	24224 <puts>
            return FALSE;
   20940:	0005883a 	mov	r2,zero
   20944:	00001706 	br	209a4 <OC_I2C_Read+0x1b8>
        }
   // printf("\n read receive ACK-device address(read)! \n");

        Data32=IORD( i2c_base, 3);
   20948:	e0bffc17 	ldw	r2,-16(fp)
   2094c:	10800304 	addi	r2,r2,12
   20950:	10800037 	ldwio	r2,0(r2)
   20954:	e0bffb15 	stw	r2,-20(fp)
        *(pData8+i) =  Data32 & 0xff;
   20958:	e0bffa17 	ldw	r2,-24(fp)
   2095c:	e0ffff17 	ldw	r3,-4(fp)
   20960:	1885883a 	add	r2,r3,r2
   20964:	e0fffb17 	ldw	r3,-20(fp)
   20968:	10c00005 	stb	r3,0(r2)
    if (!ACK_check( i2c_base)){
        printf("OC_I2C_Read error[8]\r\n");
        return FALSE;
    }

    for(i=0;i<nReadLength;i++){
   2096c:	e0bffa17 	ldw	r2,-24(fp)
   20970:	10800044 	addi	r2,r2,1
   20974:	e0bffa15 	stw	r2,-24(fp)
   20978:	e0fffa17 	ldw	r3,-24(fp)
   2097c:	e0800217 	ldw	r2,8(fp)
   20980:	18bfde16 	blt	r3,r2,208fc <__alt_data_end+0xfffe08fc>

        Data32=IORD( i2c_base, 3);
        *(pData8+i) =  Data32 & 0xff;
    }

    IOWR( i2c_base, 4,0x40);
   20984:	e0bffc17 	ldw	r2,-16(fp)
   20988:	10800404 	addi	r2,r2,16
   2098c:	1007883a 	mov	r3,r2
   20990:	00801004 	movi	r2,64
   20994:	18800035 	stwio	r2,0(r3)

  // Sleep(10);
   //OS_msleep(1);
    usleep(SLEEP_TIME);
   20998:	01003e84 	movi	r4,250
   2099c:	00341580 	call	34158 <usleep>
 //  printf(" Read  [%02X] = %02Xh\r\n", sub_address, data);


   return TRUE;
   209a0:	00800044 	movi	r2,1

}
   209a4:	e037883a 	mov	sp,fp
   209a8:	dfc00117 	ldw	ra,4(sp)
   209ac:	df000017 	ldw	fp,0(sp)
   209b0:	dec00204 	addi	sp,sp,8
   209b4:	f800283a 	ret

000209b8 <OC_I2C_Read_Continue>:


bool  OC_I2C_Read_Continue(alt_32 i2c_base,alt_u8 device_address, alt_u8 *pData8, int nReadLength){
   209b8:	defff804 	addi	sp,sp,-32
   209bc:	dfc00715 	stw	ra,28(sp)
   209c0:	df000615 	stw	fp,24(sp)
   209c4:	df000604 	addi	fp,sp,24
   209c8:	e13ffc15 	stw	r4,-16(fp)
   209cc:	2805883a 	mov	r2,r5
   209d0:	e1bffe15 	stw	r6,-8(fp)
   209d4:	e1ffff15 	stw	r7,-4(fp)
   209d8:	e0bffd05 	stb	r2,-12(fp)
	int i;
	alt_u32 Data32;

    IOWR(i2c_base, 3,device_address|0x01);
   209dc:	e0bffc17 	ldw	r2,-16(fp)
   209e0:	10800304 	addi	r2,r2,12
   209e4:	1007883a 	mov	r3,r2
   209e8:	e0bffd03 	ldbu	r2,-12(fp)
   209ec:	10800054 	ori	r2,r2,1
   209f0:	10803fcc 	andi	r2,r2,255
   209f4:	18800035 	stwio	r2,0(r3)

   //set STA and WR bits(bit7 and bit4)
    IOWR( i2c_base, 4,0x90);
   209f8:	e0bffc17 	ldw	r2,-16(fp)
   209fc:	10800404 	addi	r2,r2,16
   20a00:	1007883a 	mov	r3,r2
   20a04:	00802404 	movi	r2,144
   20a08:	18800035 	stwio	r2,0(r3)
//usleep(5*1000);
   //wait TIP bit go to 0 to end Tx
    if (!ACK_check( i2c_base)){
   20a0c:	e13ffc17 	ldw	r4,-16(fp)
   20a10:	00205280 	call	20528 <ACK_check>
   20a14:	1000051e 	bne	r2,zero,20a2c <OC_I2C_Read_Continue+0x74>
        printf("OC_I2C_Read error[8]\r\n");
   20a18:	010000f4 	movhi	r4,3
   20a1c:	21140e04 	addi	r4,r4,20536
   20a20:	00242240 	call	24224 <puts>
        return FALSE;
   20a24:	0005883a 	mov	r2,zero
   20a28:	00002c06 	br	20adc <OC_I2C_Read_Continue+0x124>
    }

    for(i=0;i<nReadLength;i++){
   20a2c:	e03ffa15 	stw	zero,-24(fp)
   20a30:	00001f06 	br	20ab0 <OC_I2C_Read_Continue+0xf8>
  // printf("\n read receive ACK-device address(read)! \n");
   //set the RD and ACK bit(bit5 and bit3)
    	IOWR( i2c_base, 4,((i+1) == nReadLength)?0x28:0x20);
   20a34:	e0bffc17 	ldw	r2,-16(fp)
   20a38:	10800404 	addi	r2,r2,16
   20a3c:	1009883a 	mov	r4,r2
   20a40:	e0bffa17 	ldw	r2,-24(fp)
   20a44:	10c00044 	addi	r3,r2,1
   20a48:	e0bfff17 	ldw	r2,-4(fp)
   20a4c:	1880021e 	bne	r3,r2,20a58 <OC_I2C_Read_Continue+0xa0>
   20a50:	00800a04 	movi	r2,40
   20a54:	00000106 	br	20a5c <OC_I2C_Read_Continue+0xa4>
   20a58:	00800804 	movi	r2,32
   20a5c:	20800035 	stwio	r2,0(r4)

        if (!ACK_judge_for_read( i2c_base)){
   20a60:	e13ffc17 	ldw	r4,-16(fp)
   20a64:	00207880 	call	20788 <ACK_judge_for_read>
   20a68:	1000051e 	bne	r2,zero,20a80 <OC_I2C_Read_Continue+0xc8>
            printf("OC_I2C_Read error[10]\r\n");
   20a6c:	010000f4 	movhi	r4,3
   20a70:	21141404 	addi	r4,r4,20560
   20a74:	00242240 	call	24224 <puts>
            return FALSE;
   20a78:	0005883a 	mov	r2,zero
   20a7c:	00001706 	br	20adc <OC_I2C_Read_Continue+0x124>
        }
   // printf("\n read receive ACK-device address(read)! \n");

        Data32=IORD( i2c_base, 3);
   20a80:	e0bffc17 	ldw	r2,-16(fp)
   20a84:	10800304 	addi	r2,r2,12
   20a88:	10800037 	ldwio	r2,0(r2)
   20a8c:	e0bffb15 	stw	r2,-20(fp)
        *(pData8+i) =  Data32 & 0xff;
   20a90:	e0bffa17 	ldw	r2,-24(fp)
   20a94:	e0fffe17 	ldw	r3,-8(fp)
   20a98:	1885883a 	add	r2,r3,r2
   20a9c:	e0fffb17 	ldw	r3,-20(fp)
   20aa0:	10c00005 	stb	r3,0(r2)
    if (!ACK_check( i2c_base)){
        printf("OC_I2C_Read error[8]\r\n");
        return FALSE;
    }

    for(i=0;i<nReadLength;i++){
   20aa4:	e0bffa17 	ldw	r2,-24(fp)
   20aa8:	10800044 	addi	r2,r2,1
   20aac:	e0bffa15 	stw	r2,-24(fp)
   20ab0:	e0fffa17 	ldw	r3,-24(fp)
   20ab4:	e0bfff17 	ldw	r2,-4(fp)
   20ab8:	18bfde16 	blt	r3,r2,20a34 <__alt_data_end+0xfffe0a34>

        Data32=IORD( i2c_base, 3);
        *(pData8+i) =  Data32 & 0xff;
    }

    IOWR( i2c_base, 4,0x40);
   20abc:	e0bffc17 	ldw	r2,-16(fp)
   20ac0:	10800404 	addi	r2,r2,16
   20ac4:	1007883a 	mov	r3,r2
   20ac8:	00801004 	movi	r2,64
   20acc:	18800035 	stwio	r2,0(r3)

  // Sleep(10);
   //OS_msleep(1);
    usleep(SLEEP_TIME);
   20ad0:	01003e84 	movi	r4,250
   20ad4:	00341580 	call	34158 <usleep>
 //  printf(" Read  [%02X] = %02Xh\r\n", sub_address, data);


   return TRUE;
   20ad8:	00800044 	movi	r2,1

}
   20adc:	e037883a 	mov	sp,fp
   20ae0:	dfc00117 	ldw	ra,4(sp)
   20ae4:	df000017 	ldw	fp,0(sp)
   20ae8:	dec00204 	addi	sp,sp,8
   20aec:	f800283a 	ret

00020af0 <OC_I2CL_Write>:


//  size > 2Kb
bool  OC_I2CL_Write(alt_32 i2c_base,alt_u8 device_address,alt_u16 sub_address,alt_u8 *pData, int nWriteLength)
    {
   20af0:	defff804 	addi	sp,sp,-32
   20af4:	dfc00715 	stw	ra,28(sp)
   20af8:	df000615 	stw	fp,24(sp)
   20afc:	df000604 	addi	fp,sp,24
   20b00:	e13ffc15 	stw	r4,-16(fp)
   20b04:	2807883a 	mov	r3,r5
   20b08:	3005883a 	mov	r2,r6
   20b0c:	e1ffff15 	stw	r7,-4(fp)
   20b10:	e0fffd05 	stb	r3,-12(fp)
   20b14:	e0bffe0d 	sth	r2,-8(fp)
    //DWORD reg_data = 0x0;
	alt_u8 AddrHigh, AddrLow;
    //int count= 0;

    AddrHigh = (sub_address >> 8) & 0xFF;
   20b18:	e0bffe0b 	ldhu	r2,-8(fp)
   20b1c:	1004d23a 	srli	r2,r2,8
   20b20:	e0bffb05 	stb	r2,-20(fp)
    AddrLow  = sub_address & 0xFF;
   20b24:	e0bffe0b 	ldhu	r2,-8(fp)
   20b28:	e0bffb45 	stb	r2,-19(fp)

    int i;

    //set the tx reg audio chip dev address with write bit
   if (!Write32_Data( i2c_base, 3,device_address))
   20b2c:	e0bffd03 	ldbu	r2,-12(fp)
   20b30:	100d883a 	mov	r6,r2
   20b34:	014000c4 	movi	r5,3
   20b38:	e13ffc17 	ldw	r4,-16(fp)
   20b3c:	00201d40 	call	201d4 <Write32_Data>
   20b40:	1000021e 	bne	r2,zero,20b4c <OC_I2CL_Write+0x5c>
       return FALSE;
   20b44:	0005883a 	mov	r2,zero
   20b48:	00006806 	br	20cec <OC_I2CL_Write+0x1fc>
   //set STA and WR bits(bit7 and bit4)
   if (!Write32_Data( i2c_base, 4,0x90))//0x90
   20b4c:	01802404 	movi	r6,144
   20b50:	01400104 	movi	r5,4
   20b54:	e13ffc17 	ldw	r4,-16(fp)
   20b58:	00201d40 	call	201d4 <Write32_Data>
   20b5c:	1000021e 	bne	r2,zero,20b68 <OC_I2CL_Write+0x78>
       return FALSE;
   20b60:	0005883a 	mov	r2,zero
   20b64:	00006106 	br	20cec <OC_I2CL_Write+0x1fc>

   //wait TIP bit go to 0 to end Tx
    if(!ACK_check( i2c_base)){
   20b68:	e13ffc17 	ldw	r4,-16(fp)
   20b6c:	00205280 	call	20528 <ACK_check>
   20b70:	1000051e 	bne	r2,zero,20b88 <OC_I2CL_Write+0x98>
        printf("OC_I2CL_Write error[0]\r\n");
   20b74:	010000f4 	movhi	r4,3
   20b78:	21141a04 	addi	r4,r4,20584
   20b7c:	00242240 	call	24224 <puts>
        return FALSE;
   20b80:	0005883a 	mov	r2,zero
   20b84:	00005906 	br	20cec <OC_I2CL_Write+0x1fc>
  // printf("\n receive ACK-device address! \n");

   //set the txr reg data with reg address + 1 data MSB
 //  reg_data  = (sub_address << 1) & 0xFE;
   //reg_data |= ((data >> 8) & 0x01);
   if (!Write32_Data( i2c_base, 3,AddrHigh))//reg_data&0xff);
   20b88:	e0bffb03 	ldbu	r2,-20(fp)
   20b8c:	100d883a 	mov	r6,r2
   20b90:	014000c4 	movi	r5,3
   20b94:	e13ffc17 	ldw	r4,-16(fp)
   20b98:	00201d40 	call	201d4 <Write32_Data>
   20b9c:	1000021e 	bne	r2,zero,20ba8 <OC_I2CL_Write+0xb8>
       return FALSE;
   20ba0:	0005883a 	mov	r2,zero
   20ba4:	00005106 	br	20cec <OC_I2CL_Write+0x1fc>

   //set WR bits(bit4)
    if (!Write32_Data( i2c_base, 4,0x10))
   20ba8:	01800404 	movi	r6,16
   20bac:	01400104 	movi	r5,4
   20bb0:	e13ffc17 	ldw	r4,-16(fp)
   20bb4:	00201d40 	call	201d4 <Write32_Data>
   20bb8:	1000021e 	bne	r2,zero,20bc4 <OC_I2CL_Write+0xd4>
        return FALSE;
   20bbc:	0005883a 	mov	r2,zero
   20bc0:	00004a06 	br	20cec <OC_I2CL_Write+0x1fc>

   //wait TIP bit go to 0 to end Tx
    if(!ACK_check( i2c_base)){
   20bc4:	e13ffc17 	ldw	r4,-16(fp)
   20bc8:	00205280 	call	20528 <ACK_check>
   20bcc:	1000051e 	bne	r2,zero,20be4 <OC_I2CL_Write+0xf4>
        printf("OC_I2CL_Write error[1]\r\n");
   20bd0:	010000f4 	movhi	r4,3
   20bd4:	21142004 	addi	r4,r4,20608
   20bd8:	00242240 	call	24224 <puts>
        return FALSE;
   20bdc:	0005883a 	mov	r2,zero
   20be0:	00004206 	br	20cec <OC_I2CL_Write+0x1fc>
    }
  // printf("\n receive ACK-reg high address! \n");

   //set the txr reg data with reg address + 1 data MSB
   if (!Write32_Data( i2c_base, 3,AddrLow))//reg_data&0xff);
   20be4:	e0bffb43 	ldbu	r2,-19(fp)
   20be8:	100d883a 	mov	r6,r2
   20bec:	014000c4 	movi	r5,3
   20bf0:	e13ffc17 	ldw	r4,-16(fp)
   20bf4:	00201d40 	call	201d4 <Write32_Data>
   20bf8:	1000021e 	bne	r2,zero,20c04 <OC_I2CL_Write+0x114>
       return FALSE;
   20bfc:	0005883a 	mov	r2,zero
   20c00:	00003a06 	br	20cec <OC_I2CL_Write+0x1fc>

   //set WR bits(bit4)
    Write32_Data( i2c_base, 4,0x10);
   20c04:	01800404 	movi	r6,16
   20c08:	01400104 	movi	r5,4
   20c0c:	e13ffc17 	ldw	r4,-16(fp)
   20c10:	00201d40 	call	201d4 <Write32_Data>

   //wait TIP bit go to 0 to end Tx
    if(!ACK_check( i2c_base)){
   20c14:	e13ffc17 	ldw	r4,-16(fp)
   20c18:	00205280 	call	20528 <ACK_check>
   20c1c:	1000051e 	bne	r2,zero,20c34 <OC_I2CL_Write+0x144>
        printf("OC_I2CL_Write error[2]\r\n");
   20c20:	010000f4 	movhi	r4,3
   20c24:	21142604 	addi	r4,r4,20632
   20c28:	00242240 	call	24224 <puts>
        return FALSE;
   20c2c:	0005883a 	mov	r2,zero
   20c30:	00002e06 	br	20cec <OC_I2CL_Write+0x1fc>
    }
  //  printf("\n receive ACK-reg low address! \n");

#if 1
    for( i=nWriteLength-1;i>=0;i--){
   20c34:	e0800217 	ldw	r2,8(fp)
   20c38:	10bfffc4 	addi	r2,r2,-1
   20c3c:	e0bffa15 	stw	r2,-24(fp)
   20c40:	00001e06 	br	20cbc <OC_I2CL_Write+0x1cc>
        //set the txr reg data with the other data 8 bit LSB
        if (!Write32_Data( i2c_base, 3,*(pData+i)))
   20c44:	e0bffa17 	ldw	r2,-24(fp)
   20c48:	e0ffff17 	ldw	r3,-4(fp)
   20c4c:	1885883a 	add	r2,r3,r2
   20c50:	10800003 	ldbu	r2,0(r2)
   20c54:	10803fcc 	andi	r2,r2,255
   20c58:	100d883a 	mov	r6,r2
   20c5c:	014000c4 	movi	r5,3
   20c60:	e13ffc17 	ldw	r4,-16(fp)
   20c64:	00201d40 	call	201d4 <Write32_Data>
   20c68:	1000021e 	bne	r2,zero,20c74 <OC_I2CL_Write+0x184>
            return FALSE;
   20c6c:	0005883a 	mov	r2,zero
   20c70:	00001e06 	br	20cec <OC_I2CL_Write+0x1fc>

       //set STO and WR bits(bit7 and bit4)
        if (!Write32_Data( i2c_base, 4,0x10))
   20c74:	01800404 	movi	r6,16
   20c78:	01400104 	movi	r5,4
   20c7c:	e13ffc17 	ldw	r4,-16(fp)
   20c80:	00201d40 	call	201d4 <Write32_Data>
   20c84:	1000021e 	bne	r2,zero,20c90 <OC_I2CL_Write+0x1a0>
            return FALSE;
   20c88:	0005883a 	mov	r2,zero
   20c8c:	00001706 	br	20cec <OC_I2CL_Write+0x1fc>

        //wait TIP bit go to 0 to end Tx
         if(!ACK_check( i2c_base)){
   20c90:	e13ffc17 	ldw	r4,-16(fp)
   20c94:	00205280 	call	20528 <ACK_check>
   20c98:	1000051e 	bne	r2,zero,20cb0 <OC_I2CL_Write+0x1c0>
             printf("OC_I2CL_Write error[3]\r\n");
   20c9c:	010000f4 	movhi	r4,3
   20ca0:	21142c04 	addi	r4,r4,20656
   20ca4:	00242240 	call	24224 <puts>
             return FALSE;
   20ca8:	0005883a 	mov	r2,zero
   20cac:	00000f06 	br	20cec <OC_I2CL_Write+0x1fc>
        return FALSE;
    }
  //  printf("\n receive ACK-reg low address! \n");

#if 1
    for( i=nWriteLength-1;i>=0;i--){
   20cb0:	e0bffa17 	ldw	r2,-24(fp)
   20cb4:	10bfffc4 	addi	r2,r2,-1
   20cb8:	e0bffa15 	stw	r2,-24(fp)
   20cbc:	e0bffa17 	ldw	r2,-24(fp)
   20cc0:	103fe00e 	bge	r2,zero,20c44 <__alt_data_end+0xfffe0c44>
   //wait TIP bit go to 0 to end Tx
    if(!ACK_check( i2c_base))
        return FALSE;

#endif
    if (!Write32_Data( i2c_base, 4,0x40))
   20cc4:	01801004 	movi	r6,64
   20cc8:	01400104 	movi	r5,4
   20ccc:	e13ffc17 	ldw	r4,-16(fp)
   20cd0:	00201d40 	call	201d4 <Write32_Data>
   20cd4:	1000021e 	bne	r2,zero,20ce0 <OC_I2CL_Write+0x1f0>
         return FALSE;
   20cd8:	0005883a 	mov	r2,zero
   20cdc:	00000306 	br	20cec <OC_I2CL_Write+0x1fc>

     //OS_msleep(1);
      usleep(SLEEP_TIME);
   20ce0:	01003e84 	movi	r4,250
   20ce4:	00341580 	call	34158 <usleep>
  //  printf("\n receive ACK-data! \n");

     return TRUE;
   20ce8:	00800044 	movi	r2,1
}
   20cec:	e037883a 	mov	sp,fp
   20cf0:	dfc00117 	ldw	ra,4(sp)
   20cf4:	df000017 	ldw	fp,0(sp)
   20cf8:	dec00204 	addi	sp,sp,8
   20cfc:	f800283a 	ret

00020d00 <OC_I2CL_Read>:

   return TRUE;

} */

bool  OC_I2CL_Read(alt_32 i2c_base,alt_u8 device_address, alt_u16 sub_address, alt_u8 *pData8, int nReadLength){
   20d00:	defff704 	addi	sp,sp,-36
   20d04:	dfc00815 	stw	ra,32(sp)
   20d08:	df000715 	stw	fp,28(sp)
   20d0c:	df000704 	addi	fp,sp,28
   20d10:	e13ffc15 	stw	r4,-16(fp)
   20d14:	2807883a 	mov	r3,r5
   20d18:	3005883a 	mov	r2,r6
   20d1c:	e1ffff15 	stw	r7,-4(fp)
   20d20:	e0fffd05 	stb	r3,-12(fp)
   20d24:	e0bffe0d 	sth	r2,-8(fp)
    int i;

    alt_u8 AddrHigh, AddrLow;
    alt_u8 DataHigh, DataLow;

    AddrHigh = (sub_address >> 8) & 0xFF;
   20d28:	e0bffe0b 	ldhu	r2,-8(fp)
   20d2c:	1004d23a 	srli	r2,r2,8
   20d30:	e0bffa05 	stb	r2,-24(fp)
    AddrLow  = sub_address & 0xFF;
   20d34:	e0bffe0b 	ldhu	r2,-8(fp)
   20d38:	e0bffa45 	stb	r2,-23(fp)


   //set the tx reg audio chip dev address with write bit
   if (!Write32_Data( i2c_base, 3,device_address))
   20d3c:	e0bffd03 	ldbu	r2,-12(fp)
   20d40:	100d883a 	mov	r6,r2
   20d44:	014000c4 	movi	r5,3
   20d48:	e13ffc17 	ldw	r4,-16(fp)
   20d4c:	00201d40 	call	201d4 <Write32_Data>
   20d50:	1000021e 	bne	r2,zero,20d5c <OC_I2CL_Read+0x5c>
       return FALSE;
   20d54:	0005883a 	mov	r2,zero
   20d58:	00008406 	br	20f6c <OC_I2CL_Read+0x26c>

   //set STA and WR bits(bit7 and bit4)
   if (!Write32_Data( i2c_base, 4,0x90))
   20d5c:	01802404 	movi	r6,144
   20d60:	01400104 	movi	r5,4
   20d64:	e13ffc17 	ldw	r4,-16(fp)
   20d68:	00201d40 	call	201d4 <Write32_Data>
   20d6c:	1000021e 	bne	r2,zero,20d78 <OC_I2CL_Read+0x78>
       return FALSE;
   20d70:	0005883a 	mov	r2,zero
   20d74:	00007d06 	br	20f6c <OC_I2CL_Read+0x26c>

   //wait TIP bit go to 0 to end Tx
    if(!ACK_check( i2c_base)){
   20d78:	e13ffc17 	ldw	r4,-16(fp)
   20d7c:	00205280 	call	20528 <ACK_check>
   20d80:	1000051e 	bne	r2,zero,20d98 <OC_I2CL_Read+0x98>
        printf("OC_I2CL_Read error[0]\r\n");
   20d84:	010000f4 	movhi	r4,3
   20d88:	21143204 	addi	r4,r4,20680
   20d8c:	00242240 	call	24224 <puts>
        return FALSE;
   20d90:	0005883a 	mov	r2,zero
   20d94:	00007506 	br	20f6c <OC_I2CL_Read+0x26c>
 //  printf("\n receive ACK-device address! \n");


   //set the txr reg data with reg address + 0

   if (!Write32_Data( i2c_base, 3,AddrHigh))//reg_data&0xff);
   20d98:	e0bffa03 	ldbu	r2,-24(fp)
   20d9c:	100d883a 	mov	r6,r2
   20da0:	014000c4 	movi	r5,3
   20da4:	e13ffc17 	ldw	r4,-16(fp)
   20da8:	00201d40 	call	201d4 <Write32_Data>
   20dac:	1000021e 	bne	r2,zero,20db8 <OC_I2CL_Read+0xb8>
       return FALSE;
   20db0:	0005883a 	mov	r2,zero
   20db4:	00006d06 	br	20f6c <OC_I2CL_Read+0x26c>

   //set WR bits(bit4)
    if (!Write32_Data( i2c_base, 4,0x10))
   20db8:	01800404 	movi	r6,16
   20dbc:	01400104 	movi	r5,4
   20dc0:	e13ffc17 	ldw	r4,-16(fp)
   20dc4:	00201d40 	call	201d4 <Write32_Data>
   20dc8:	1000021e 	bne	r2,zero,20dd4 <OC_I2CL_Read+0xd4>
        return FALSE;
   20dcc:	0005883a 	mov	r2,zero
   20dd0:	00006606 	br	20f6c <OC_I2CL_Read+0x26c>

   //wait TIP bit go to 0 to end Tx
    if(!ACK_check( i2c_base)){
   20dd4:	e13ffc17 	ldw	r4,-16(fp)
   20dd8:	00205280 	call	20528 <ACK_check>
   20ddc:	1000051e 	bne	r2,zero,20df4 <OC_I2CL_Read+0xf4>
        printf("OC_I2CL_Read error[1]\r\n");
   20de0:	010000f4 	movhi	r4,3
   20de4:	21143804 	addi	r4,r4,20704
   20de8:	00242240 	call	24224 <puts>
        return FALSE;
   20dec:	0005883a 	mov	r2,zero
   20df0:	00005e06 	br	20f6c <OC_I2CL_Read+0x26c>
    }
//   printf("\n read receive ACK-reg High address! \n");

     //set the txr reg data with reg address + 0
   if (!Write32_Data( i2c_base, 3,AddrLow)) //;//reg_data&0xff);
   20df4:	e0bffa43 	ldbu	r2,-23(fp)
   20df8:	100d883a 	mov	r6,r2
   20dfc:	014000c4 	movi	r5,3
   20e00:	e13ffc17 	ldw	r4,-16(fp)
   20e04:	00201d40 	call	201d4 <Write32_Data>
   20e08:	1000021e 	bne	r2,zero,20e14 <OC_I2CL_Read+0x114>
       return FALSE;
   20e0c:	0005883a 	mov	r2,zero
   20e10:	00005606 	br	20f6c <OC_I2CL_Read+0x26c>
   //set WR bits(bit4)
    if (!Write32_Data( i2c_base, 4,0x10))
   20e14:	01800404 	movi	r6,16
   20e18:	01400104 	movi	r5,4
   20e1c:	e13ffc17 	ldw	r4,-16(fp)
   20e20:	00201d40 	call	201d4 <Write32_Data>
   20e24:	1000021e 	bne	r2,zero,20e30 <OC_I2CL_Read+0x130>
        return FALSE;
   20e28:	0005883a 	mov	r2,zero
   20e2c:	00004f06 	br	20f6c <OC_I2CL_Read+0x26c>

   //wait TIP bit go to 0 to end Tx
    if(!ACK_check( i2c_base)){
   20e30:	e13ffc17 	ldw	r4,-16(fp)
   20e34:	00205280 	call	20528 <ACK_check>
   20e38:	1000051e 	bne	r2,zero,20e50 <OC_I2CL_Read+0x150>
        printf("OC_I2CL_Read error[2]\r\n");
   20e3c:	010000f4 	movhi	r4,3
   20e40:	21143e04 	addi	r4,r4,20728
   20e44:	00242240 	call	24224 <puts>
        return FALSE;
   20e48:	0005883a 	mov	r2,zero
   20e4c:	00004706 	br	20f6c <OC_I2CL_Read+0x26c>

 //  printf("\n read receive ACK-reg Low address! \n");

   //read
    //set the tx reg audio chip dev address with read bit 1
     if (!Write32_Data( i2c_base, 3,device_address|0x01))
   20e50:	e0bffd03 	ldbu	r2,-12(fp)
   20e54:	10800054 	ori	r2,r2,1
   20e58:	10803fcc 	andi	r2,r2,255
   20e5c:	100d883a 	mov	r6,r2
   20e60:	014000c4 	movi	r5,3
   20e64:	e13ffc17 	ldw	r4,-16(fp)
   20e68:	00201d40 	call	201d4 <Write32_Data>
   20e6c:	1000021e 	bne	r2,zero,20e78 <OC_I2CL_Read+0x178>
         return FALSE;
   20e70:	0005883a 	mov	r2,zero
   20e74:	00003d06 	br	20f6c <OC_I2CL_Read+0x26c>

   //set STA and WR bits(bit7 and bit4)
     if (!Write32_Data( i2c_base, 4,0x90))
   20e78:	01802404 	movi	r6,144
   20e7c:	01400104 	movi	r5,4
   20e80:	e13ffc17 	ldw	r4,-16(fp)
   20e84:	00201d40 	call	201d4 <Write32_Data>
   20e88:	1000021e 	bne	r2,zero,20e94 <OC_I2CL_Read+0x194>
         return FALSE;
   20e8c:	0005883a 	mov	r2,zero
   20e90:	00003606 	br	20f6c <OC_I2CL_Read+0x26c>

   //wait TIP bit go to 0 to end Tx
    if(!ACK_check( i2c_base)){
   20e94:	e13ffc17 	ldw	r4,-16(fp)
   20e98:	00205280 	call	20528 <ACK_check>
   20e9c:	1000051e 	bne	r2,zero,20eb4 <OC_I2CL_Read+0x1b4>
        printf("OC_I2CL_Read error[3]\r\n");
   20ea0:	010000f4 	movhi	r4,3
   20ea4:	21144404 	addi	r4,r4,20752
   20ea8:	00242240 	call	24224 <puts>
        return FALSE;
   20eac:	0005883a 	mov	r2,zero
   20eb0:	00002e06 	br	20f6c <OC_I2CL_Read+0x26c>
//   printf("\n read receive ACK-device address(read)! \n");

       //read the rxr data

#if 1
    for(i=0;i<nReadLength;i++){
   20eb4:	e03ff915 	stw	zero,-28(fp)
   20eb8:	00001f06 	br	20f38 <OC_I2CL_Read+0x238>
  // printf("\n read receive ACK-device address(read)! \n");
   //set the RD and ACK bit(bit5 and bit3)
    	IOWR( i2c_base, 4,((i+1) == nReadLength)?0x28:0x20);
   20ebc:	e0bffc17 	ldw	r2,-16(fp)
   20ec0:	10800404 	addi	r2,r2,16
   20ec4:	1009883a 	mov	r4,r2
   20ec8:	e0bff917 	ldw	r2,-28(fp)
   20ecc:	10c00044 	addi	r3,r2,1
   20ed0:	e0800217 	ldw	r2,8(fp)
   20ed4:	1880021e 	bne	r3,r2,20ee0 <OC_I2CL_Read+0x1e0>
   20ed8:	00800a04 	movi	r2,40
   20edc:	00000106 	br	20ee4 <OC_I2CL_Read+0x1e4>
   20ee0:	00800804 	movi	r2,32
   20ee4:	20800035 	stwio	r2,0(r4)

        if (!ACK_judge_for_read( i2c_base)){
   20ee8:	e13ffc17 	ldw	r4,-16(fp)
   20eec:	00207880 	call	20788 <ACK_judge_for_read>
   20ef0:	1000051e 	bne	r2,zero,20f08 <OC_I2CL_Read+0x208>
            printf("OC_I2CL_Read error[4]\r\n");
   20ef4:	010000f4 	movhi	r4,3
   20ef8:	21144a04 	addi	r4,r4,20776
   20efc:	00242240 	call	24224 <puts>
            return FALSE;
   20f00:	0005883a 	mov	r2,zero
   20f04:	00001906 	br	20f6c <OC_I2CL_Read+0x26c>
        }
   // printf("\n read receive ACK-device address(read)! \n");

        Data32=IORD( i2c_base, 3);
   20f08:	e0bffc17 	ldw	r2,-16(fp)
   20f0c:	10800304 	addi	r2,r2,12
   20f10:	10800037 	ldwio	r2,0(r2)
   20f14:	e0bffb15 	stw	r2,-20(fp)
        *(pData8+i) =  Data32 & 0xff;
   20f18:	e0bff917 	ldw	r2,-28(fp)
   20f1c:	e0ffff17 	ldw	r3,-4(fp)
   20f20:	1885883a 	add	r2,r3,r2
   20f24:	e0fffb17 	ldw	r3,-20(fp)
   20f28:	10c00005 	stb	r3,0(r2)
//   printf("\n read receive ACK-device address(read)! \n");

       //read the rxr data

#if 1
    for(i=0;i<nReadLength;i++){
   20f2c:	e0bff917 	ldw	r2,-28(fp)
   20f30:	10800044 	addi	r2,r2,1
   20f34:	e0bff915 	stw	r2,-28(fp)
   20f38:	e0fff917 	ldw	r3,-28(fp)
   20f3c:	e0800217 	ldw	r2,8(fp)
   20f40:	18bfde16 	blt	r3,r2,20ebc <__alt_data_end+0xfffe0ebc>
    DataLow =  Data32 & 0xff;

    pData16 = (DataHigh << 8) | DataLow;
#endif

   if (!Write32_Data( i2c_base, 4,0x40))
   20f44:	01801004 	movi	r6,64
   20f48:	01400104 	movi	r5,4
   20f4c:	e13ffc17 	ldw	r4,-16(fp)
   20f50:	00201d40 	call	201d4 <Write32_Data>
   20f54:	1000021e 	bne	r2,zero,20f60 <OC_I2CL_Read+0x260>
       return FALSE;
   20f58:	0005883a 	mov	r2,zero
   20f5c:	00000306 	br	20f6c <OC_I2CL_Read+0x26c>

   //OS_msleep(1);
    usleep(SLEEP_TIME);
   20f60:	01003e84 	movi	r4,250
   20f64:	00341580 	call	34158 <usleep>

   return TRUE;
   20f68:	00800044 	movi	r2,1

}
   20f6c:	e037883a 	mov	sp,fp
   20f70:	dfc00117 	ldw	ra,4(sp)
   20f74:	df000017 	ldw	fp,0(sp)
   20f78:	dec00204 	addi	sp,sp,8
   20f7c:	f800283a 	ret

00020f80 <Focus_Init>:
// please observe focus performance when change the scal ,scal_f. or when change camera frame rate
alt_u8  focus_scal   =   4;  // scan 0 -> 1023 , step: SCAL , to find STEP_UP
alt_u8  focus_scal_f =   1;  //  scan STEP_UP + - SCAL/2 , step: SCAL_F
alt_u8  focus_th     =   20;

void Focus_Init(void){
   20f80:	defffe04 	addi	sp,sp,-8
   20f84:	dfc00115 	stw	ra,4(sp)
   20f88:	df000015 	stw	fp,0(sp)
   20f8c:	d839883a 	mov	fp,sp
  // please look at TERASIC_AUTO_FOCUS IP to see register's detail.
  IOWR(TERASIC_AUTO_FOCUS_0_BASE,REG_CTRL, 0);// focus mode : 1: window-screen, 0: full-screen
   20f90:	0007883a 	mov	r3,zero
   20f94:	00800134 	movhi	r2,4
   20f98:	10840904 	addi	r2,r2,4132
   20f9c:	10c00035 	stwio	r3,0(r2)
  IOWR(TERASIC_AUTO_FOCUS_0_BASE,REG_FOCUS_W, focus_width);// focus_width
   20fa0:	d0a0010b 	ldhu	r2,-32764(gp)
   20fa4:	10ffffcc 	andi	r3,r2,65535
   20fa8:	00800134 	movhi	r2,4
   20fac:	10840a04 	addi	r2,r2,4136
   20fb0:	10c00035 	stwio	r3,0(r2)
  IOWR(TERASIC_AUTO_FOCUS_0_BASE,REG_FOCUS_H, focus_height);// focus_height
   20fb4:	d0a0018b 	ldhu	r2,-32762(gp)
   20fb8:	10ffffcc 	andi	r3,r2,65535
   20fbc:	00800134 	movhi	r2,4
   20fc0:	10840b04 	addi	r2,r2,4140
   20fc4:	10c00035 	stwio	r3,0(r2)
  IOWR(TERASIC_AUTO_FOCUS_0_BASE,REG_FOCUS_X_START, video_w/2-focus_width/2);//x_start
   20fc8:	d0a0000b 	ldhu	r2,-32768(gp)
   20fcc:	10bfffcc 	andi	r2,r2,65535
   20fd0:	1004d07a 	srli	r2,r2,1
   20fd4:	10ffffcc 	andi	r3,r2,65535
   20fd8:	d0a0010b 	ldhu	r2,-32764(gp)
   20fdc:	10bfffcc 	andi	r2,r2,65535
   20fe0:	1004d07a 	srli	r2,r2,1
   20fe4:	10bfffcc 	andi	r2,r2,65535
   20fe8:	1887c83a 	sub	r3,r3,r2
   20fec:	00800134 	movhi	r2,4
   20ff0:	10840c04 	addi	r2,r2,4144
   20ff4:	10c00035 	stwio	r3,0(r2)
  IOWR(TERASIC_AUTO_FOCUS_0_BASE,REG_FOCUS_Y_START, video_h/2-focus_height/2);// y_start
   20ff8:	d0a0008b 	ldhu	r2,-32766(gp)
   20ffc:	10bfffcc 	andi	r2,r2,65535
   21000:	1004d07a 	srli	r2,r2,1
   21004:	10ffffcc 	andi	r3,r2,65535
   21008:	d0a0018b 	ldhu	r2,-32762(gp)
   2100c:	10bfffcc 	andi	r2,r2,65535
   21010:	1004d07a 	srli	r2,r2,1
   21014:	10bfffcc 	andi	r2,r2,65535
   21018:	1887c83a 	sub	r3,r3,r2
   2101c:	00800134 	movhi	r2,4
   21020:	10840d04 	addi	r2,r2,4148
   21024:	10c00035 	stwio	r3,0(r2)

  IOWR(TERASIC_AUTO_FOCUS_0_BASE,REG_SCAL, focus_scal*256 + focus_scal_f); // scan 0 -> 1023 , step: SCAL , to find STEP_UP
   21028:	d0a00203 	ldbu	r2,-32760(gp)
   2102c:	10803fcc 	andi	r2,r2,255
   21030:	1006923a 	slli	r3,r2,8
   21034:	d0a00243 	ldbu	r2,-32759(gp)
   21038:	10803fcc 	andi	r2,r2,255
   2103c:	1887883a 	add	r3,r3,r2
   21040:	00800134 	movhi	r2,4
   21044:	10840e04 	addi	r2,r2,4152
   21048:	10c00035 	stwio	r3,0(r2)
                                                                          //  scan STEP_UP + - SCAL/2 , step: SCAL_F
  IOWR(TERASIC_AUTO_FOCUS_0_BASE,REG_TH, focus_th);
   2104c:	d0a00283 	ldbu	r2,-32758(gp)
   21050:	10c03fcc 	andi	r3,r2,255
   21054:	00800134 	movhi	r2,4
   21058:	10840f04 	addi	r2,r2,4156
   2105c:	10c00035 	stwio	r3,0(r2)

  //////////// focus at initial time
  usleep(100);
   21060:	01001904 	movi	r4,100
   21064:	00341580 	call	34158 <usleep>
  IOWR(TERASIC_AUTO_FOCUS_0_BASE,REG_GO, 1);
   21068:	00c00044 	movi	r3,1
   2106c:	00800134 	movhi	r2,4
   21070:	10840804 	addi	r2,r2,4128
   21074:	10c00035 	stwio	r3,0(r2)
  usleep(2);
   21078:	01000084 	movi	r4,2
   2107c:	00341580 	call	34158 <usleep>
  IOWR(TERASIC_AUTO_FOCUS_0_BASE,REG_GO, 0);
   21080:	0007883a 	mov	r3,zero
   21084:	00800134 	movhi	r2,4
   21088:	10840804 	addi	r2,r2,4128
   2108c:	10c00035 	stwio	r3,0(r2)
}
   21090:	0001883a 	nop
   21094:	e037883a 	mov	sp,fp
   21098:	dfc00117 	ldw	ra,4(sp)
   2109c:	df000017 	ldw	fp,0(sp)
   210a0:	dec00204 	addi	sp,sp,8
   210a4:	f800283a 	ret

000210a8 <Focus_Window>:

alt_u16 Focus_Window(int x,int y){
   210a8:	defffa04 	addi	sp,sp,-24
   210ac:	dfc00515 	stw	ra,20(sp)
   210b0:	df000415 	stw	fp,16(sp)
   210b4:	df000404 	addi	fp,sp,16
   210b8:	e13ffe15 	stw	r4,-8(fp)
   210bc:	e17fff15 	stw	r5,-4(fp)
   alt_u16 x_start,y_start;
   alt_u16 end_focus;

   if(Focus_Released()) { // pre focus done
   210c0:	00212880 	call	21288 <Focus_Released>
   210c4:	10006a26 	beq	r2,zero,21270 <Focus_Window+0x1c8>
	   IOWR(TERASIC_AUTO_FOCUS_0_BASE,REG_CTRL, 1);// focus mode : 1: window-screen, 0: full-screen
   210c8:	00c00044 	movi	r3,1
   210cc:	00800134 	movhi	r2,4
   210d0:	10840904 	addi	r2,r2,4132
   210d4:	10c00035 	stwio	r3,0(r2)

	   if(( x -  focus_width/2) < 0 ) x_start = 0;
   210d8:	d0a0010b 	ldhu	r2,-32764(gp)
   210dc:	10bfffcc 	andi	r2,r2,65535
   210e0:	1004d07a 	srli	r2,r2,1
   210e4:	10bfffcc 	andi	r2,r2,65535
   210e8:	e0fffe17 	ldw	r3,-8(fp)
   210ec:	1885c83a 	sub	r2,r3,r2
   210f0:	1000020e 	bge	r2,zero,210fc <Focus_Window+0x54>
   210f4:	e03ffc0d 	sth	zero,-16(fp)
   210f8:	00001606 	br	21154 <Focus_Window+0xac>
	   else if(( x + focus_width/2 ) > video_w )  x_start = video_w -1 -focus_width;
   210fc:	d0a0010b 	ldhu	r2,-32764(gp)
   21100:	10bfffcc 	andi	r2,r2,65535
   21104:	1004d07a 	srli	r2,r2,1
   21108:	10ffffcc 	andi	r3,r2,65535
   2110c:	e0bffe17 	ldw	r2,-8(fp)
   21110:	1885883a 	add	r2,r3,r2
   21114:	d0e0000b 	ldhu	r3,-32768(gp)
   21118:	18ffffcc 	andi	r3,r3,65535
   2111c:	1880060e 	bge	r3,r2,21138 <Focus_Window+0x90>
   21120:	d0e0000b 	ldhu	r3,-32768(gp)
   21124:	d0a0010b 	ldhu	r2,-32764(gp)
   21128:	1885c83a 	sub	r2,r3,r2
   2112c:	10bfffc4 	addi	r2,r2,-1
   21130:	e0bffc0d 	sth	r2,-16(fp)
   21134:	00000706 	br	21154 <Focus_Window+0xac>
	   else x_start = x - focus_width/2;
   21138:	e0bffe17 	ldw	r2,-8(fp)
   2113c:	1007883a 	mov	r3,r2
   21140:	d0a0010b 	ldhu	r2,-32764(gp)
   21144:	10bfffcc 	andi	r2,r2,65535
   21148:	1004d07a 	srli	r2,r2,1
   2114c:	1885c83a 	sub	r2,r3,r2
   21150:	e0bffc0d 	sth	r2,-16(fp)

	   if(( y -  focus_height/2) < 0 ) y_start = 0;
   21154:	d0a0018b 	ldhu	r2,-32762(gp)
   21158:	10bfffcc 	andi	r2,r2,65535
   2115c:	1004d07a 	srli	r2,r2,1
   21160:	10bfffcc 	andi	r2,r2,65535
   21164:	e0ffff17 	ldw	r3,-4(fp)
   21168:	1885c83a 	sub	r2,r3,r2
   2116c:	1000020e 	bge	r2,zero,21178 <Focus_Window+0xd0>
   21170:	e03ffc8d 	sth	zero,-14(fp)
   21174:	00001606 	br	211d0 <Focus_Window+0x128>
	   else if(( y + focus_height/2 ) > video_h )  y_start = video_h -1 -focus_height;
   21178:	d0a0018b 	ldhu	r2,-32762(gp)
   2117c:	10bfffcc 	andi	r2,r2,65535
   21180:	1004d07a 	srli	r2,r2,1
   21184:	10ffffcc 	andi	r3,r2,65535
   21188:	e0bfff17 	ldw	r2,-4(fp)
   2118c:	1885883a 	add	r2,r3,r2
   21190:	d0e0008b 	ldhu	r3,-32766(gp)
   21194:	18ffffcc 	andi	r3,r3,65535
   21198:	1880060e 	bge	r3,r2,211b4 <Focus_Window+0x10c>
   2119c:	d0e0008b 	ldhu	r3,-32766(gp)
   211a0:	d0a0018b 	ldhu	r2,-32762(gp)
   211a4:	1885c83a 	sub	r2,r3,r2
   211a8:	10bfffc4 	addi	r2,r2,-1
   211ac:	e0bffc8d 	sth	r2,-14(fp)
   211b0:	00000706 	br	211d0 <Focus_Window+0x128>
	   else y_start = y - focus_height/2;
   211b4:	e0bfff17 	ldw	r2,-4(fp)
   211b8:	1007883a 	mov	r3,r2
   211bc:	d0a0018b 	ldhu	r2,-32762(gp)
   211c0:	10bfffcc 	andi	r2,r2,65535
   211c4:	1004d07a 	srli	r2,r2,1
   211c8:	1885c83a 	sub	r2,r3,r2
   211cc:	e0bffc8d 	sth	r2,-14(fp)

	   printf("x_start= %d,y_start= %d\n",x_start,y_start);
   211d0:	e0bffc0b 	ldhu	r2,-16(fp)
   211d4:	e0fffc8b 	ldhu	r3,-14(fp)
   211d8:	180d883a 	mov	r6,r3
   211dc:	100b883a 	mov	r5,r2
   211e0:	010000f4 	movhi	r4,3
   211e4:	21145004 	addi	r4,r4,20800
   211e8:	00241080 	call	24108 <printf>

	   IOWR(TERASIC_AUTO_FOCUS_0_BASE,REG_FOCUS_X_START, x_start);//x_start
   211ec:	e0fffc0b 	ldhu	r3,-16(fp)
   211f0:	00800134 	movhi	r2,4
   211f4:	10840c04 	addi	r2,r2,4144
   211f8:	10c00035 	stwio	r3,0(r2)
	   IOWR(TERASIC_AUTO_FOCUS_0_BASE,REG_FOCUS_Y_START, y_start);//y_start
   211fc:	e0fffc8b 	ldhu	r3,-14(fp)
   21200:	00800134 	movhi	r2,4
   21204:	10840d04 	addi	r2,r2,4148
   21208:	10c00035 	stwio	r3,0(r2)

	   usleep(10);
   2120c:	01000284 	movi	r4,10
   21210:	00341580 	call	34158 <usleep>

	   IOWR(TERASIC_AUTO_FOCUS_0_BASE,REG_GO, 1);
   21214:	00c00044 	movi	r3,1
   21218:	00800134 	movhi	r2,4
   2121c:	10840804 	addi	r2,r2,4128
   21220:	10c00035 	stwio	r3,0(r2)
	   usleep(2);
   21224:	01000084 	movi	r4,2
   21228:	00341580 	call	34158 <usleep>
	   IOWR(TERASIC_AUTO_FOCUS_0_BASE,REG_GO, 0);
   2122c:	0007883a 	mov	r3,zero
   21230:	00800134 	movhi	r2,4
   21234:	10840804 	addi	r2,r2,4128
   21238:	10c00035 	stwio	r3,0(r2)
	   Focus_Released();
   2123c:	00212880 	call	21288 <Focus_Released>

	   end_focus = IORD(TERASIC_AUTO_FOCUS_0_BASE,REG_STATUS)&0x0FFF;
   21240:	00800134 	movhi	r2,4
   21244:	10840804 	addi	r2,r2,4128
   21248:	10800037 	ldwio	r2,0(r2)
   2124c:	1083ffcc 	andi	r2,r2,4095
   21250:	e0bffd0d 	sth	r2,-12(fp)
	   printf("end_focus = %d \n",end_focus);
   21254:	e0bffd0b 	ldhu	r2,-12(fp)
   21258:	100b883a 	mov	r5,r2
   2125c:	010000f4 	movhi	r4,3
   21260:	21145704 	addi	r4,r4,20828
   21264:	00241080 	call	24108 <printf>

	   return end_focus;
   21268:	e0bffd0b 	ldhu	r2,-12(fp)
   2126c:	00000106 	br	21274 <Focus_Window+0x1cc>

   }
   return end_focus;
   21270:	e0bffd0b 	ldhu	r2,-12(fp)

}
   21274:	e037883a 	mov	sp,fp
   21278:	dfc00117 	ldw	ra,4(sp)
   2127c:	df000017 	ldw	fp,0(sp)
   21280:	dec00204 	addi	sp,sp,8
   21284:	f800283a 	ret

00021288 <Focus_Released>:

int Focus_Released(void){
   21288:	defffc04 	addi	sp,sp,-16
   2128c:	dfc00315 	stw	ra,12(sp)
   21290:	df000215 	stw	fp,8(sp)
   21294:	df000204 	addi	fp,sp,8
  int Released = FALSE;
   21298:	e03ffe15 	stw	zero,-8(fp)
 * alt_nticks() returns the elapsed number of system clock ticks since reset.
 */

static ALT_INLINE alt_u32 ALT_ALWAYS_INLINE alt_nticks (void)
{
  return _alt_nticks;
   2129c:	008000f4 	movhi	r2,3
   212a0:	109f5c04 	addi	r2,r2,32112
   212a4:	10c00017 	ldw	r3,0(r2)
 * Obtain the system clock rate in ticks/s. 
 */

static ALT_INLINE alt_u32 ALT_ALWAYS_INLINE alt_ticks_per_second (void)
{
  return _alt_tick_rate;
   212a8:	008000f4 	movhi	r2,3
   212ac:	109f5d04 	addi	r2,r2,32116
   212b0:	10800017 	ldw	r2,0(r2)
  alt_u32 TimeOut;

  TimeOut = alt_nticks() + alt_ticks_per_second()*8;
   212b4:	100490fa 	slli	r2,r2,3
   212b8:	1885883a 	add	r2,r3,r2
   212bc:	e0bfff15 	stw	r2,-4(fp)

  while((IORD(TERASIC_AUTO_FOCUS_0_BASE,REG_STATUS)&0x8000) ==0 && alt_nticks() < TimeOut ); // waiting for VCM release I2C bus
   212c0:	0001883a 	nop
   212c4:	00800134 	movhi	r2,4
   212c8:	10840804 	addi	r2,r2,4128
   212cc:	10800037 	ldwio	r2,0(r2)
   212d0:	10a0000c 	andi	r2,r2,32768
   212d4:	1000051e 	bne	r2,zero,212ec <Focus_Released+0x64>
 * alt_nticks() returns the elapsed number of system clock ticks since reset.
 */

static ALT_INLINE alt_u32 ALT_ALWAYS_INLINE alt_nticks (void)
{
  return _alt_nticks;
   212d8:	008000f4 	movhi	r2,3
   212dc:	109f5c04 	addi	r2,r2,32112
   212e0:	10c00017 	ldw	r3,0(r2)
   212e4:	e0bfff17 	ldw	r2,-4(fp)
   212e8:	18bff636 	bltu	r3,r2,212c4 <__alt_data_end+0xfffe12c4>
   212ec:	008000f4 	movhi	r2,3
   212f0:	109f5c04 	addi	r2,r2,32112
   212f4:	10c00017 	ldw	r3,0(r2)

  if(alt_nticks() < TimeOut ) Released = TRUE;
   212f8:	e0bfff17 	ldw	r2,-4(fp)
   212fc:	1880032e 	bgeu	r3,r2,2130c <Focus_Released+0x84>
   21300:	00800044 	movi	r2,1
   21304:	e0bffe15 	stw	r2,-8(fp)
   21308:	00000306 	br	21318 <Focus_Released+0x90>
  else printf("\n =>Released check TimeOut!\n");
   2130c:	010000f4 	movhi	r4,3
   21310:	21145c04 	addi	r4,r4,20848
   21314:	00242240 	call	24224 <puts>

  usleep(10000);
   21318:	0109c404 	movi	r4,10000
   2131c:	00341580 	call	34158 <usleep>

  return Released;
   21320:	e0bffe17 	ldw	r2,-8(fp)
}
   21324:	e037883a 	mov	sp,fp
   21328:	dfc00117 	ldw	ra,4(sp)
   2132c:	df000017 	ldw	fp,0(sp)
   21330:	dec00204 	addi	sp,sp,8
   21334:	f800283a 	ret

00021338 <mipi_clear_error>:

alt_32 col_and_det, x_values;
alt_16 x_len, x_cen, pix_dist_from_cen;			//temp values
alt_16 color, detected, hori_dist, diag_dist,prevhori,prevdiag;

void mipi_clear_error(void){
   21338:	defffe04 	addi	sp,sp,-8
   2133c:	dfc00115 	stw	ra,4(sp)
   21340:	df000015 	stw	fp,0(sp)
   21344:	d839883a 	mov	fp,sp
	MipiBridgeRegWrite(MIPI_REG_CSIStatus,0x01FF); // clear error
   21348:	01407fc4 	movi	r5,511
   2134c:	01001904 	movi	r4,100
   21350:	0021f5c0 	call	21f5c <MipiBridgeRegWrite>
	MipiBridgeRegWrite(MIPI_REG_MDLSynErr,0x0000); // clear error
   21354:	000b883a 	mov	r5,zero
   21358:	01001a04 	movi	r4,104
   2135c:	0021f5c0 	call	21f5c <MipiBridgeRegWrite>
	MipiBridgeRegWrite(MIPI_REG_FrmErrCnt,0x0000); // clear error
   21360:	000b883a 	mov	r5,zero
   21364:	01002004 	movi	r4,128
   21368:	0021f5c0 	call	21f5c <MipiBridgeRegWrite>
	MipiBridgeRegWrite(MIPI_REG_MDLErrCnt, 0x0000); // clear error
   2136c:	000b883a 	mov	r5,zero
   21370:	01002404 	movi	r4,144
   21374:	0021f5c0 	call	21f5c <MipiBridgeRegWrite>

  	MipiBridgeRegWrite(0x0082,0x00);
   21378:	000b883a 	mov	r5,zero
   2137c:	01002084 	movi	r4,130
   21380:	0021f5c0 	call	21f5c <MipiBridgeRegWrite>
  	MipiBridgeRegWrite(0x0084,0x00);
   21384:	000b883a 	mov	r5,zero
   21388:	01002104 	movi	r4,132
   2138c:	0021f5c0 	call	21f5c <MipiBridgeRegWrite>
  	MipiBridgeRegWrite(0x0086,0x00);
   21390:	000b883a 	mov	r5,zero
   21394:	01002184 	movi	r4,134
   21398:	0021f5c0 	call	21f5c <MipiBridgeRegWrite>
  	MipiBridgeRegWrite(0x0088,0x00);
   2139c:	000b883a 	mov	r5,zero
   213a0:	01002204 	movi	r4,136
   213a4:	0021f5c0 	call	21f5c <MipiBridgeRegWrite>
  	MipiBridgeRegWrite(0x008A,0x00);
   213a8:	000b883a 	mov	r5,zero
   213ac:	01002284 	movi	r4,138
   213b0:	0021f5c0 	call	21f5c <MipiBridgeRegWrite>
  	MipiBridgeRegWrite(0x008C,0x00);
   213b4:	000b883a 	mov	r5,zero
   213b8:	01002304 	movi	r4,140
   213bc:	0021f5c0 	call	21f5c <MipiBridgeRegWrite>
  	MipiBridgeRegWrite(0x008E,0x00);
   213c0:	000b883a 	mov	r5,zero
   213c4:	01002384 	movi	r4,142
   213c8:	0021f5c0 	call	21f5c <MipiBridgeRegWrite>
  	MipiBridgeRegWrite(0x0090,0x00);
   213cc:	000b883a 	mov	r5,zero
   213d0:	01002404 	movi	r4,144
   213d4:	0021f5c0 	call	21f5c <MipiBridgeRegWrite>
}
   213d8:	0001883a 	nop
   213dc:	e037883a 	mov	sp,fp
   213e0:	dfc00117 	ldw	ra,4(sp)
   213e4:	df000017 	ldw	fp,0(sp)
   213e8:	dec00204 	addi	sp,sp,8
   213ec:	f800283a 	ret

000213f0 <mipi_show_error_info>:

void mipi_show_error_info(void){
   213f0:	defff904 	addi	sp,sp,-28
   213f4:	dfc00615 	stw	ra,24(sp)
   213f8:	df000515 	stw	fp,20(sp)
   213fc:	df000504 	addi	fp,sp,20

	alt_u16 PHY_status, SCI_status, MDLSynErr, FrmErrCnt, MDLErrCnt;

	PHY_status = MipiBridgeRegRead(MIPI_REG_PHYSta);
   21400:	01001884 	movi	r4,98
   21404:	0021fc80 	call	21fc8 <MipiBridgeRegRead>
   21408:	e0bffd0d 	sth	r2,-12(fp)
	SCI_status = MipiBridgeRegRead(MIPI_REG_CSIStatus);
   2140c:	01001904 	movi	r4,100
   21410:	0021fc80 	call	21fc8 <MipiBridgeRegRead>
   21414:	e0bffd8d 	sth	r2,-10(fp)
	MDLSynErr = MipiBridgeRegRead(MIPI_REG_MDLSynErr);
   21418:	01001a04 	movi	r4,104
   2141c:	0021fc80 	call	21fc8 <MipiBridgeRegRead>
   21420:	e0bffe0d 	sth	r2,-8(fp)
	FrmErrCnt = MipiBridgeRegRead(MIPI_REG_FrmErrCnt);
   21424:	01002004 	movi	r4,128
   21428:	0021fc80 	call	21fc8 <MipiBridgeRegRead>
   2142c:	e0bffe8d 	sth	r2,-6(fp)
	MDLErrCnt = MipiBridgeRegRead(MIPI_REG_MDLErrCnt);
   21430:	01002404 	movi	r4,144
   21434:	0021fc80 	call	21fc8 <MipiBridgeRegRead>
   21438:	e0bfff0d 	sth	r2,-4(fp)
	printf("PHY_status=%xh, CSI_status=%xh, MDLSynErr=%xh, FrmErrCnt=%xh, MDLErrCnt=%xh\r\n", PHY_status, SCI_status, MDLSynErr,FrmErrCnt, MDLErrCnt);
   2143c:	e13ffd0b 	ldhu	r4,-12(fp)
   21440:	e17ffd8b 	ldhu	r5,-10(fp)
   21444:	e1bffe0b 	ldhu	r6,-8(fp)
   21448:	e0bffe8b 	ldhu	r2,-6(fp)
   2144c:	e0ffff0b 	ldhu	r3,-4(fp)
   21450:	d8c00115 	stw	r3,4(sp)
   21454:	d8800015 	stw	r2,0(sp)
   21458:	300f883a 	mov	r7,r6
   2145c:	280d883a 	mov	r6,r5
   21460:	200b883a 	mov	r5,r4
   21464:	010000f4 	movhi	r4,3
   21468:	21146404 	addi	r4,r4,20880
   2146c:	00241080 	call	24108 <printf>
}
   21470:	0001883a 	nop
   21474:	e037883a 	mov	sp,fp
   21478:	dfc00117 	ldw	ra,4(sp)
   2147c:	df000017 	ldw	fp,0(sp)
   21480:	dec00204 	addi	sp,sp,8
   21484:	f800283a 	ret

00021488 <mipi_show_error_info_more>:

void mipi_show_error_info_more(void){
   21488:	defffe04 	addi	sp,sp,-8
   2148c:	dfc00115 	stw	ra,4(sp)
   21490:	df000015 	stw	fp,0(sp)
   21494:	d839883a 	mov	fp,sp
    printf("FrmErrCnt = %d\n",MipiBridgeRegRead(0x0080));
   21498:	01002004 	movi	r4,128
   2149c:	0021fc80 	call	21fc8 <MipiBridgeRegRead>
   214a0:	10bfffcc 	andi	r2,r2,65535
   214a4:	100b883a 	mov	r5,r2
   214a8:	010000f4 	movhi	r4,3
   214ac:	21147804 	addi	r4,r4,20960
   214b0:	00241080 	call	24108 <printf>
    printf("CRCErrCnt = %d\n",MipiBridgeRegRead(0x0082));
   214b4:	01002084 	movi	r4,130
   214b8:	0021fc80 	call	21fc8 <MipiBridgeRegRead>
   214bc:	10bfffcc 	andi	r2,r2,65535
   214c0:	100b883a 	mov	r5,r2
   214c4:	010000f4 	movhi	r4,3
   214c8:	21147c04 	addi	r4,r4,20976
   214cc:	00241080 	call	24108 <printf>
    printf("CorErrCnt = %d\n",MipiBridgeRegRead(0x0084));
   214d0:	01002104 	movi	r4,132
   214d4:	0021fc80 	call	21fc8 <MipiBridgeRegRead>
   214d8:	10bfffcc 	andi	r2,r2,65535
   214dc:	100b883a 	mov	r5,r2
   214e0:	010000f4 	movhi	r4,3
   214e4:	21148004 	addi	r4,r4,20992
   214e8:	00241080 	call	24108 <printf>
    printf("HdrErrCnt = %d\n",MipiBridgeRegRead(0x0086));
   214ec:	01002184 	movi	r4,134
   214f0:	0021fc80 	call	21fc8 <MipiBridgeRegRead>
   214f4:	10bfffcc 	andi	r2,r2,65535
   214f8:	100b883a 	mov	r5,r2
   214fc:	010000f4 	movhi	r4,3
   21500:	21148404 	addi	r4,r4,21008
   21504:	00241080 	call	24108 <printf>
    printf("EIDErrCnt = %d\n",MipiBridgeRegRead(0x0088));
   21508:	01002204 	movi	r4,136
   2150c:	0021fc80 	call	21fc8 <MipiBridgeRegRead>
   21510:	10bfffcc 	andi	r2,r2,65535
   21514:	100b883a 	mov	r5,r2
   21518:	010000f4 	movhi	r4,3
   2151c:	21148804 	addi	r4,r4,21024
   21520:	00241080 	call	24108 <printf>
    printf("CtlErrCnt = %d\n",MipiBridgeRegRead(0x008A));
   21524:	01002284 	movi	r4,138
   21528:	0021fc80 	call	21fc8 <MipiBridgeRegRead>
   2152c:	10bfffcc 	andi	r2,r2,65535
   21530:	100b883a 	mov	r5,r2
   21534:	010000f4 	movhi	r4,3
   21538:	21148c04 	addi	r4,r4,21040
   2153c:	00241080 	call	24108 <printf>
    printf("SoTErrCnt = %d\n",MipiBridgeRegRead(0x008C));
   21540:	01002304 	movi	r4,140
   21544:	0021fc80 	call	21fc8 <MipiBridgeRegRead>
   21548:	10bfffcc 	andi	r2,r2,65535
   2154c:	100b883a 	mov	r5,r2
   21550:	010000f4 	movhi	r4,3
   21554:	21149004 	addi	r4,r4,21056
   21558:	00241080 	call	24108 <printf>
    printf("SynErrCnt = %d\n",MipiBridgeRegRead(0x008E));
   2155c:	01002384 	movi	r4,142
   21560:	0021fc80 	call	21fc8 <MipiBridgeRegRead>
   21564:	10bfffcc 	andi	r2,r2,65535
   21568:	100b883a 	mov	r5,r2
   2156c:	010000f4 	movhi	r4,3
   21570:	21149404 	addi	r4,r4,21072
   21574:	00241080 	call	24108 <printf>
    printf("MDLErrCnt = %d\n",MipiBridgeRegRead(0x0090));
   21578:	01002404 	movi	r4,144
   2157c:	0021fc80 	call	21fc8 <MipiBridgeRegRead>
   21580:	10bfffcc 	andi	r2,r2,65535
   21584:	100b883a 	mov	r5,r2
   21588:	010000f4 	movhi	r4,3
   2158c:	21149804 	addi	r4,r4,21088
   21590:	00241080 	call	24108 <printf>
    printf("FIFOSTATUS = %d\n",MipiBridgeRegRead(0x00F8));
   21594:	01003e04 	movi	r4,248
   21598:	0021fc80 	call	21fc8 <MipiBridgeRegRead>
   2159c:	10bfffcc 	andi	r2,r2,65535
   215a0:	100b883a 	mov	r5,r2
   215a4:	010000f4 	movhi	r4,3
   215a8:	21149c04 	addi	r4,r4,21104
   215ac:	00241080 	call	24108 <printf>
    printf("DataType = 0x%04x\n",MipiBridgeRegRead(0x006A));
   215b0:	01001a84 	movi	r4,106
   215b4:	0021fc80 	call	21fc8 <MipiBridgeRegRead>
   215b8:	10bfffcc 	andi	r2,r2,65535
   215bc:	100b883a 	mov	r5,r2
   215c0:	010000f4 	movhi	r4,3
   215c4:	2114a104 	addi	r4,r4,21124
   215c8:	00241080 	call	24108 <printf>
    printf("CSIPktLen = %d\n",MipiBridgeRegRead(0x006E));
   215cc:	01001b84 	movi	r4,110
   215d0:	0021fc80 	call	21fc8 <MipiBridgeRegRead>
   215d4:	10bfffcc 	andi	r2,r2,65535
   215d8:	100b883a 	mov	r5,r2
   215dc:	010000f4 	movhi	r4,3
   215e0:	2114a604 	addi	r4,r4,21144
   215e4:	00241080 	call	24108 <printf>
}
   215e8:	0001883a 	nop
   215ec:	e037883a 	mov	sp,fp
   215f0:	dfc00117 	ldw	ra,4(sp)
   215f4:	df000017 	ldw	fp,0(sp)
   215f8:	dec00204 	addi	sp,sp,8
   215fc:	f800283a 	ret

00021600 <MIPI_Init>:



bool MIPI_Init(void){
   21600:	defffd04 	addi	sp,sp,-12
   21604:	dfc00215 	stw	ra,8(sp)
   21608:	df000115 	stw	fp,4(sp)
   2160c:	df000104 	addi	fp,sp,4
	bool bSuccess;


	bSuccess = oc_i2c_init_ex(I2C_OPENCORES_MIPI_BASE, 50*1000*1000,400*1000); //I2C: 400K
   21610:	018001b4 	movhi	r6,6
   21614:	3186a004 	addi	r6,r6,6784
   21618:	0140bef4 	movhi	r5,763
   2161c:	297c2004 	addi	r5,r5,-3968
   21620:	01000134 	movhi	r4,4
   21624:	21041804 	addi	r4,r4,4192
   21628:	00202dc0 	call	202dc <oc_i2c_init_ex>
   2162c:	e0bfff15 	stw	r2,-4(fp)
	if (!bSuccess)
   21630:	e0bfff17 	ldw	r2,-4(fp)
   21634:	1000031e 	bne	r2,zero,21644 <MIPI_Init+0x44>
		printf("failed to init MIPI- Bridge i2c\r\n");
   21638:	010000f4 	movhi	r4,3
   2163c:	2114aa04 	addi	r4,r4,21160
   21640:	00242240 	call	24224 <puts>

    usleep(50*1000);
   21644:	0130d414 	movui	r4,50000
   21648:	00341580 	call	34158 <usleep>
    MipiBridgeInit();
   2164c:	00220400 	call	22040 <MipiBridgeInit>

    usleep(500*1000);
   21650:	01000234 	movhi	r4,8
   21654:	21284804 	addi	r4,r4,-24288
   21658:	00341580 	call	34158 <usleep>

//	bSuccess = oc_i2c_init_ex(I2C_OPENCORES_CAMERA_BASE, 50*1000*1000,400*1000); //I2C: 400K
//	if (!bSuccess)
//		printf("failed to init MIPI- Camera i2c\r\n");

    MipiCameraInit();
   2165c:	00228240 	call	22824 <MipiCameraInit>
    MIPI_BIN_LEVEL(DEFAULT_LEVEL);
   21660:	010000c4 	movi	r4,3
   21664:	00226640 	call	22664 <MIPI_BIN_LEVEL>
//    OV8865_FOCUS_Move_to(340);

//    oc_i2c_uninit(I2C_OPENCORES_CAMERA_BASE);  // Release I2C bus , due to two I2C master shared!


 	usleep(1000);
   21668:	0100fa04 	movi	r4,1000
   2166c:	00341580 	call	34158 <usleep>


//    oc_i2c_uninit(I2C_OPENCORES_MIPI_BASE);

	return bSuccess;
   21670:	e0bfff17 	ldw	r2,-4(fp)
}
   21674:	e037883a 	mov	sp,fp
   21678:	dfc00117 	ldw	ra,4(sp)
   2167c:	df000017 	ldw	fp,0(sp)
   21680:	dec00204 	addi	sp,sp,8
   21684:	f800283a 	ret

00021688 <sendToControl>:

//////////////////////////////UART COMM//////////////////////////////
char msgVision[MSG_BUFFER_SIZE];
void sendToControl(alt_16 color, alt_16 detected, alt_16 hori_dist, alt_16 diag_dist){
   21688:	defff704 	addi	sp,sp,-36
   2168c:	dfc00815 	stw	ra,32(sp)
   21690:	df000715 	stw	fp,28(sp)
   21694:	df000704 	addi	fp,sp,28
   21698:	2011883a 	mov	r8,r4
   2169c:	2809883a 	mov	r4,r5
   216a0:	3007883a 	mov	r3,r6
   216a4:	3805883a 	mov	r2,r7
   216a8:	e23ffc0d 	sth	r8,-16(fp)
   216ac:	e13ffd0d 	sth	r4,-12(fp)
   216b0:	e0fffe0d 	sth	r3,-8(fp)
   216b4:	e0bfff0d 	sth	r2,-4(fp)
	if (detected == 0x0001){
   216b8:	e0bffd0f 	ldh	r2,-12(fp)
   216bc:	10800058 	cmpnei	r2,r2,1
   216c0:	1000571e 	bne	r2,zero,21820 <sendToControl+0x198>
		if(prevhori==hori_dist||prevdiag==diag_dist){
   216c4:	008000f4 	movhi	r2,3
   216c8:	109f4b84 	addi	r2,r2,32046
   216cc:	1080000b 	ldhu	r2,0(r2)
   216d0:	10ffffcc 	andi	r3,r2,65535
   216d4:	18e0001c 	xori	r3,r3,32768
   216d8:	18e00004 	addi	r3,r3,-32768
   216dc:	e0bffe0f 	ldh	r2,-8(fp)
   216e0:	18800826 	beq	r3,r2,21704 <sendToControl+0x7c>
   216e4:	008000f4 	movhi	r2,3
   216e8:	109f5004 	addi	r2,r2,32064
   216ec:	1080000b 	ldhu	r2,0(r2)
   216f0:	10ffffcc 	andi	r3,r2,65535
   216f4:	18e0001c 	xori	r3,r3,32768
   216f8:	18e00004 	addi	r3,r3,-32768
   216fc:	e0bfff0f 	ldh	r2,-4(fp)
   21700:	1880021e 	bne	r3,r2,2170c <sendToControl+0x84>
		      detected = 0x0000;
   21704:	e03ffd0d 	sth	zero,-12(fp)
   21708:	00004506 	br	21820 <sendToControl+0x198>
		}else if((abs(prevhori-hori_dist)<5)||(abs(prevdiag-diag_dist)<5)){
   2170c:	008000f4 	movhi	r2,3
   21710:	109f4b84 	addi	r2,r2,32046
   21714:	1080000b 	ldhu	r2,0(r2)
   21718:	10ffffcc 	andi	r3,r2,65535
   2171c:	18e0001c 	xori	r3,r3,32768
   21720:	18e00004 	addi	r3,r3,-32768
   21724:	e0bffe0f 	ldh	r2,-8(fp)
   21728:	1885c83a 	sub	r2,r3,r2
   2172c:	10bfff10 	cmplti	r2,r2,-4
   21730:	10000a1e 	bne	r2,zero,2175c <sendToControl+0xd4>
   21734:	008000f4 	movhi	r2,3
   21738:	109f4b84 	addi	r2,r2,32046
   2173c:	1080000b 	ldhu	r2,0(r2)
   21740:	10ffffcc 	andi	r3,r2,65535
   21744:	18e0001c 	xori	r3,r3,32768
   21748:	18e00004 	addi	r3,r3,-32768
   2174c:	e0bffe0f 	ldh	r2,-8(fp)
   21750:	1885c83a 	sub	r2,r3,r2
   21754:	10800150 	cmplti	r2,r2,5
   21758:	1000141e 	bne	r2,zero,217ac <sendToControl+0x124>
   2175c:	008000f4 	movhi	r2,3
   21760:	109f5004 	addi	r2,r2,32064
   21764:	1080000b 	ldhu	r2,0(r2)
   21768:	10ffffcc 	andi	r3,r2,65535
   2176c:	18e0001c 	xori	r3,r3,32768
   21770:	18e00004 	addi	r3,r3,-32768
   21774:	e0bfff0f 	ldh	r2,-4(fp)
   21778:	1885c83a 	sub	r2,r3,r2
   2177c:	10bfff10 	cmplti	r2,r2,-4
   21780:	10000d1e 	bne	r2,zero,217b8 <sendToControl+0x130>
   21784:	008000f4 	movhi	r2,3
   21788:	109f5004 	addi	r2,r2,32064
   2178c:	1080000b 	ldhu	r2,0(r2)
   21790:	10ffffcc 	andi	r3,r2,65535
   21794:	18e0001c 	xori	r3,r3,32768
   21798:	18e00004 	addi	r3,r3,-32768
   2179c:	e0bfff0f 	ldh	r2,-4(fp)
   217a0:	1885c83a 	sub	r2,r3,r2
   217a4:	10800148 	cmpgei	r2,r2,5
   217a8:	1000031e 	bne	r2,zero,217b8 <sendToControl+0x130>
			detected = 0x0001;
   217ac:	00800044 	movi	r2,1
   217b0:	e0bffd0d 	sth	r2,-12(fp)
   217b4:	00001a06 	br	21820 <sendToControl+0x198>
		}else{
			snprintf (msgVision, MSG_BUFFER_SIZE, "<%i,%i,%i,%i>", color, detected, hori_dist, diag_dist);
   217b8:	e17ffc0f 	ldh	r5,-16(fp)
   217bc:	e0bffd0f 	ldh	r2,-12(fp)
   217c0:	e0fffe0f 	ldh	r3,-8(fp)
   217c4:	e13fff0f 	ldh	r4,-4(fp)
   217c8:	d9000215 	stw	r4,8(sp)
   217cc:	d8c00115 	stw	r3,4(sp)
   217d0:	d8800015 	stw	r2,0(sp)
   217d4:	280f883a 	mov	r7,r5
   217d8:	018000f4 	movhi	r6,3
   217dc:	3194b304 	addi	r6,r6,21196
   217e0:	01400804 	movi	r5,32
   217e4:	010000f4 	movhi	r4,3
   217e8:	211f6a04 	addi	r4,r4,32168
   217ec:	00245dc0 	call	245dc <snprintf>
			alt_putstr(msgVision);
   217f0:	010000f4 	movhi	r4,3
   217f4:	211f6a04 	addi	r4,r4,32168
   217f8:	0033f3c0 	call	33f3c <alt_putstr>
			prevhori=hori_dist;
   217fc:	008000f4 	movhi	r2,3
   21800:	109f4b84 	addi	r2,r2,32046
   21804:	e0fffe0b 	ldhu	r3,-8(fp)
   21808:	10c0000d 	sth	r3,0(r2)
			prevdiag=diag_dist;
   2180c:	008000f4 	movhi	r2,3
   21810:	109f5004 	addi	r2,r2,32064
   21814:	e0ffff0b 	ldhu	r3,-4(fp)
   21818:	10c0000d 	sth	r3,0(r2)
			//printf("send to control done\n");
		}
	}
}
   2181c:	00000006 	br	21820 <sendToControl+0x198>
   21820:	0001883a 	nop
   21824:	e037883a 	mov	sp,fp
   21828:	dfc00117 	ldw	ra,4(sp)
   2182c:	df000017 	ldw	fp,0(sp)
   21830:	dec00204 	addi	sp,sp,8
   21834:	f800283a 	ret

00021838 <main>:
/////////////////////////////////////////////////////////////////////////////////////

int main()
{
   21838:	defff704 	addi	sp,sp,-36
   2183c:	dfc00815 	stw	ra,32(sp)
   21840:	df000715 	stw	fp,28(sp)
   21844:	df000704 	addi	fp,sp,28

	fcntl(STDIN_FILENO, F_SETFL, O_NONBLOCK);
   21848:	01900004 	movi	r6,16384
   2184c:	01400104 	movi	r5,4
   21850:	0009883a 	mov	r4,zero
   21854:	0033a100 	call	33a10 <fcntl>

  printf("DE10-LITE D8M VGA Demo\n");
   21858:	010000f4 	movhi	r4,3
   2185c:	2114b704 	addi	r4,r4,21212
   21860:	00242240 	call	24224 <puts>
  printf("Imperial College EEE2 Project version\n");
   21864:	010000f4 	movhi	r4,3
   21868:	2114bd04 	addi	r4,r4,21236
   2186c:	00242240 	call	24224 <puts>
  IOWR(MIPI_PWDN_N_BASE, 0x00, 0x00);
   21870:	0007883a 	mov	r3,zero
   21874:	00800134 	movhi	r2,4
   21878:	10842004 	addi	r2,r2,4224
   2187c:	10c00035 	stwio	r3,0(r2)
  IOWR(MIPI_RESET_N_BASE, 0x00, 0x00);
   21880:	0007883a 	mov	r3,zero
   21884:	00800134 	movhi	r2,4
   21888:	10842404 	addi	r2,r2,4240
   2188c:	10c00035 	stwio	r3,0(r2)

  usleep(2000);
   21890:	0101f404 	movi	r4,2000
   21894:	00341580 	call	34158 <usleep>
  IOWR(MIPI_PWDN_N_BASE, 0x00, 0xFF);
   21898:	00c03fc4 	movi	r3,255
   2189c:	00800134 	movhi	r2,4
   218a0:	10842004 	addi	r2,r2,4224
   218a4:	10c00035 	stwio	r3,0(r2)
  usleep(2000);
   218a8:	0101f404 	movi	r4,2000
   218ac:	00341580 	call	34158 <usleep>
  IOWR(MIPI_RESET_N_BASE, 0x00, 0xFF);
   218b0:	00c03fc4 	movi	r3,255
   218b4:	00800134 	movhi	r2,4
   218b8:	10842404 	addi	r2,r2,4240
   218bc:	10c00035 	stwio	r3,0(r2)

  //printf("Image Processor ID: %x\n",IORD(0x42000,EEE_IMGPROC_ID));
  //printf("Image Processor ID: %x\n",IORD(EEE_IMGPROC_0_BASE,EEE_IMGPROC_ID)); //Don't know why this doesn't work - definition is in system.h in BSP


  usleep(2000);
   218c0:	0101f404 	movi	r4,2000
   218c4:	00341580 	call	34158 <usleep>


  // MIPI Init
   if (!MIPI_Init()){
   218c8:	00216000 	call	21600 <MIPI_Init>
   218cc:	1000041e 	bne	r2,zero,218e0 <main+0xa8>
	  printf("MIPI_Init Init failed!\r\n");
   218d0:	010000f4 	movhi	r4,3
   218d4:	2114c704 	addi	r4,r4,21276
   218d8:	00242240 	call	24224 <puts>
   218dc:	00000306 	br	218ec <main+0xb4>
  }else{
	  printf("MIPI_Init Init successfully!\r\n");
   218e0:	010000f4 	movhi	r4,3
   218e4:	2114cd04 	addi	r4,r4,21300
   218e8:	00242240 	call	24224 <puts>
  }

//   while(1){
 	    mipi_clear_error();
   218ec:	00213380 	call	21338 <mipi_clear_error>
	 	usleep(50*1000);
   218f0:	0130d414 	movui	r4,50000
   218f4:	00341580 	call	34158 <usleep>
 	    mipi_clear_error();
   218f8:	00213380 	call	21338 <mipi_clear_error>
	 	usleep(1000*1000);
   218fc:	010003f4 	movhi	r4,15
   21900:	21109004 	addi	r4,r4,16960
   21904:	00341580 	call	34158 <usleep>
	    mipi_show_error_info();
   21908:	00213f00 	call	213f0 <mipi_show_error_info>
//	    mipi_show_error_info_more();
	    printf("\n");
   2190c:	01000284 	movi	r4,10
   21910:	002414c0 	call	2414c <putchar>




    //////////////////////////////////////////////////////////
        alt_u16 bin_level = DEFAULT_LEVEL;
   21914:	008000c4 	movi	r2,3
   21918:	e0bff90d 	sth	r2,-28(fp)
        alt_u8  manual_focus_step = 10;
   2191c:	00800284 	movi	r2,10
   21920:	e0bffc85 	stb	r2,-14(fp)
        alt_u16  current_focus = 300;
   21924:	00804b04 	movi	r2,300
   21928:	e0bff98d 	sth	r2,-26(fp)
    	int boundingBoxColour = 0;
   2192c:	e03ffa15 	stw	zero,-24(fp)
    	alt_u32 exposureTime = EXPOSURE_INIT;
   21930:	00880004 	movi	r2,8192
   21934:	e0bffb15 	stw	r2,-20(fp)
    	alt_u16 gain = GAIN_INIT;
   21938:	00810004 	movi	r2,1024
   2193c:	e0bffc0d 	sth	r2,-16(fp)

        OV8865SetExposure(exposureTime);
   21940:	e13ffb17 	ldw	r4,-20(fp)
   21944:	00223fc0 	call	223fc <OV8865SetExposure>
        OV8865SetGain(gain);
   21948:	e0bffc0b 	ldhu	r2,-16(fp)
   2194c:	1009883a 	mov	r4,r2
   21950:	00224dc0 	call	224dc <OV8865SetGain>
        Focus_Init();
   21954:	0020f800 	call	20f80 <Focus_Init>

        FILE* ser = fopen("/dev/uart0", "rb+");
   21958:	014000f4 	movhi	r5,3
   2195c:	2954d504 	addi	r5,r5,21332
   21960:	010000f4 	movhi	r4,3
   21964:	2114d604 	addi	r4,r4,21336
   21968:	0022f740 	call	22f74 <fopen>
   2196c:	e0bffd15 	stw	r2,-12(fp)
        if(ser){
   21970:	e0bffd17 	ldw	r2,-12(fp)
   21974:	10000426 	beq	r2,zero,21988 <main+0x150>
        	printf("Opened UART\n");
   21978:	010000f4 	movhi	r4,3
   2197c:	2114d904 	addi	r4,r4,21348
   21980:	00242240 	call	24224 <puts>
   21984:	00000406 	br	21998 <main+0x160>
        } else {
        	printf("Failed to open UART\n");
   21988:	010000f4 	movhi	r4,3
   2198c:	2114dc04 	addi	r4,r4,21360
   21990:	00242240 	call	24224 <puts>
        	while (1);
   21994:	003fff06 	br	21994 <__alt_data_end+0xfffe1994>
        }

  while(1){

       // touch KEY0 to trigger Auto focus
	   if((IORD(KEY_BASE,0)&0x03) == 0x02){
   21998:	00800134 	movhi	r2,4
   2199c:	10842804 	addi	r2,r2,4256
   219a0:	10800037 	ldwio	r2,0(r2)
   219a4:	108000cc 	andi	r2,r2,3
   219a8:	10800098 	cmpnei	r2,r2,2
   219ac:	1000041e 	bne	r2,zero,219c0 <main+0x188>

    	   current_focus = Focus_Window(320,240);
   219b0:	01403c04 	movi	r5,240
   219b4:	01005004 	movi	r4,320
   219b8:	00210a80 	call	210a8 <Focus_Window>
   219bc:	e0bff98d 	sth	r2,-26(fp)
       }
	   // touch KEY1 to ZOOM
	         if((IORD(KEY_BASE,0)&0x03) == 0x01){
   219c0:	00800134 	movhi	r2,4
   219c4:	10842804 	addi	r2,r2,4256
   219c8:	10800037 	ldwio	r2,0(r2)
   219cc:	108000cc 	andi	r2,r2,3
   219d0:	10800058 	cmpnei	r2,r2,1
   219d4:	1000c71e 	bne	r2,zero,21cf4 <main+0x4bc>
	      	   if(bin_level == 3 )bin_level = 1;
   219d8:	e0bff90b 	ldhu	r2,-28(fp)
   219dc:	108000d8 	cmpnei	r2,r2,3
   219e0:	1000031e 	bne	r2,zero,219f0 <main+0x1b8>
   219e4:	00800044 	movi	r2,1
   219e8:	e0bff90d 	sth	r2,-28(fp)
   219ec:	00000306 	br	219fc <main+0x1c4>
	      	   else bin_level ++;
   219f0:	e0bff90b 	ldhu	r2,-28(fp)
   219f4:	10800044 	addi	r2,r2,1
   219f8:	e0bff90d 	sth	r2,-28(fp)
	      	   printf("set bin level to %d\n",bin_level);
   219fc:	e0bff90b 	ldhu	r2,-28(fp)
   21a00:	100b883a 	mov	r5,r2
   21a04:	010000f4 	movhi	r4,3
   21a08:	2114e104 	addi	r4,r4,21380
   21a0c:	00241080 	call	24108 <printf>
	      	   MIPI_BIN_LEVEL(bin_level);
   21a10:	e0bff90b 	ldhu	r2,-28(fp)
   21a14:	10803fcc 	andi	r2,r2,255
   21a18:	1009883a 	mov	r4,r2
   21a1c:	00226640 	call	22664 <MIPI_BIN_LEVEL>
	      	 	usleep(500000);
   21a20:	01000234 	movhi	r4,8
   21a24:	21284804 	addi	r4,r4,-24288
   21a28:	00341580 	call	34158 <usleep>
    	 	usleep(500000);

       }
	#endif
/////////////////////COMMUNICATE WITH UART/////////////////
       while ((IORD(0x42000,EEE_IMGPROC_STATUS)>>8) & 0xff) { 	//Find out if there are words to read
   21a2c:	0000b106 	br	21cf4 <main+0x4bc>

    	   int word = IORD(0x42000, EEE_IMGPROC_MSG);
   21a30:	00800134 	movhi	r2,4
   21a34:	10880104 	addi	r2,r2,8196
   21a38:	10800037 	ldwio	r2,0(r2)
   21a3c:	e0bfff15 	stw	r2,-4(fp)
    	   if (word==EEE_IMGPROC_MSG_START) {
   21a40:	e0ffff17 	ldw	r3,-4(fp)
   21a44:	008014b4 	movhi	r2,82
   21a48:	10909084 	addi	r2,r2,16962
   21a4c:	1880a91e 	bne	r3,r2,21cf4 <main+0x4bc>
    		   //printf("\n");
    		   col_and_det = IORD(0x42000, EEE_IMGPROC_MSG);	// Read next item in msg buf
   21a50:	00800134 	movhi	r2,4
   21a54:	10880104 	addi	r2,r2,8196
   21a58:	10c00037 	ldwio	r3,0(r2)
   21a5c:	008000f4 	movhi	r2,3
   21a60:	109f4c04 	addi	r2,r2,32048
   21a64:	10c00015 	stw	r3,0(r2)
    		   x_values = IORD(0x42000, EEE_IMGPROC_MSG);		// Read next item
   21a68:	00800134 	movhi	r2,4
   21a6c:	10880104 	addi	r2,r2,8196
   21a70:	10c00037 	ldwio	r3,0(r2)
   21a74:	008000f4 	movhi	r2,3
   21a78:	109f4d04 	addi	r2,r2,32052
   21a7c:	10c00015 	stw	r3,0(r2)
//
////			   col_and_det = IORD(0x42000, 2);
////			   distances = IORD(0x42000, 3);
//
			   color = (alt_16)(col_and_det >> 16);
   21a80:	008000f4 	movhi	r2,3
   21a84:	109f4c04 	addi	r2,r2,32048
   21a88:	10800017 	ldw	r2,0(r2)
   21a8c:	1005d43a 	srai	r2,r2,16
   21a90:	1007883a 	mov	r3,r2
   21a94:	008000f4 	movhi	r2,3
   21a98:	109f5084 	addi	r2,r2,32066
   21a9c:	10c0000d 	sth	r3,0(r2)
			   detected = (alt_16)(col_and_det & 0xFFFF);	// 16-bit bitmask
   21aa0:	008000f4 	movhi	r2,3
   21aa4:	109f4c04 	addi	r2,r2,32048
   21aa8:	10800017 	ldw	r2,0(r2)
   21aac:	1007883a 	mov	r3,r2
   21ab0:	008000f4 	movhi	r2,3
   21ab4:	109f4f04 	addi	r2,r2,32060
   21ab8:	10c0000d 	sth	r3,0(r2)

			   x_len = (alt_16)(x_values >> 16);
   21abc:	008000f4 	movhi	r2,3
   21ac0:	109f4d04 	addi	r2,r2,32052
   21ac4:	10800017 	ldw	r2,0(r2)
   21ac8:	1005d43a 	srai	r2,r2,16
   21acc:	1007883a 	mov	r3,r2
   21ad0:	008000f4 	movhi	r2,3
   21ad4:	109f4b04 	addi	r2,r2,32044
   21ad8:	10c0000d 	sth	r3,0(r2)
			   x_cen = (alt_16)(x_values & 0xFFFF);
   21adc:	008000f4 	movhi	r2,3
   21ae0:	109f4d04 	addi	r2,r2,32052
   21ae4:	10800017 	ldw	r2,0(r2)
   21ae8:	1007883a 	mov	r3,r2
   21aec:	008000f4 	movhi	r2,3
   21af0:	109f4f84 	addi	r2,r2,32062
   21af4:	10c0000d 	sth	r3,0(r2)

			   diag_dist = 0x0A28/x_len;
   21af8:	008000f4 	movhi	r2,3
   21afc:	109f4b04 	addi	r2,r2,32044
   21b00:	1080000b 	ldhu	r2,0(r2)
   21b04:	10bfffcc 	andi	r2,r2,65535
   21b08:	10a0001c 	xori	r2,r2,32768
   21b0c:	10a00004 	addi	r2,r2,-32768
   21b10:	100b883a 	mov	r5,r2
   21b14:	01028a04 	movi	r4,2600
   21b18:	0022ccc0 	call	22ccc <__divsi3>
   21b1c:	1007883a 	mov	r3,r2
   21b20:	008000f4 	movhi	r2,3
   21b24:	109f5104 	addi	r2,r2,32068
   21b28:	10c0000d 	sth	r3,0(r2)

			   if (x_cen < 0x0140){
   21b2c:	008000f4 	movhi	r2,3
   21b30:	109f4f84 	addi	r2,r2,32062
   21b34:	1080000b 	ldhu	r2,0(r2)
   21b38:	10bfffcc 	andi	r2,r2,65535
   21b3c:	10a0001c 	xori	r2,r2,32768
   21b40:	10a00004 	addi	r2,r2,-32768
   21b44:	10805008 	cmpgei	r2,r2,320
   21b48:	10001e1e 	bne	r2,zero,21bc4 <main+0x38c>
				   pix_dist_from_cen = 0x0140 - x_cen;
   21b4c:	008000f4 	movhi	r2,3
   21b50:	109f4f84 	addi	r2,r2,32062
   21b54:	1080000b 	ldhu	r2,0(r2)
   21b58:	1007883a 	mov	r3,r2
   21b5c:	00805004 	movi	r2,320
   21b60:	10c5c83a 	sub	r2,r2,r3
   21b64:	1007883a 	mov	r3,r2
   21b68:	008000f4 	movhi	r2,3
   21b6c:	109f4e84 	addi	r2,r2,32058
   21b70:	10c0000d 	sth	r3,0(r2)
				   hori_dist = (diag_dist * pix_dist_from_cen * 7) >> 10;
   21b74:	008000f4 	movhi	r2,3
   21b78:	109f5104 	addi	r2,r2,32068
   21b7c:	1080000b 	ldhu	r2,0(r2)
   21b80:	10ffffcc 	andi	r3,r2,65535
   21b84:	18e0001c 	xori	r3,r3,32768
   21b88:	18e00004 	addi	r3,r3,-32768
   21b8c:	008000f4 	movhi	r2,3
   21b90:	109f4e84 	addi	r2,r2,32058
   21b94:	1080000b 	ldhu	r2,0(r2)
   21b98:	10bfffcc 	andi	r2,r2,65535
   21b9c:	10a0001c 	xori	r2,r2,32768
   21ba0:	10a00004 	addi	r2,r2,-32768
   21ba4:	1885383a 	mul	r2,r3,r2
   21ba8:	108001e4 	muli	r2,r2,7
   21bac:	1005d2ba 	srai	r2,r2,10
   21bb0:	1007883a 	mov	r3,r2
   21bb4:	008000f4 	movhi	r2,3
   21bb8:	109f4e04 	addi	r2,r2,32056
   21bbc:	10c0000d 	sth	r3,0(r2)
   21bc0:	00002f06 	br	21c80 <main+0x448>
			   }else if(x_cen > 0x0140){
   21bc4:	008000f4 	movhi	r2,3
   21bc8:	109f4f84 	addi	r2,r2,32062
   21bcc:	1080000b 	ldhu	r2,0(r2)
   21bd0:	10bfffcc 	andi	r2,r2,65535
   21bd4:	10a0001c 	xori	r2,r2,32768
   21bd8:	10a00004 	addi	r2,r2,-32768
   21bdc:	10805050 	cmplti	r2,r2,321
   21be0:	10001c1e 	bne	r2,zero,21c54 <main+0x41c>
				   pix_dist_from_cen = x_cen - 0x0140;
   21be4:	008000f4 	movhi	r2,3
   21be8:	109f4f84 	addi	r2,r2,32062
   21bec:	1080000b 	ldhu	r2,0(r2)
   21bf0:	10bfb004 	addi	r2,r2,-320
   21bf4:	1007883a 	mov	r3,r2
   21bf8:	008000f4 	movhi	r2,3
   21bfc:	109f4e84 	addi	r2,r2,32058
   21c00:	10c0000d 	sth	r3,0(r2)
				   hori_dist = (-7 * diag_dist * pix_dist_from_cen) >> 10;
   21c04:	008000f4 	movhi	r2,3
   21c08:	109f5104 	addi	r2,r2,32068
   21c0c:	1080000b 	ldhu	r2,0(r2)
   21c10:	10bfffcc 	andi	r2,r2,65535
   21c14:	10a0001c 	xori	r2,r2,32768
   21c18:	10a00004 	addi	r2,r2,-32768
   21c1c:	10fffe64 	muli	r3,r2,-7
   21c20:	008000f4 	movhi	r2,3
   21c24:	109f4e84 	addi	r2,r2,32058
   21c28:	1080000b 	ldhu	r2,0(r2)
   21c2c:	10bfffcc 	andi	r2,r2,65535
   21c30:	10a0001c 	xori	r2,r2,32768
   21c34:	10a00004 	addi	r2,r2,-32768
   21c38:	1885383a 	mul	r2,r3,r2
   21c3c:	1005d2ba 	srai	r2,r2,10
   21c40:	1007883a 	mov	r3,r2
   21c44:	008000f4 	movhi	r2,3
   21c48:	109f4e04 	addi	r2,r2,32056
   21c4c:	10c0000d 	sth	r3,0(r2)
   21c50:	00000b06 	br	21c80 <main+0x448>
			   }else if(x_cen == 0x0140){
   21c54:	008000f4 	movhi	r2,3
   21c58:	109f4f84 	addi	r2,r2,32062
   21c5c:	1080000b 	ldhu	r2,0(r2)
   21c60:	10bfffcc 	andi	r2,r2,65535
   21c64:	10a0001c 	xori	r2,r2,32768
   21c68:	10a00004 	addi	r2,r2,-32768
   21c6c:	10805018 	cmpnei	r2,r2,320
   21c70:	1000031e 	bne	r2,zero,21c80 <main+0x448>
				   hori_dist = 0;
   21c74:	008000f4 	movhi	r2,3
   21c78:	109f4e04 	addi	r2,r2,32056
   21c7c:	1000000d 	sth	zero,0(r2)
			   }

			   //printf("Color %08x Detected %08x hori %08x diag %08x\n", color, detected, hori_dist, diag_dist);
			   // Ctrl + b build
			   // Ctrl + F11 is run
    		   sendToControl(color, detected, hori_dist, diag_dist);
   21c80:	008000f4 	movhi	r2,3
   21c84:	109f5084 	addi	r2,r2,32066
   21c88:	1080000b 	ldhu	r2,0(r2)
   21c8c:	10ffffcc 	andi	r3,r2,65535
   21c90:	18e0001c 	xori	r3,r3,32768
   21c94:	18e00004 	addi	r3,r3,-32768
   21c98:	008000f4 	movhi	r2,3
   21c9c:	109f4f04 	addi	r2,r2,32060
   21ca0:	1080000b 	ldhu	r2,0(r2)
   21ca4:	113fffcc 	andi	r4,r2,65535
   21ca8:	2120001c 	xori	r4,r4,32768
   21cac:	21200004 	addi	r4,r4,-32768
   21cb0:	008000f4 	movhi	r2,3
   21cb4:	109f4e04 	addi	r2,r2,32056
   21cb8:	1080000b 	ldhu	r2,0(r2)
   21cbc:	117fffcc 	andi	r5,r2,65535
   21cc0:	2960001c 	xori	r5,r5,32768
   21cc4:	29600004 	addi	r5,r5,-32768
   21cc8:	008000f4 	movhi	r2,3
   21ccc:	109f5104 	addi	r2,r2,32068
   21cd0:	1080000b 	ldhu	r2,0(r2)
   21cd4:	10bfffcc 	andi	r2,r2,65535
   21cd8:	10a0001c 	xori	r2,r2,32768
   21cdc:	10a00004 	addi	r2,r2,-32768
   21ce0:	100f883a 	mov	r7,r2
   21ce4:	280d883a 	mov	r6,r5
   21ce8:	200b883a 	mov	r5,r4
   21cec:	1809883a 	mov	r4,r3
   21cf0:	00216880 	call	21688 <sendToControl>
    	 	usleep(500000);

       }
	#endif
/////////////////////COMMUNICATE WITH UART/////////////////
       while ((IORD(0x42000,EEE_IMGPROC_STATUS)>>8) & 0xff) { 	//Find out if there are words to read
   21cf4:	00800134 	movhi	r2,4
   21cf8:	10880004 	addi	r2,r2,8192
   21cfc:	10800037 	ldwio	r2,0(r2)
   21d00:	1005d23a 	srai	r2,r2,8
   21d04:	10803fcc 	andi	r2,r2,255
   21d08:	103f491e 	bne	r2,zero,21a30 <__alt_data_end+0xfffe1a30>
//       }



       //Update the bounding box colour
       boundingBoxColour = ((boundingBoxColour + 1) & 0xff);
   21d0c:	e0bffa17 	ldw	r2,-24(fp)
   21d10:	10800044 	addi	r2,r2,1
   21d14:	10803fcc 	andi	r2,r2,255
   21d18:	e0bffa15 	stw	r2,-24(fp)
       IOWR(0x42000, EEE_IMGPROC_BBCOL, (boundingBoxColour << 8) | (0xff - boundingBoxColour));
   21d1c:	e0bffa17 	ldw	r2,-24(fp)
   21d20:	1006923a 	slli	r3,r2,8
   21d24:	01003fc4 	movi	r4,255
   21d28:	e0bffa17 	ldw	r2,-24(fp)
   21d2c:	2085c83a 	sub	r2,r4,r2
   21d30:	1886b03a 	or	r3,r3,r2
   21d34:	00800134 	movhi	r2,4
   21d38:	10880304 	addi	r2,r2,8204
   21d3c:	10c00035 	stwio	r3,0(r2)

       //Process input commands
       int in = getchar();
   21d40:	008000f4 	movhi	r2,3
   21d44:	109a9604 	addi	r2,r2,27224
   21d48:	10800017 	ldw	r2,0(r2)
   21d4c:	10800117 	ldw	r2,4(r2)
   21d50:	1009883a 	mov	r4,r2
   21d54:	00234d80 	call	234d8 <getc>
   21d58:	e0bffe15 	stw	r2,-8(fp)
       switch (in) {
   21d5c:	e0bffe17 	ldw	r2,-8(fp)
   21d60:	10bfe704 	addi	r2,r2,-100
   21d64:	10c00468 	cmpgeui	r3,r2,17
   21d68:	1800661e 	bne	r3,zero,21f04 <main+0x6cc>
   21d6c:	100690ba 	slli	r3,r2,2
   21d70:	008000b4 	movhi	r2,2
   21d74:	10876104 	addi	r2,r2,7556
   21d78:	1885883a 	add	r2,r3,r2
   21d7c:	10800017 	ldw	r2,0(r2)
   21d80:	1000683a 	jmp	r2
   21d84:	00021df0 	cmpltui	zero,zero,2167
   21d88:	00021dc8 	cmpgei	zero,zero,2167
   21d8c:	00021ec0 	call	21ec <__alt_mem_onchip_memory2_0-0x1de14>
   21d90:	00021e48 	cmpgei	zero,zero,2169
   21d94:	00021f04 	movi	zero,2172
   21d98:	00021f04 	movi	zero,2172
   21d9c:	00021f04 	movi	zero,2172
   21da0:	00021f04 	movi	zero,2172
   21da4:	00021f04 	movi	zero,2172
   21da8:	00021f04 	movi	zero,2172
   21dac:	00021f04 	movi	zero,2172
   21db0:	00021f04 	movi	zero,2172
   21db4:	00021f04 	movi	zero,2172
   21db8:	00021f04 	movi	zero,2172
   21dbc:	00021e78 	rdprs	zero,zero,2169
   21dc0:	00021f04 	movi	zero,2172
   21dc4:	00021e18 	cmpnei	zero,zero,2168
       	   case 'e': {
       		   exposureTime += EXPOSURE_STEP;
   21dc8:	e0bffb17 	ldw	r2,-20(fp)
   21dcc:	10804004 	addi	r2,r2,256
   21dd0:	e0bffb15 	stw	r2,-20(fp)
       		   OV8865SetExposure(exposureTime);
   21dd4:	e13ffb17 	ldw	r4,-20(fp)
   21dd8:	00223fc0 	call	223fc <OV8865SetExposure>
       		   printf("\nExposure = %x ", exposureTime);
   21ddc:	e17ffb17 	ldw	r5,-20(fp)
   21de0:	010000f4 	movhi	r4,3
   21de4:	2114e704 	addi	r4,r4,21404
   21de8:	00241080 	call	24108 <printf>
       	   	   break;}
   21dec:	00004506 	br	21f04 <main+0x6cc>
       	   case 'd': {
       		   exposureTime -= EXPOSURE_STEP;
   21df0:	e0bffb17 	ldw	r2,-20(fp)
   21df4:	10bfc004 	addi	r2,r2,-256
   21df8:	e0bffb15 	stw	r2,-20(fp)
       		   OV8865SetExposure(exposureTime);
   21dfc:	e13ffb17 	ldw	r4,-20(fp)
   21e00:	00223fc0 	call	223fc <OV8865SetExposure>
       		   printf("\nExposure = %x ", exposureTime);
   21e04:	e17ffb17 	ldw	r5,-20(fp)
   21e08:	010000f4 	movhi	r4,3
   21e0c:	2114e704 	addi	r4,r4,21404
   21e10:	00241080 	call	24108 <printf>
       	   	   break;}
   21e14:	00003b06 	br	21f04 <main+0x6cc>
       	   case 't': {
       		   gain += GAIN_STEP;
   21e18:	e0bffc0b 	ldhu	r2,-16(fp)
   21e1c:	10801004 	addi	r2,r2,64
   21e20:	e0bffc0d 	sth	r2,-16(fp)
       		   OV8865SetGain(gain);
   21e24:	e0bffc0b 	ldhu	r2,-16(fp)
   21e28:	1009883a 	mov	r4,r2
   21e2c:	00224dc0 	call	224dc <OV8865SetGain>
       		   printf("\nGain = %x ", gain);
   21e30:	e0bffc0b 	ldhu	r2,-16(fp)
   21e34:	100b883a 	mov	r5,r2
   21e38:	010000f4 	movhi	r4,3
   21e3c:	2114eb04 	addi	r4,r4,21420
   21e40:	00241080 	call	24108 <printf>
       	   	   break;}
   21e44:	00002f06 	br	21f04 <main+0x6cc>
       	   case 'g': {
       		   gain -= GAIN_STEP;
   21e48:	e0bffc0b 	ldhu	r2,-16(fp)
   21e4c:	10bff004 	addi	r2,r2,-64
   21e50:	e0bffc0d 	sth	r2,-16(fp)
       		   OV8865SetGain(gain);
   21e54:	e0bffc0b 	ldhu	r2,-16(fp)
   21e58:	1009883a 	mov	r4,r2
   21e5c:	00224dc0 	call	224dc <OV8865SetGain>
       		   printf("\nGain = %x ", gain);
   21e60:	e0bffc0b 	ldhu	r2,-16(fp)
   21e64:	100b883a 	mov	r5,r2
   21e68:	010000f4 	movhi	r4,3
   21e6c:	2114eb04 	addi	r4,r4,21420
   21e70:	00241080 	call	24108 <printf>
       	   	   break;}
   21e74:	00002306 	br	21f04 <main+0x6cc>
       	   case 'r': {
        	   current_focus += manual_focus_step;
   21e78:	e0fffc83 	ldbu	r3,-14(fp)
   21e7c:	e0bff98b 	ldhu	r2,-26(fp)
   21e80:	1885883a 	add	r2,r3,r2
   21e84:	e0bff98d 	sth	r2,-26(fp)
        	   if(current_focus >1023) current_focus = 1023;
   21e88:	e0bff98b 	ldhu	r2,-26(fp)
   21e8c:	10810030 	cmpltui	r2,r2,1024
   21e90:	1000021e 	bne	r2,zero,21e9c <main+0x664>
   21e94:	0080ffc4 	movi	r2,1023
   21e98:	e0bff98d 	sth	r2,-26(fp)
        	   OV8865_FOCUS_Move_to(current_focus);
   21e9c:	e0bff98b 	ldhu	r2,-26(fp)
   21ea0:	1009883a 	mov	r4,r2
   21ea4:	002232c0 	call	2232c <OV8865_FOCUS_Move_to>
        	   printf("\nFocus = %x ",current_focus);
   21ea8:	e0bff98b 	ldhu	r2,-26(fp)
   21eac:	100b883a 	mov	r5,r2
   21eb0:	010000f4 	movhi	r4,3
   21eb4:	2114ee04 	addi	r4,r4,21432
   21eb8:	00241080 	call	24108 <printf>
       	   	   break;}
   21ebc:	00001106 	br	21f04 <main+0x6cc>
       	   case 'f': {
        	   if(current_focus > manual_focus_step) current_focus -= manual_focus_step;
   21ec0:	e0bffc83 	ldbu	r2,-14(fp)
   21ec4:	10ffffcc 	andi	r3,r2,65535
   21ec8:	e0bff98b 	ldhu	r2,-26(fp)
   21ecc:	1880042e 	bgeu	r3,r2,21ee0 <main+0x6a8>
   21ed0:	e0bffc83 	ldbu	r2,-14(fp)
   21ed4:	e0fff98b 	ldhu	r3,-26(fp)
   21ed8:	1885c83a 	sub	r2,r3,r2
   21edc:	e0bff98d 	sth	r2,-26(fp)
        	   OV8865_FOCUS_Move_to(current_focus);
   21ee0:	e0bff98b 	ldhu	r2,-26(fp)
   21ee4:	1009883a 	mov	r4,r2
   21ee8:	002232c0 	call	2232c <OV8865_FOCUS_Move_to>
        	   printf("\nFocus = %x ",current_focus);
   21eec:	e0bff98b 	ldhu	r2,-26(fp)
   21ef0:	100b883a 	mov	r5,r2
   21ef4:	010000f4 	movhi	r4,3
   21ef8:	2114ee04 	addi	r4,r4,21432
   21efc:	00241080 	call	24108 <printf>
       	   	   break;}
   21f00:	0001883a 	nop
       }


	   //Main loop delay
	   usleep(10000);
   21f04:	0109c404 	movi	r4,10000
   21f08:	00341580 	call	34158 <usleep>

   };
   21f0c:	003ea206 	br	21998 <__alt_data_end+0xfffe1998>

00021f10 <nSWAP16>:
	{0x0004,0x8047} // Configuration Control Register

};


alt_u16 nSWAP16(alt_u16 x){
   21f10:	defffd04 	addi	sp,sp,-12
   21f14:	df000215 	stw	fp,8(sp)
   21f18:	df000204 	addi	fp,sp,8
   21f1c:	2005883a 	mov	r2,r4
   21f20:	e0bfff0d 	sth	r2,-4(fp)
	alt_u16 y;
	//y =  (((x) >> 8) & 0xff) | (((x) & 0xff) << 8);

//	y = x;
	y = (x >> 8) & 0x00ff;
   21f24:	e0bfff0b 	ldhu	r2,-4(fp)
   21f28:	1004d23a 	srli	r2,r2,8
   21f2c:	e0bffe0d 	sth	r2,-8(fp)
	y |= (x << 8) & 0xff00;
   21f30:	e0bfff0b 	ldhu	r2,-4(fp)
   21f34:	1004923a 	slli	r2,r2,8
   21f38:	1007883a 	mov	r3,r2
   21f3c:	e0bffe0b 	ldhu	r2,-8(fp)
   21f40:	1884b03a 	or	r2,r3,r2
   21f44:	e0bffe0d 	sth	r2,-8(fp)
	return y;
   21f48:	e0bffe0b 	ldhu	r2,-8(fp)
}
   21f4c:	e037883a 	mov	sp,fp
   21f50:	df000017 	ldw	fp,0(sp)
   21f54:	dec00104 	addi	sp,sp,4
   21f58:	f800283a 	ret

00021f5c <MipiBridgeRegWrite>:


void MipiBridgeRegWrite(alt_u16 Addr, alt_u16 Value){
   21f5c:	defffa04 	addi	sp,sp,-24
   21f60:	dfc00515 	stw	ra,20(sp)
   21f64:	df000415 	stw	fp,16(sp)
   21f68:	df000404 	addi	fp,sp,16
   21f6c:	2007883a 	mov	r3,r4
   21f70:	2805883a 	mov	r2,r5
   21f74:	e0fffe0d 	sth	r3,-8(fp)
   21f78:	e0bfff0d 	sth	r2,-4(fp)
	const alt_u8 device_address = MIPI_BRIDGE_I2C_ADDR;
   21f7c:	00800704 	movi	r2,28
   21f80:	e0bffd05 	stb	r2,-12(fp)
	OC_I2CL_Write(I2C_OPENCORES_MIPI_BASE, device_address, Addr, (alt_u8 *)&Value, sizeof(Value));
   21f84:	e0fffd03 	ldbu	r3,-12(fp)
   21f88:	e13ffe0b 	ldhu	r4,-8(fp)
   21f8c:	e17fff04 	addi	r5,fp,-4
   21f90:	00800084 	movi	r2,2
   21f94:	d8800015 	stw	r2,0(sp)
   21f98:	280f883a 	mov	r7,r5
   21f9c:	200d883a 	mov	r6,r4
   21fa0:	180b883a 	mov	r5,r3
   21fa4:	01000134 	movhi	r4,4
   21fa8:	21041804 	addi	r4,r4,4192
   21fac:	0020af00 	call	20af0 <OC_I2CL_Write>
}
   21fb0:	0001883a 	nop
   21fb4:	e037883a 	mov	sp,fp
   21fb8:	dfc00117 	ldw	ra,4(sp)
   21fbc:	df000017 	ldw	fp,0(sp)
   21fc0:	dec00204 	addi	sp,sp,8
   21fc4:	f800283a 	ret

00021fc8 <MipiBridgeRegRead>:

alt_u16 MipiBridgeRegRead(alt_u16 Addr){
   21fc8:	defffa04 	addi	sp,sp,-24
   21fcc:	dfc00515 	stw	ra,20(sp)
   21fd0:	df000415 	stw	fp,16(sp)
   21fd4:	df000404 	addi	fp,sp,16
   21fd8:	2005883a 	mov	r2,r4
   21fdc:	e0bfff0d 	sth	r2,-4(fp)
	alt_u16 Value,tValue;
	const alt_u8 device_address = MIPI_BRIDGE_I2C_ADDR;
   21fe0:	00800704 	movi	r2,28
   21fe4:	e0bffd05 	stb	r2,-12(fp)

	OC_I2CL_Read(I2C_OPENCORES_MIPI_BASE,device_address, Addr,(alt_u8 *)&Value,sizeof(Value));
   21fe8:	e0fffd03 	ldbu	r3,-12(fp)
   21fec:	e13fff0b 	ldhu	r4,-4(fp)
   21ff0:	e17ffe04 	addi	r5,fp,-8
   21ff4:	00800084 	movi	r2,2
   21ff8:	d8800015 	stw	r2,0(sp)
   21ffc:	280f883a 	mov	r7,r5
   22000:	200d883a 	mov	r6,r4
   22004:	180b883a 	mov	r5,r3
   22008:	01000134 	movhi	r4,4
   2200c:	21041804 	addi	r4,r4,4192
   22010:	0020d000 	call	20d00 <OC_I2CL_Read>

	tValue = nSWAP16(Value);
   22014:	e0bffe0b 	ldhu	r2,-8(fp)
   22018:	10bfffcc 	andi	r2,r2,65535
   2201c:	1009883a 	mov	r4,r2
   22020:	0021f100 	call	21f10 <nSWAP16>
   22024:	e0bffd8d 	sth	r2,-10(fp)

	return (tValue);
   22028:	e0bffd8b 	ldhu	r2,-10(fp)
}
   2202c:	e037883a 	mov	sp,fp
   22030:	dfc00117 	ldw	ra,4(sp)
   22034:	df000017 	ldw	fp,0(sp)
   22038:	dec00204 	addi	sp,sp,8
   2203c:	f800283a 	ret

00022040 <MipiBridgeInit>:




void MipiBridgeInit(void){
   22040:	defffb04 	addi	sp,sp,-20
   22044:	dfc00415 	stw	ra,16(sp)
   22048:	df000315 	stw	fp,12(sp)
   2204c:	df000304 	addi	fp,sp,12

	alt_u16 data;
    int i, num;

	printf("\nStart MipiBridgeInit!\n");
   22050:	010000f4 	movhi	r4,3
   22054:	2114f204 	addi	r4,r4,21448
   22058:	00242240 	call	24224 <puts>

	data = MipiBridgeRegRead(0x0000); // read chip and revision id;
   2205c:	0009883a 	mov	r4,zero
   22060:	0021fc80 	call	21fc8 <MipiBridgeRegRead>
   22064:	e0bffe0d 	sth	r2,-8(fp)

	printf("Chip and Revision ID is 0x%04xh(expected: 0x4401);\n",data);
   22068:	e0bffe0b 	ldhu	r2,-8(fp)
   2206c:	100b883a 	mov	r5,r2
   22070:	010000f4 	movhi	r4,3
   22074:	2114f804 	addi	r4,r4,21472
   22078:	00241080 	call	24108 <printf>


    num = sizeof(MipiBridgeReg)/sizeof(MipiBridgeReg[0]);
   2207c:	00800344 	movi	r2,13
   22080:	e0bfff15 	stw	r2,-4(fp)

    for(i=0;i<num;i++){
   22084:	e03ffd15 	stw	zero,-12(fp)
   22088:	00002d06 	br	22140 <MipiBridgeInit+0x100>
   	 if (MipiBridgeReg[i].Addr == 0xFFFF)   usleep(MipiBridgeReg[i].Data*1000);
   2208c:	008000f4 	movhi	r2,3
   22090:	1095ff04 	addi	r2,r2,22524
   22094:	e0fffd17 	ldw	r3,-12(fp)
   22098:	18c7883a 	add	r3,r3,r3
   2209c:	18c7883a 	add	r3,r3,r3
   220a0:	10c5883a 	add	r2,r2,r3
   220a4:	1080000b 	ldhu	r2,0(r2)
   220a8:	10ffffcc 	andi	r3,r2,65535
   220ac:	00bfffd4 	movui	r2,65535
   220b0:	18800d1e 	bne	r3,r2,220e8 <MipiBridgeInit+0xa8>
   220b4:	008000f4 	movhi	r2,3
   220b8:	1095ff04 	addi	r2,r2,22524
   220bc:	e0fffd17 	ldw	r3,-12(fp)
   220c0:	18c7883a 	add	r3,r3,r3
   220c4:	18c7883a 	add	r3,r3,r3
   220c8:	10c5883a 	add	r2,r2,r3
   220cc:	10800084 	addi	r2,r2,2
   220d0:	1080000b 	ldhu	r2,0(r2)
   220d4:	10bfffcc 	andi	r2,r2,65535
   220d8:	1080fa24 	muli	r2,r2,1000
   220dc:	1009883a 	mov	r4,r2
   220e0:	00341580 	call	34158 <usleep>
   220e4:	00001306 	br	22134 <MipiBridgeInit+0xf4>
        else MipiBridgeRegWrite(MipiBridgeReg[i].Addr,  MipiBridgeReg[i].Data);
   220e8:	008000f4 	movhi	r2,3
   220ec:	1095ff04 	addi	r2,r2,22524
   220f0:	e0fffd17 	ldw	r3,-12(fp)
   220f4:	18c7883a 	add	r3,r3,r3
   220f8:	18c7883a 	add	r3,r3,r3
   220fc:	10c5883a 	add	r2,r2,r3
   22100:	1080000b 	ldhu	r2,0(r2)
   22104:	113fffcc 	andi	r4,r2,65535
   22108:	008000f4 	movhi	r2,3
   2210c:	1095ff04 	addi	r2,r2,22524
   22110:	e0fffd17 	ldw	r3,-12(fp)
   22114:	18c7883a 	add	r3,r3,r3
   22118:	18c7883a 	add	r3,r3,r3
   2211c:	10c5883a 	add	r2,r2,r3
   22120:	10800084 	addi	r2,r2,2
   22124:	1080000b 	ldhu	r2,0(r2)
   22128:	10bfffcc 	andi	r2,r2,65535
   2212c:	100b883a 	mov	r5,r2
   22130:	0021f5c0 	call	21f5c <MipiBridgeRegWrite>
	printf("Chip and Revision ID is 0x%04xh(expected: 0x4401);\n",data);


    num = sizeof(MipiBridgeReg)/sizeof(MipiBridgeReg[0]);

    for(i=0;i<num;i++){
   22134:	e0bffd17 	ldw	r2,-12(fp)
   22138:	10800044 	addi	r2,r2,1
   2213c:	e0bffd15 	stw	r2,-12(fp)
   22140:	e0fffd17 	ldw	r3,-12(fp)
   22144:	e0bfff17 	ldw	r2,-4(fp)
   22148:	18bfd016 	blt	r3,r2,2208c <__alt_data_end+0xfffe208c>
//     MipiBridgeRegWrite(0x005A,((cap<<6) + (HsRxRs<<4) + ClkDly_data));
//     MipiBridgeRegWrite(0x005C,((cap<<6) + (HsRxRs<<4) + ClkDly_data));
//     MipiBridgeRegWrite(0x005E,((cap<<6) + (HsRxRs<<4) + ClkDly_data));
//

    printf("End MipiBridgeInit!\n\n");
   2214c:	010000f4 	movhi	r4,3
   22150:	21150504 	addi	r4,r4,21524
   22154:	00242240 	call	24224 <puts>

}
   22158:	0001883a 	nop
   2215c:	e037883a 	mov	sp,fp
   22160:	dfc00117 	ldw	ra,4(sp)
   22164:	df000017 	ldw	fp,0(sp)
   22168:	dec00204 	addi	sp,sp,8
   2216c:	f800283a 	ret

00022170 <OV8865_read_cmos_sensor_8>:
   };




alt_u8 OV8865_read_cmos_sensor_8(alt_u16 Addr){
   22170:	defffb04 	addi	sp,sp,-20
   22174:	dfc00415 	stw	ra,16(sp)
   22178:	df000315 	stw	fp,12(sp)
   2217c:	df000304 	addi	fp,sp,12
   22180:	2005883a 	mov	r2,r4
   22184:	e0bfff0d 	sth	r2,-4(fp)
	const alt_u8 device_address = MIPI_I2C_ADDR;
   22188:	00801b04 	movi	r2,108
   2218c:	e0bffe05 	stb	r2,-8(fp)
	alt_u8 Value;

	//OC_I2CL_Write(I2C_OPENCORES_CAMERA_BASE, device_address, SWAP16(Addr), (alt_u8 *)&Value, sizeof(Value));
	OC_I2CL_Read(I2C_OPENCORES_CAMERA_BASE, device_address, Addr, (alt_u8 *)&Value, sizeof(Value));
   22190:	e0fffe03 	ldbu	r3,-8(fp)
   22194:	e13fff0b 	ldhu	r4,-4(fp)
   22198:	e17ffe44 	addi	r5,fp,-7
   2219c:	00800044 	movi	r2,1
   221a0:	d8800015 	stw	r2,0(sp)
   221a4:	280f883a 	mov	r7,r5
   221a8:	200d883a 	mov	r6,r4
   221ac:	180b883a 	mov	r5,r3
   221b0:	01000134 	movhi	r4,4
   221b4:	21041004 	addi	r4,r4,4160
   221b8:	0020d000 	call	20d00 <OC_I2CL_Read>

	return (Value);
   221bc:	e0bffe43 	ldbu	r2,-7(fp)
}
   221c0:	e037883a 	mov	sp,fp
   221c4:	dfc00117 	ldw	ra,4(sp)
   221c8:	df000017 	ldw	fp,0(sp)
   221cc:	dec00204 	addi	sp,sp,8
   221d0:	f800283a 	ret

000221d4 <OV8865_write_cmos_sensor_8>:


void OV8865_write_cmos_sensor_8(alt_u16 Addr, alt_u8 Value){
   221d4:	defffa04 	addi	sp,sp,-24
   221d8:	dfc00515 	stw	ra,20(sp)
   221dc:	df000415 	stw	fp,16(sp)
   221e0:	df000404 	addi	fp,sp,16
   221e4:	2007883a 	mov	r3,r4
   221e8:	2805883a 	mov	r2,r5
   221ec:	e0fffe0d 	sth	r3,-8(fp)
   221f0:	e0bfff05 	stb	r2,-4(fp)
	const alt_u8 device_address = MIPI_I2C_ADDR;
   221f4:	00801b04 	movi	r2,108
   221f8:	e0bffd05 	stb	r2,-12(fp)
	//OC_I2CL_Write(I2C_OPENCORES_CAMERA_BASE, device_address, SWAP16(Addr), (alt_u8 *)&Value, sizeof(Value));
	OC_I2CL_Write(I2C_OPENCORES_CAMERA_BASE, device_address, Addr, (alt_u8 *)&Value, sizeof(Value));
   221fc:	e0fffd03 	ldbu	r3,-12(fp)
   22200:	e13ffe0b 	ldhu	r4,-8(fp)
   22204:	e17fff04 	addi	r5,fp,-4
   22208:	00800044 	movi	r2,1
   2220c:	d8800015 	stw	r2,0(sp)
   22210:	280f883a 	mov	r7,r5
   22214:	200d883a 	mov	r6,r4
   22218:	180b883a 	mov	r5,r3
   2221c:	01000134 	movhi	r4,4
   22220:	21041004 	addi	r4,r4,4160
   22224:	0020af00 	call	20af0 <OC_I2CL_Write>
}
   22228:	0001883a 	nop
   2222c:	e037883a 	mov	sp,fp
   22230:	dfc00117 	ldw	ra,4(sp)
   22234:	df000017 	ldw	fp,0(sp)
   22238:	dec00204 	addi	sp,sp,8
   2223c:	f800283a 	ret

00022240 <OV8865_write_AF>:


void OV8865_write_AF(alt_u8 msb, alt_u8 lsb){
   22240:	defffa04 	addi	sp,sp,-24
   22244:	dfc00515 	stw	ra,20(sp)
   22248:	df000415 	stw	fp,16(sp)
   2224c:	df000404 	addi	fp,sp,16
   22250:	2007883a 	mov	r3,r4
   22254:	2805883a 	mov	r2,r5
   22258:	e0fffe05 	stb	r3,-8(fp)
   2225c:	e0bfff05 	stb	r2,-4(fp)
	// VCM149C
	const alt_u8 device_address = MIPI_AF_I2C_ADDR;
   22260:	00800604 	movi	r2,24
   22264:	e0bffd05 	stb	r2,-12(fp)
	OC_I2C_Write(I2C_OPENCORES_CAMERA_BASE, device_address, msb, (alt_u8 *)&lsb, sizeof(lsb));
   22268:	e0fffd03 	ldbu	r3,-12(fp)
   2226c:	e13ffe03 	ldbu	r4,-8(fp)
   22270:	e17fff04 	addi	r5,fp,-4
   22274:	00800044 	movi	r2,1
   22278:	d8800015 	stw	r2,0(sp)
   2227c:	280f883a 	mov	r7,r5
   22280:	200d883a 	mov	r6,r4
   22284:	180b883a 	mov	r5,r3
   22288:	01000134 	movhi	r4,4
   2228c:	21041004 	addi	r4,r4,4160
   22290:	00205880 	call	20588 <OC_I2C_Write>
}
   22294:	0001883a 	nop
   22298:	e037883a 	mov	sp,fp
   2229c:	dfc00117 	ldw	ra,4(sp)
   222a0:	df000017 	ldw	fp,0(sp)
   222a4:	dec00204 	addi	sp,sp,8
   222a8:	f800283a 	ret

000222ac <OV8865_read_AF>:

void OV8865_read_AF(void){
   222ac:	defffb04 	addi	sp,sp,-20
   222b0:	dfc00415 	stw	ra,16(sp)
   222b4:	df000315 	stw	fp,12(sp)
   222b8:	df000304 	addi	fp,sp,12
	// VCM149C
	const alt_u8 device_address = MIPI_AF_I2C_ADDR;
   222bc:	00800604 	movi	r2,24
   222c0:	e0bffd05 	stb	r2,-12(fp)
	alt_u8 szData8[2];
	bool bSuccess;

		bSuccess = OC_I2C_Read_Continue(I2C_OPENCORES_CAMERA_BASE, device_address, szData8, sizeof(szData8));
   222c4:	e0bffd03 	ldbu	r2,-12(fp)
   222c8:	e0ffff04 	addi	r3,fp,-4
   222cc:	01c00084 	movi	r7,2
   222d0:	180d883a 	mov	r6,r3
   222d4:	100b883a 	mov	r5,r2
   222d8:	01000134 	movhi	r4,4
   222dc:	21041004 	addi	r4,r4,4160
   222e0:	00209b80 	call	209b8 <OC_I2C_Read_Continue>
   222e4:	e0bffe15 	stw	r2,-8(fp)
		if (bSuccess)
   222e8:	e0bffe17 	ldw	r2,-8(fp)
   222ec:	10000926 	beq	r2,zero,22314 <OV8865_read_AF+0x68>
			printf("Read MSB=%xh, LSB=%xh\r\n", szData8[0], szData8[1]);
   222f0:	e0bfff03 	ldbu	r2,-4(fp)
   222f4:	10803fcc 	andi	r2,r2,255
   222f8:	e0ffff43 	ldbu	r3,-3(fp)
   222fc:	18c03fcc 	andi	r3,r3,255
   22300:	180d883a 	mov	r6,r3
   22304:	100b883a 	mov	r5,r2
   22308:	010000f4 	movhi	r4,3
   2230c:	21150b04 	addi	r4,r4,21548
   22310:	00241080 	call	24108 <printf>
}
   22314:	0001883a 	nop
   22318:	e037883a 	mov	sp,fp
   2231c:	dfc00117 	ldw	ra,4(sp)
   22320:	df000017 	ldw	fp,0(sp)
   22324:	dec00204 	addi	sp,sp,8
   22328:	f800283a 	ret

0002232c <OV8865_FOCUS_Move_to>:

void OV8865_FOCUS_Move_to(alt_u16 a_u2MovePosition)
{
   2232c:	defffb04 	addi	sp,sp,-20
   22330:	dfc00415 	stw	ra,16(sp)
   22334:	df000315 	stw	fp,12(sp)
   22338:	df000304 	addi	fp,sp,12
   2233c:	2005883a 	mov	r2,r4
   22340:	e0bfff0d 	sth	r2,-4(fp)
  if (a_u2MovePosition > 1023)   {a_u2MovePosition = 1023;}
   22344:	e0bfff0b 	ldhu	r2,-4(fp)
   22348:	10810030 	cmpltui	r2,r2,1024
   2234c:	1000021e 	bne	r2,zero,22358 <OV8865_FOCUS_Move_to+0x2c>
   22350:	0080ffc4 	movi	r2,1023
   22354:	e0bfff0d 	sth	r2,-4(fp)
  if (a_u2MovePosition < 0)     {a_u2MovePosition = 0;}
  int bSuccess;

  Focus_Released(); // waiting for VCM release I2C bus
   22358:	00212880 	call	21288 <Focus_Released>

	bSuccess = oc_i2c_init_ex(I2C_OPENCORES_CAMERA_BASE, 50*1000*1000,400*1000); //I2C: 400K
   2235c:	018001b4 	movhi	r6,6
   22360:	3186a004 	addi	r6,r6,6784
   22364:	0140bef4 	movhi	r5,763
   22368:	297c2004 	addi	r5,r5,-3968
   2236c:	01000134 	movhi	r4,4
   22370:	21041004 	addi	r4,r4,4160
   22374:	00202dc0 	call	202dc <oc_i2c_init_ex>
   22378:	e0bffd15 	stw	r2,-12(fp)
	if (!bSuccess)
   2237c:	e0bffd17 	ldw	r2,-12(fp)
   22380:	1000031e 	bne	r2,zero,22390 <OV8865_FOCUS_Move_to+0x64>
		printf("failed to init MIPI- Camera i2c\r\n");
   22384:	010000f4 	movhi	r4,3
   22388:	21151104 	addi	r4,r4,21572
   2238c:	00242240 	call	24224 <puts>

	//printf("Manual set focus to %d\r\n",a_u2MovePosition);
  alt_u8 msb,lsb;
  msb = (a_u2MovePosition >> 4)&0x00FF;
   22390:	e0bfff0b 	ldhu	r2,-4(fp)
   22394:	1004d13a 	srli	r2,r2,4
   22398:	e0bffe05 	stb	r2,-8(fp)
  lsb = (a_u2MovePosition << 4 )&0x00F0;
   2239c:	e0bfff0b 	ldhu	r2,-4(fp)
   223a0:	1004913a 	slli	r2,r2,4
   223a4:	e0bffe45 	stb	r2,-7(fp)
  lsb += 0x06;
   223a8:	e0bffe43 	ldbu	r2,-7(fp)
   223ac:	10800184 	addi	r2,r2,6
   223b0:	e0bffe45 	stb	r2,-7(fp)
//	printf("Write MSB=%xh, LSB=%xh\r\n", msb, lsb);
	OV8865_write_AF(msb, lsb+0x6);
   223b4:	e0fffe03 	ldbu	r3,-8(fp)
   223b8:	e0bffe43 	ldbu	r2,-7(fp)
   223bc:	10800184 	addi	r2,r2,6
   223c0:	10803fcc 	andi	r2,r2,255
   223c4:	100b883a 	mov	r5,r2
   223c8:	1809883a 	mov	r4,r3
   223cc:	00222400 	call	22240 <OV8865_write_AF>
	usleep(1000);
   223d0:	0100fa04 	movi	r4,1000
   223d4:	00341580 	call	34158 <usleep>
//	OV8865_read_AF();

	oc_i2c_uninit(I2C_OPENCORES_CAMERA_BASE);  // Release I2C bus , due to two I2C master shared!
   223d8:	01000134 	movhi	r4,4
   223dc:	21041004 	addi	r4,r4,4160
   223e0:	00204180 	call	20418 <oc_i2c_uninit>

}
   223e4:	0001883a 	nop
   223e8:	e037883a 	mov	sp,fp
   223ec:	dfc00117 	ldw	ra,4(sp)
   223f0:	df000017 	ldw	fp,0(sp)
   223f4:	dec00204 	addi	sp,sp,8
   223f8:	f800283a 	ret

000223fc <OV8865SetExposure>:

void OV8865SetExposure(alt_u32 exposure){
   223fc:	defffc04 	addi	sp,sp,-16
   22400:	dfc00315 	stw	ra,12(sp)
   22404:	df000215 	stw	fp,8(sp)
   22408:	df000204 	addi	fp,sp,8
   2240c:	e13fff15 	stw	r4,-4(fp)

	Focus_Released(); // waiting for VCM release I2C bus
   22410:	00212880 	call	21288 <Focus_Released>

	int bSuccess = oc_i2c_init_ex(I2C_OPENCORES_CAMERA_BASE, 50*1000*1000,400*1000); //I2C: 400K
   22414:	018001b4 	movhi	r6,6
   22418:	3186a004 	addi	r6,r6,6784
   2241c:	0140bef4 	movhi	r5,763
   22420:	297c2004 	addi	r5,r5,-3968
   22424:	01000134 	movhi	r4,4
   22428:	21041004 	addi	r4,r4,4160
   2242c:	00202dc0 	call	202dc <oc_i2c_init_ex>
   22430:	e0bffe15 	stw	r2,-8(fp)
	if (!bSuccess)
   22434:	e0bffe17 	ldw	r2,-8(fp)
   22438:	1000031e 	bne	r2,zero,22448 <OV8865SetExposure+0x4c>
		printf("failed to init MIPI- Camera i2c\r\n");
   2243c:	010000f4 	movhi	r4,3
   22440:	21151104 	addi	r4,r4,21572
   22444:	00242240 	call	24224 <puts>

	if (exposure > 0xFFFFF) exposure = 0xFFFFF;
   22448:	e0ffff17 	ldw	r3,-4(fp)
   2244c:	00800434 	movhi	r2,16
   22450:	18800336 	bltu	r3,r2,22460 <OV8865SetExposure+0x64>
   22454:	00800434 	movhi	r2,16
   22458:	10bfffc4 	addi	r2,r2,-1
   2245c:	e0bfff15 	stw	r2,-4(fp)
	if (exposure < 0x20) exposure = 0x20;
   22460:	e0bfff17 	ldw	r2,-4(fp)
   22464:	10800828 	cmpgeui	r2,r2,32
   22468:	1000021e 	bne	r2,zero,22474 <OV8865SetExposure+0x78>
   2246c:	00800804 	movi	r2,32
   22470:	e0bfff15 	stw	r2,-4(fp)

	OV8865_write_cmos_sensor_8(0x3500, (exposure >> 16) & 0x0F);
   22474:	e0bfff17 	ldw	r2,-4(fp)
   22478:	1004d43a 	srli	r2,r2,16
   2247c:	108003cc 	andi	r2,r2,15
   22480:	100b883a 	mov	r5,r2
   22484:	010d4004 	movi	r4,13568
   22488:	00221d40 	call	221d4 <OV8865_write_cmos_sensor_8>
	OV8865_write_cmos_sensor_8(0x3501, (exposure >> 8) & 0xFF);
   2248c:	e0bfff17 	ldw	r2,-4(fp)
   22490:	1004d23a 	srli	r2,r2,8
   22494:	10803fcc 	andi	r2,r2,255
   22498:	100b883a 	mov	r5,r2
   2249c:	010d4044 	movi	r4,13569
   224a0:	00221d40 	call	221d4 <OV8865_write_cmos_sensor_8>
	OV8865_write_cmos_sensor_8(0x3502, exposure & 0xFF);
   224a4:	e0bfff17 	ldw	r2,-4(fp)
   224a8:	10803fcc 	andi	r2,r2,255
   224ac:	100b883a 	mov	r5,r2
   224b0:	010d4084 	movi	r4,13570
   224b4:	00221d40 	call	221d4 <OV8865_write_cmos_sensor_8>


	oc_i2c_uninit(I2C_OPENCORES_CAMERA_BASE);
   224b8:	01000134 	movhi	r4,4
   224bc:	21041004 	addi	r4,r4,4160
   224c0:	00204180 	call	20418 <oc_i2c_uninit>
}
   224c4:	0001883a 	nop
   224c8:	e037883a 	mov	sp,fp
   224cc:	dfc00117 	ldw	ra,4(sp)
   224d0:	df000017 	ldw	fp,0(sp)
   224d4:	dec00204 	addi	sp,sp,8
   224d8:	f800283a 	ret

000224dc <OV8865SetGain>:

void OV8865SetGain(alt_u16 gain){
   224dc:	defffc04 	addi	sp,sp,-16
   224e0:	dfc00315 	stw	ra,12(sp)
   224e4:	df000215 	stw	fp,8(sp)
   224e8:	df000204 	addi	fp,sp,8
   224ec:	2005883a 	mov	r2,r4
   224f0:	e0bfff0d 	sth	r2,-4(fp)

	Focus_Released(); // waiting for VCM release I2C bus
   224f4:	00212880 	call	21288 <Focus_Released>

	int bSuccess = oc_i2c_init_ex(I2C_OPENCORES_CAMERA_BASE, 50*1000*1000,400*1000); //I2C: 400K
   224f8:	018001b4 	movhi	r6,6
   224fc:	3186a004 	addi	r6,r6,6784
   22500:	0140bef4 	movhi	r5,763
   22504:	297c2004 	addi	r5,r5,-3968
   22508:	01000134 	movhi	r4,4
   2250c:	21041004 	addi	r4,r4,4160
   22510:	00202dc0 	call	202dc <oc_i2c_init_ex>
   22514:	e0bffe15 	stw	r2,-8(fp)
	if (!bSuccess)
   22518:	e0bffe17 	ldw	r2,-8(fp)
   2251c:	1000031e 	bne	r2,zero,2252c <OV8865SetGain+0x50>
		printf("failed to init MIPI- Camera i2c\r\n");
   22520:	010000f4 	movhi	r4,3
   22524:	21151104 	addi	r4,r4,21572
   22528:	00242240 	call	24224 <puts>

	if (gain > 0x7FF) gain = 0x7FF;
   2252c:	e0bfff0b 	ldhu	r2,-4(fp)
   22530:	10820030 	cmpltui	r2,r2,2048
   22534:	1000021e 	bne	r2,zero,22540 <OV8865SetGain+0x64>
   22538:	0081ffc4 	movi	r2,2047
   2253c:	e0bfff0d 	sth	r2,-4(fp)
	if (gain < 0x080) gain = 0x080;
   22540:	e0bfff0b 	ldhu	r2,-4(fp)
   22544:	10802028 	cmpgeui	r2,r2,128
   22548:	1000021e 	bne	r2,zero,22554 <OV8865SetGain+0x78>
   2254c:	00802004 	movi	r2,128
   22550:	e0bfff0d 	sth	r2,-4(fp)

	OV8865_write_cmos_sensor_8(0x3508, (gain >> 8) & 0x0F);
   22554:	e0bfff0b 	ldhu	r2,-4(fp)
   22558:	1004d23a 	srli	r2,r2,8
   2255c:	10803fcc 	andi	r2,r2,255
   22560:	108003cc 	andi	r2,r2,15
   22564:	100b883a 	mov	r5,r2
   22568:	010d4204 	movi	r4,13576
   2256c:	00221d40 	call	221d4 <OV8865_write_cmos_sensor_8>
	OV8865_write_cmos_sensor_8(0x3509, gain & 0xFF);
   22570:	e0bfff0b 	ldhu	r2,-4(fp)
   22574:	10803fcc 	andi	r2,r2,255
   22578:	100b883a 	mov	r5,r2
   2257c:	010d4244 	movi	r4,13577
   22580:	00221d40 	call	221d4 <OV8865_write_cmos_sensor_8>


	oc_i2c_uninit(I2C_OPENCORES_CAMERA_BASE);
   22584:	01000134 	movhi	r4,4
   22588:	21041004 	addi	r4,r4,4160
   2258c:	00204180 	call	20418 <oc_i2c_uninit>
}
   22590:	0001883a 	nop
   22594:	e037883a 	mov	sp,fp
   22598:	dfc00117 	ldw	ra,4(sp)
   2259c:	df000017 	ldw	fp,0(sp)
   225a0:	dec00204 	addi	sp,sp,8
   225a4:	f800283a 	ret

000225a8 <OV8865ReadExposure>:

alt_u32 OV8865ReadExposure(){
   225a8:	defffb04 	addi	sp,sp,-20
   225ac:	dfc00415 	stw	ra,16(sp)
   225b0:	df000315 	stw	fp,12(sp)
   225b4:	dc000215 	stw	r16,8(sp)
   225b8:	df000304 	addi	fp,sp,12

	alt_u32 exposure;

	Focus_Released(); // waiting for VCM release I2C bus
   225bc:	00212880 	call	21288 <Focus_Released>

	int bSuccess = oc_i2c_init_ex(I2C_OPENCORES_CAMERA_BASE, 50*1000*1000,400*1000); //I2C: 400K
   225c0:	018001b4 	movhi	r6,6
   225c4:	3186a004 	addi	r6,r6,6784
   225c8:	0140bef4 	movhi	r5,763
   225cc:	297c2004 	addi	r5,r5,-3968
   225d0:	01000134 	movhi	r4,4
   225d4:	21041004 	addi	r4,r4,4160
   225d8:	00202dc0 	call	202dc <oc_i2c_init_ex>
   225dc:	e0bffd15 	stw	r2,-12(fp)
	if (!bSuccess)
   225e0:	e0bffd17 	ldw	r2,-12(fp)
   225e4:	1000031e 	bne	r2,zero,225f4 <OV8865ReadExposure+0x4c>
		printf("failed to init MIPI- Camera i2c\r\n");
   225e8:	010000f4 	movhi	r4,3
   225ec:	21151104 	addi	r4,r4,21572
   225f0:	00242240 	call	24224 <puts>

	exposure = OV8865_read_cmos_sensor_8(0x3500);
   225f4:	010d4004 	movi	r4,13568
   225f8:	00221700 	call	22170 <OV8865_read_cmos_sensor_8>
   225fc:	10803fcc 	andi	r2,r2,255
   22600:	e0bffe15 	stw	r2,-8(fp)
	exposure = (exposure <<8) | OV8865_read_cmos_sensor_8(0x3501);
   22604:	e0bffe17 	ldw	r2,-8(fp)
   22608:	1020923a 	slli	r16,r2,8
   2260c:	010d4044 	movi	r4,13569
   22610:	00221700 	call	22170 <OV8865_read_cmos_sensor_8>
   22614:	10803fcc 	andi	r2,r2,255
   22618:	8084b03a 	or	r2,r16,r2
   2261c:	e0bffe15 	stw	r2,-8(fp)
	exposure = (exposure <<8) | OV8865_read_cmos_sensor_8(0x3502);
   22620:	e0bffe17 	ldw	r2,-8(fp)
   22624:	1020923a 	slli	r16,r2,8
   22628:	010d4084 	movi	r4,13570
   2262c:	00221700 	call	22170 <OV8865_read_cmos_sensor_8>
   22630:	10803fcc 	andi	r2,r2,255
   22634:	8084b03a 	or	r2,r16,r2
   22638:	e0bffe15 	stw	r2,-8(fp)

	oc_i2c_uninit(I2C_OPENCORES_CAMERA_BASE);
   2263c:	01000134 	movhi	r4,4
   22640:	21041004 	addi	r4,r4,4160
   22644:	00204180 	call	20418 <oc_i2c_uninit>

	return exposure;
   22648:	e0bffe17 	ldw	r2,-8(fp)
}
   2264c:	e6ffff04 	addi	sp,fp,-4
   22650:	dfc00217 	ldw	ra,8(sp)
   22654:	df000117 	ldw	fp,4(sp)
   22658:	dc000017 	ldw	r16,0(sp)
   2265c:	dec00304 	addi	sp,sp,12
   22660:	f800283a 	ret

00022664 <MIPI_BIN_LEVEL>:




//ZOOM
void MIPI_BIN_LEVEL(alt_u8 level){
   22664:	defffc04 	addi	sp,sp,-16
   22668:	dfc00315 	stw	ra,12(sp)
   2266c:	df000215 	stw	fp,8(sp)
   22670:	df000204 	addi	fp,sp,8
   22674:	2005883a 	mov	r2,r4
   22678:	e0bfff05 	stb	r2,-4(fp)
	if(level <= 1) level = 1;
   2267c:	e0bfff03 	ldbu	r2,-4(fp)
   22680:	108000a8 	cmpgeui	r2,r2,2
   22684:	1000021e 	bne	r2,zero,22690 <MIPI_BIN_LEVEL+0x2c>
   22688:	00800044 	movi	r2,1
   2268c:	e0bfff05 	stb	r2,-4(fp)
	if(level >= 3) level = 3;
   22690:	e0bfff03 	ldbu	r2,-4(fp)
   22694:	108000f0 	cmpltui	r2,r2,3
   22698:	1000021e 	bne	r2,zero,226a4 <MIPI_BIN_LEVEL+0x40>
   2269c:	008000c4 	movi	r2,3
   226a0:	e0bfff05 	stb	r2,-4(fp)

	  Focus_Released(); // waiting for VCM release I2C bus
   226a4:	00212880 	call	21288 <Focus_Released>

	  int bSuccess;
		bSuccess = oc_i2c_init_ex(I2C_OPENCORES_CAMERA_BASE, 50*1000*1000,400*1000); //I2C: 400K
   226a8:	018001b4 	movhi	r6,6
   226ac:	3186a004 	addi	r6,r6,6784
   226b0:	0140bef4 	movhi	r5,763
   226b4:	297c2004 	addi	r5,r5,-3968
   226b8:	01000134 	movhi	r4,4
   226bc:	21041004 	addi	r4,r4,4160
   226c0:	00202dc0 	call	202dc <oc_i2c_init_ex>
   226c4:	e0bffe15 	stw	r2,-8(fp)
		if (!bSuccess)
   226c8:	e0bffe17 	ldw	r2,-8(fp)
   226cc:	1000031e 	bne	r2,zero,226dc <MIPI_BIN_LEVEL+0x78>
			printf("failed to init MIPI- Camera i2c\r\n");
   226d0:	010000f4 	movhi	r4,3
   226d4:	21151104 	addi	r4,r4,21572
   226d8:	00242240 	call	24224 <puts>


	OV8865_write_cmos_sensor_8(0x0100, 0x00);
   226dc:	000b883a 	mov	r5,zero
   226e0:	01004004 	movi	r4,256
   226e4:	00221d40 	call	221d4 <OV8865_write_cmos_sensor_8>

	if(level == 1){
   226e8:	e0bfff03 	ldbu	r2,-4(fp)
   226ec:	10800058 	cmpnei	r2,r2,1
   226f0:	1000131e 	bne	r2,zero,22740 <MIPI_BIN_LEVEL+0xdc>

		OV8865_write_cmos_sensor_8(0x3814, 0x01);
   226f4:	01400044 	movi	r5,1
   226f8:	010e0504 	movi	r4,14356
   226fc:	00221d40 	call	221d4 <OV8865_write_cmos_sensor_8>
		OV8865_write_cmos_sensor_8(0x3815, 0x01);
   22700:	01400044 	movi	r5,1
   22704:	010e0544 	movi	r4,14357
   22708:	00221d40 	call	221d4 <OV8865_write_cmos_sensor_8>
		OV8865_write_cmos_sensor_8(0x382a, 0x01);
   2270c:	01400044 	movi	r5,1
   22710:	010e0a84 	movi	r4,14378
   22714:	00221d40 	call	221d4 <OV8865_write_cmos_sensor_8>
		OV8865_write_cmos_sensor_8(0x382b, 0x01);
   22718:	01400044 	movi	r5,1
   2271c:	010e0ac4 	movi	r4,14379
   22720:	00221d40 	call	221d4 <OV8865_write_cmos_sensor_8>

		OV8865_write_cmos_sensor_8(0x3830, 8);
   22724:	01400204 	movi	r5,8
   22728:	010e0c04 	movi	r4,14384
   2272c:	00221d40 	call	221d4 <OV8865_write_cmos_sensor_8>
		OV8865_write_cmos_sensor_8(0x3836, 2);
   22730:	01400084 	movi	r5,2
   22734:	010e0d84 	movi	r4,14390
   22738:	00221d40 	call	221d4 <OV8865_write_cmos_sensor_8>
   2273c:	00002b06 	br	227ec <MIPI_BIN_LEVEL+0x188>
	}
	else if(level == 2){
   22740:	e0bfff03 	ldbu	r2,-4(fp)
   22744:	10800098 	cmpnei	r2,r2,2
   22748:	1000131e 	bne	r2,zero,22798 <MIPI_BIN_LEVEL+0x134>

		OV8865_write_cmos_sensor_8(0x3814, 0x03);
   2274c:	014000c4 	movi	r5,3
   22750:	010e0504 	movi	r4,14356
   22754:	00221d40 	call	221d4 <OV8865_write_cmos_sensor_8>
		OV8865_write_cmos_sensor_8(0x3815, 0x01);
   22758:	01400044 	movi	r5,1
   2275c:	010e0544 	movi	r4,14357
   22760:	00221d40 	call	221d4 <OV8865_write_cmos_sensor_8>
		OV8865_write_cmos_sensor_8(0x382a, 0x03);
   22764:	014000c4 	movi	r5,3
   22768:	010e0a84 	movi	r4,14378
   2276c:	00221d40 	call	221d4 <OV8865_write_cmos_sensor_8>
		OV8865_write_cmos_sensor_8(0x382b, 0x01);
   22770:	01400044 	movi	r5,1
   22774:	010e0ac4 	movi	r4,14379
   22778:	00221d40 	call	221d4 <OV8865_write_cmos_sensor_8>

		OV8865_write_cmos_sensor_8(0x3830, 4);
   2277c:	01400104 	movi	r5,4
   22780:	010e0c04 	movi	r4,14384
   22784:	00221d40 	call	221d4 <OV8865_write_cmos_sensor_8>
		OV8865_write_cmos_sensor_8(0x3836, 1);
   22788:	01400044 	movi	r5,1
   2278c:	010e0d84 	movi	r4,14390
   22790:	00221d40 	call	221d4 <OV8865_write_cmos_sensor_8>
   22794:	00001506 	br	227ec <MIPI_BIN_LEVEL+0x188>

	}
	else if(level == 3){
   22798:	e0bfff03 	ldbu	r2,-4(fp)
   2279c:	108000d8 	cmpnei	r2,r2,3
   227a0:	1000121e 	bne	r2,zero,227ec <MIPI_BIN_LEVEL+0x188>

		OV8865_write_cmos_sensor_8(0x3814, 0x07);
   227a4:	014001c4 	movi	r5,7
   227a8:	010e0504 	movi	r4,14356
   227ac:	00221d40 	call	221d4 <OV8865_write_cmos_sensor_8>
		OV8865_write_cmos_sensor_8(0x3815, 0x01);
   227b0:	01400044 	movi	r5,1
   227b4:	010e0544 	movi	r4,14357
   227b8:	00221d40 	call	221d4 <OV8865_write_cmos_sensor_8>
		OV8865_write_cmos_sensor_8(0x382a, 0x07);
   227bc:	014001c4 	movi	r5,7
   227c0:	010e0a84 	movi	r4,14378
   227c4:	00221d40 	call	221d4 <OV8865_write_cmos_sensor_8>
		OV8865_write_cmos_sensor_8(0x382b, 0x01);
   227c8:	01400044 	movi	r5,1
   227cc:	010e0ac4 	movi	r4,14379
   227d0:	00221d40 	call	221d4 <OV8865_write_cmos_sensor_8>

		OV8865_write_cmos_sensor_8(0x3830, 8);
   227d4:	01400204 	movi	r5,8
   227d8:	010e0c04 	movi	r4,14384
   227dc:	00221d40 	call	221d4 <OV8865_write_cmos_sensor_8>
		OV8865_write_cmos_sensor_8(0x3836, 2);
   227e0:	01400084 	movi	r5,2
   227e4:	010e0d84 	movi	r4,14390
   227e8:	00221d40 	call	221d4 <OV8865_write_cmos_sensor_8>
	}
    usleep(10000);
   227ec:	0109c404 	movi	r4,10000
   227f0:	00341580 	call	34158 <usleep>
	OV8865_write_cmos_sensor_8(0x0100, 0x01);
   227f4:	01400044 	movi	r5,1
   227f8:	01004004 	movi	r4,256
   227fc:	00221d40 	call	221d4 <OV8865_write_cmos_sensor_8>

	oc_i2c_uninit(I2C_OPENCORES_CAMERA_BASE);  // Release I2C bus , due to two I2C master shared!
   22800:	01000134 	movhi	r4,4
   22804:	21041004 	addi	r4,r4,4160
   22808:	00204180 	call	20418 <oc_i2c_uninit>

}
   2280c:	0001883a 	nop
   22810:	e037883a 	mov	sp,fp
   22814:	dfc00117 	ldw	ra,4(sp)
   22818:	df000017 	ldw	fp,0(sp)
   2281c:	dec00204 	addi	sp,sp,8
   22820:	f800283a 	ret

00022824 <MipiCameraInit>:
//		OV8865_write_cmos_sensor_8(0x0100, 0x01);
//}


void MipiCameraInit(void)
{
   22824:	defffb04 	addi	sp,sp,-20
   22828:	dfc00415 	stw	ra,16(sp)
   2282c:	df000315 	stw	fp,12(sp)
   22830:	df000304 	addi	fp,sp,12

    int i, num;
    int bSuccess;

    Focus_Released(); // waiting for VCM release I2C bus
   22834:	00212880 	call	21288 <Focus_Released>


		bSuccess = oc_i2c_init_ex(I2C_OPENCORES_CAMERA_BASE, 50*1000*1000,400*1000); //I2C: 400K
   22838:	018001b4 	movhi	r6,6
   2283c:	3186a004 	addi	r6,r6,6784
   22840:	0140bef4 	movhi	r5,763
   22844:	297c2004 	addi	r5,r5,-3968
   22848:	01000134 	movhi	r4,4
   2284c:	21041004 	addi	r4,r4,4160
   22850:	00202dc0 	call	202dc <oc_i2c_init_ex>
   22854:	e0bffe15 	stw	r2,-8(fp)
		if (!bSuccess)
   22858:	e0bffe17 	ldw	r2,-8(fp)
   2285c:	1000031e 	bne	r2,zero,2286c <MipiCameraInit+0x48>
			printf("failed to init MIPI- Camera i2c\r\n");
   22860:	010000f4 	movhi	r4,3
   22864:	21151104 	addi	r4,r4,21572
   22868:	00242240 	call	24224 <puts>
//        usleep(10000);
//    }
//


	 OV8865DB("\nStart MipiCameraInit -OV8865!\r\n");
   2286c:	010000f4 	movhi	r4,3
   22870:	21151a04 	addi	r4,r4,21608
   22874:	00242240 	call	24224 <puts>
	 OV8865DB("Write Read Test!\n");
   22878:	010000f4 	movhi	r4,3
   2287c:	21152204 	addi	r4,r4,21640
   22880:	00242240 	call	24224 <puts>

	    for(i=0;i<10;i++){
   22884:	e03ffd15 	stw	zero,-12(fp)
   22888:	00001406 	br	228dc <MipiCameraInit+0xb8>
	       OV8865_write_cmos_sensor_8(0x3809,i);
   2288c:	e0bffd17 	ldw	r2,-12(fp)
   22890:	10803fcc 	andi	r2,r2,255
   22894:	100b883a 	mov	r5,r2
   22898:	010e0244 	movi	r4,14345
   2289c:	00221d40 	call	221d4 <OV8865_write_cmos_sensor_8>
	      usleep(100);
   228a0:	01001904 	movi	r4,100
   228a4:	00341580 	call	34158 <usleep>
	        printf("%d (%d)\n",OV8865_read_cmos_sensor_8(0x3809),i);
   228a8:	010e0244 	movi	r4,14345
   228ac:	00221700 	call	22170 <OV8865_read_cmos_sensor_8>
   228b0:	10803fcc 	andi	r2,r2,255
   228b4:	e1bffd17 	ldw	r6,-12(fp)
   228b8:	100b883a 	mov	r5,r2
   228bc:	010000f4 	movhi	r4,3
   228c0:	21152704 	addi	r4,r4,21660
   228c4:	00241080 	call	24108 <printf>
	      usleep(100);
   228c8:	01001904 	movi	r4,100
   228cc:	00341580 	call	34158 <usleep>


	 OV8865DB("\nStart MipiCameraInit -OV8865!\r\n");
	 OV8865DB("Write Read Test!\n");

	    for(i=0;i<10;i++){
   228d0:	e0bffd17 	ldw	r2,-12(fp)
   228d4:	10800044 	addi	r2,r2,1
   228d8:	e0bffd15 	stw	r2,-12(fp)
   228dc:	e0bffd17 	ldw	r2,-12(fp)
   228e0:	10800290 	cmplti	r2,r2,10
   228e4:	103fe91e 	bne	r2,zero,2288c <__alt_data_end+0xfffe288c>
	       OV8865_write_cmos_sensor_8(0x3809,i);
	      usleep(100);
	        printf("%d (%d)\n",OV8865_read_cmos_sensor_8(0x3809),i);
	      usleep(100);
	    }
	 num = sizeof(MipiCameraReg)/sizeof(MipiCameraReg[0]);
   228e8:	00804f84 	movi	r2,318
   228ec:	e0bfff15 	stw	r2,-4(fp)
     for(i=0;i<num;i++){
   228f0:	e03ffd15 	stw	zero,-12(fp)
   228f4:	00003c06 	br	229e8 <MipiCameraInit+0x1c4>

    	 if (MipiCameraReg[i].Type == TIME_DELAY)   usleep(MipiCameraReg[i].Data*100);
   228f8:	008000f4 	movhi	r2,3
   228fc:	10960c04 	addi	r2,r2,22576
   22900:	e0fffd17 	ldw	r3,-12(fp)
   22904:	18c001a4 	muli	r3,r3,6
   22908:	10c5883a 	add	r2,r2,r3
   2290c:	10800003 	ldbu	r2,0(r2)
   22910:	10803fcc 	andi	r2,r2,255
   22914:	108000d8 	cmpnei	r2,r2,3
   22918:	10000c1e 	bne	r2,zero,2294c <MipiCameraInit+0x128>
   2291c:	008000f4 	movhi	r2,3
   22920:	10960c04 	addi	r2,r2,22576
   22924:	e0fffd17 	ldw	r3,-12(fp)
   22928:	18c001a4 	muli	r3,r3,6
   2292c:	10c5883a 	add	r2,r2,r3
   22930:	10800104 	addi	r2,r2,4
   22934:	10800003 	ldbu	r2,0(r2)
   22938:	10803fcc 	andi	r2,r2,255
   2293c:	10801924 	muli	r2,r2,100
   22940:	1009883a 	mov	r4,r2
   22944:	00341580 	call	34158 <usleep>
   22948:	00002406 	br	229dc <MipiCameraInit+0x1b8>
    	 else if(MipiCameraReg[i].Type == END_OF_SCRIPT)   break;
   2294c:	008000f4 	movhi	r2,3
   22950:	10960c04 	addi	r2,r2,22576
   22954:	e0fffd17 	ldw	r3,-12(fp)
   22958:	18c001a4 	muli	r3,r3,6
   2295c:	10c5883a 	add	r2,r2,r3
   22960:	10800003 	ldbu	r2,0(r2)
   22964:	10803fcc 	andi	r2,r2,255
   22968:	10800118 	cmpnei	r2,r2,4
   2296c:	10002226 	beq	r2,zero,229f8 <MipiCameraInit+0x1d4>
    	 else if(MipiCameraReg[i].Type == 0x6c)   OV8865_write_cmos_sensor_8(MipiCameraReg[i].Addr, MipiCameraReg[i].Data);
   22970:	008000f4 	movhi	r2,3
   22974:	10960c04 	addi	r2,r2,22576
   22978:	e0fffd17 	ldw	r3,-12(fp)
   2297c:	18c001a4 	muli	r3,r3,6
   22980:	10c5883a 	add	r2,r2,r3
   22984:	10800003 	ldbu	r2,0(r2)
   22988:	10803fcc 	andi	r2,r2,255
   2298c:	10801b18 	cmpnei	r2,r2,108
   22990:	1000121e 	bne	r2,zero,229dc <MipiCameraInit+0x1b8>
   22994:	008000f4 	movhi	r2,3
   22998:	10960c04 	addi	r2,r2,22576
   2299c:	e0fffd17 	ldw	r3,-12(fp)
   229a0:	18c001a4 	muli	r3,r3,6
   229a4:	10c5883a 	add	r2,r2,r3
   229a8:	10800084 	addi	r2,r2,2
   229ac:	1080000b 	ldhu	r2,0(r2)
   229b0:	113fffcc 	andi	r4,r2,65535
   229b4:	008000f4 	movhi	r2,3
   229b8:	10960c04 	addi	r2,r2,22576
   229bc:	e0fffd17 	ldw	r3,-12(fp)
   229c0:	18c001a4 	muli	r3,r3,6
   229c4:	10c5883a 	add	r2,r2,r3
   229c8:	10800104 	addi	r2,r2,4
   229cc:	10800003 	ldbu	r2,0(r2)
   229d0:	10803fcc 	andi	r2,r2,255
   229d4:	100b883a 	mov	r5,r2
   229d8:	00221d40 	call	221d4 <OV8865_write_cmos_sensor_8>
	      usleep(100);
	        printf("%d (%d)\n",OV8865_read_cmos_sensor_8(0x3809),i);
	      usleep(100);
	    }
	 num = sizeof(MipiCameraReg)/sizeof(MipiCameraReg[0]);
     for(i=0;i<num;i++){
   229dc:	e0bffd17 	ldw	r2,-12(fp)
   229e0:	10800044 	addi	r2,r2,1
   229e4:	e0bffd15 	stw	r2,-12(fp)
   229e8:	e0fffd17 	ldw	r3,-12(fp)
   229ec:	e0bfff17 	ldw	r2,-4(fp)
   229f0:	18bfc116 	blt	r3,r2,228f8 <__alt_data_end+0xfffe28f8>
   229f4:	00000106 	br	229fc <MipiCameraInit+0x1d8>

    	 if (MipiCameraReg[i].Type == TIME_DELAY)   usleep(MipiCameraReg[i].Data*100);
    	 else if(MipiCameraReg[i].Type == END_OF_SCRIPT)   break;
   229f8:	0001883a 	nop
    	 else if(MipiCameraReg[i].Type == 0x6c)   OV8865_write_cmos_sensor_8(MipiCameraReg[i].Addr, MipiCameraReg[i].Data);
     }


 	oc_i2c_uninit(I2C_OPENCORES_CAMERA_BASE);  // Release I2C bus , due to two I2C master shared!
   229fc:	01000134 	movhi	r4,4
   22a00:	21041004 	addi	r4,r4,4160
   22a04:	00204180 	call	20418 <oc_i2c_uninit>



	 OV8865DB("\nEnd MipiCameraInit! -OV8865!\r\n\n");
   22a08:	010000f4 	movhi	r4,3
   22a0c:	21152a04 	addi	r4,r4,21672
   22a10:	00242240 	call	24224 <puts>

}
   22a14:	0001883a 	nop
   22a18:	e037883a 	mov	sp,fp
   22a1c:	dfc00117 	ldw	ra,4(sp)
   22a20:	df000017 	ldw	fp,0(sp)
   22a24:	dec00204 	addi	sp,sp,8
   22a28:	f800283a 	ret

00022a2c <QUEUE_New>:
#include "queue.h"




QUEUE_STRUCT* QUEUE_New(int nQueueNum){
   22a2c:	defffb04 	addi	sp,sp,-20
   22a30:	dfc00415 	stw	ra,16(sp)
   22a34:	df000315 	stw	fp,12(sp)
   22a38:	df000304 	addi	fp,sp,12
   22a3c:	e13fff15 	stw	r4,-4(fp)
    int nSize;
    QUEUE_STRUCT *pQueue;
    nSize = sizeof(QUEUE_STRUCT)+nQueueNum*sizeof(alt_u32);
   22a40:	e0bfff17 	ldw	r2,-4(fp)
   22a44:	10800144 	addi	r2,r2,5
   22a48:	1085883a 	add	r2,r2,r2
   22a4c:	1085883a 	add	r2,r2,r2
   22a50:	e0bffd15 	stw	r2,-12(fp)
    pQueue = (QUEUE_STRUCT *)malloc(nSize);
   22a54:	e0bffd17 	ldw	r2,-12(fp)
   22a58:	1009883a 	mov	r4,r2
   22a5c:	002371c0 	call	2371c <malloc>
   22a60:	e0bffe15 	stw	r2,-8(fp)
    memset((void *)pQueue, 0, nSize);
   22a64:	e0bffd17 	ldw	r2,-12(fp)
   22a68:	100d883a 	mov	r6,r2
   22a6c:	000b883a 	mov	r5,zero
   22a70:	e13ffe17 	ldw	r4,-8(fp)
   22a74:	0023f500 	call	23f50 <memset>
    pQueue->num = nQueueNum;
   22a78:	e0ffff17 	ldw	r3,-4(fp)
   22a7c:	e0bffe17 	ldw	r2,-8(fp)
   22a80:	10c00015 	stw	r3,0(r2)
    return pQueue;
   22a84:	e0bffe17 	ldw	r2,-8(fp)
}
   22a88:	e037883a 	mov	sp,fp
   22a8c:	dfc00117 	ldw	ra,4(sp)
   22a90:	df000017 	ldw	fp,0(sp)
   22a94:	dec00204 	addi	sp,sp,8
   22a98:	f800283a 	ret

00022a9c <QUEUE_Delete>:

void QUEUE_Delete(QUEUE_STRUCT *pQueue){
   22a9c:	defffd04 	addi	sp,sp,-12
   22aa0:	dfc00215 	stw	ra,8(sp)
   22aa4:	df000115 	stw	fp,4(sp)
   22aa8:	df000104 	addi	fp,sp,4
   22aac:	e13fff15 	stw	r4,-4(fp)
    free(pQueue);
   22ab0:	e13fff17 	ldw	r4,-4(fp)
   22ab4:	00237300 	call	23730 <free>
}
   22ab8:	0001883a 	nop
   22abc:	e037883a 	mov	sp,fp
   22ac0:	dfc00117 	ldw	ra,4(sp)
   22ac4:	df000017 	ldw	fp,0(sp)
   22ac8:	dec00204 	addi	sp,sp,8
   22acc:	f800283a 	ret

00022ad0 <QUEUE_IsEmpty>:

bool QUEUE_IsEmpty(QUEUE_STRUCT *pQueue){
   22ad0:	defffe04 	addi	sp,sp,-8
   22ad4:	df000115 	stw	fp,4(sp)
   22ad8:	df000104 	addi	fp,sp,4
   22adc:	e13fff15 	stw	r4,-4(fp)
    if (pQueue->front == pQueue->rear)
   22ae0:	e0bfff17 	ldw	r2,-4(fp)
   22ae4:	10c00117 	ldw	r3,4(r2)
   22ae8:	e0bfff17 	ldw	r2,-4(fp)
   22aec:	10800217 	ldw	r2,8(r2)
   22af0:	1880021e 	bne	r3,r2,22afc <QUEUE_IsEmpty+0x2c>
        return TRUE;
   22af4:	00800044 	movi	r2,1
   22af8:	00000106 	br	22b00 <QUEUE_IsEmpty+0x30>
    return FALSE;
   22afc:	0005883a 	mov	r2,zero
}
   22b00:	e037883a 	mov	sp,fp
   22b04:	df000017 	ldw	fp,0(sp)
   22b08:	dec00104 	addi	sp,sp,4
   22b0c:	f800283a 	ret

00022b10 <QUEUE_IsFull>:

bool QUEUE_IsFull(QUEUE_STRUCT *pQueue){
   22b10:	defffd04 	addi	sp,sp,-12
   22b14:	dfc00215 	stw	ra,8(sp)
   22b18:	df000115 	stw	fp,4(sp)
   22b1c:	df000104 	addi	fp,sp,4
   22b20:	e13fff15 	stw	r4,-4(fp)
    if (((pQueue->front+1)%pQueue->num) == pQueue->rear)
   22b24:	e0bfff17 	ldw	r2,-4(fp)
   22b28:	10800117 	ldw	r2,4(r2)
   22b2c:	10c00044 	addi	r3,r2,1
   22b30:	e0bfff17 	ldw	r2,-4(fp)
   22b34:	10800017 	ldw	r2,0(r2)
   22b38:	100b883a 	mov	r5,r2
   22b3c:	1809883a 	mov	r4,r3
   22b40:	0022e280 	call	22e28 <__umodsi3>
   22b44:	1007883a 	mov	r3,r2
   22b48:	e0bfff17 	ldw	r2,-4(fp)
   22b4c:	10800217 	ldw	r2,8(r2)
   22b50:	1880021e 	bne	r3,r2,22b5c <QUEUE_IsFull+0x4c>
        return TRUE;
   22b54:	00800044 	movi	r2,1
   22b58:	00000106 	br	22b60 <QUEUE_IsFull+0x50>
    return FALSE;
   22b5c:	0005883a 	mov	r2,zero
}
   22b60:	e037883a 	mov	sp,fp
   22b64:	dfc00117 	ldw	ra,4(sp)
   22b68:	df000017 	ldw	fp,0(sp)
   22b6c:	dec00204 	addi	sp,sp,8
   22b70:	f800283a 	ret

00022b74 <QUEUE_Push>:

bool QUEUE_Push(QUEUE_STRUCT *pQueue, alt_u32 data32){
   22b74:	defffc04 	addi	sp,sp,-16
   22b78:	dfc00315 	stw	ra,12(sp)
   22b7c:	df000215 	stw	fp,8(sp)
   22b80:	df000204 	addi	fp,sp,8
   22b84:	e13ffe15 	stw	r4,-8(fp)
   22b88:	e17fff15 	stw	r5,-4(fp)
    if (QUEUE_IsFull(pQueue))
   22b8c:	e13ffe17 	ldw	r4,-8(fp)
   22b90:	0022b100 	call	22b10 <QUEUE_IsFull>
   22b94:	10000226 	beq	r2,zero,22ba0 <QUEUE_Push+0x2c>
        return FALSE;
   22b98:	0005883a 	mov	r2,zero
   22b9c:	00001506 	br	22bf4 <QUEUE_Push+0x80>
    pQueue->data[pQueue->front] = data32;
   22ba0:	e0bffe17 	ldw	r2,-8(fp)
   22ba4:	10800117 	ldw	r2,4(r2)
   22ba8:	e0fffe17 	ldw	r3,-8(fp)
   22bac:	108000c4 	addi	r2,r2,3
   22bb0:	1085883a 	add	r2,r2,r2
   22bb4:	1085883a 	add	r2,r2,r2
   22bb8:	1885883a 	add	r2,r3,r2
   22bbc:	e0ffff17 	ldw	r3,-4(fp)
   22bc0:	10c00015 	stw	r3,0(r2)
    pQueue->front = (pQueue->front+1)%pQueue->num;        
   22bc4:	e0bffe17 	ldw	r2,-8(fp)
   22bc8:	10800117 	ldw	r2,4(r2)
   22bcc:	10c00044 	addi	r3,r2,1
   22bd0:	e0bffe17 	ldw	r2,-8(fp)
   22bd4:	10800017 	ldw	r2,0(r2)
   22bd8:	100b883a 	mov	r5,r2
   22bdc:	1809883a 	mov	r4,r3
   22be0:	0022e280 	call	22e28 <__umodsi3>
   22be4:	1007883a 	mov	r3,r2
   22be8:	e0bffe17 	ldw	r2,-8(fp)
   22bec:	10c00115 	stw	r3,4(r2)
    return TRUE;
   22bf0:	00800044 	movi	r2,1
}
   22bf4:	e037883a 	mov	sp,fp
   22bf8:	dfc00117 	ldw	ra,4(sp)
   22bfc:	df000017 	ldw	fp,0(sp)
   22c00:	dec00204 	addi	sp,sp,8
   22c04:	f800283a 	ret

00022c08 <QUEUE_Pop>:

alt_u32 QUEUE_Pop(QUEUE_STRUCT *pQueue){
   22c08:	defffc04 	addi	sp,sp,-16
   22c0c:	dfc00315 	stw	ra,12(sp)
   22c10:	df000215 	stw	fp,8(sp)
   22c14:	df000204 	addi	fp,sp,8
   22c18:	e13fff15 	stw	r4,-4(fp)
    alt_u32 data32;
    if (QUEUE_IsEmpty(pQueue))
   22c1c:	e13fff17 	ldw	r4,-4(fp)
   22c20:	0022ad00 	call	22ad0 <QUEUE_IsEmpty>
   22c24:	10000226 	beq	r2,zero,22c30 <QUEUE_Pop+0x28>
        return 0;
   22c28:	0005883a 	mov	r2,zero
   22c2c:	00001506 	br	22c84 <QUEUE_Pop+0x7c>
    data32 = pQueue->data[pQueue->rear];
   22c30:	e0bfff17 	ldw	r2,-4(fp)
   22c34:	10800217 	ldw	r2,8(r2)
   22c38:	e0ffff17 	ldw	r3,-4(fp)
   22c3c:	108000c4 	addi	r2,r2,3
   22c40:	1085883a 	add	r2,r2,r2
   22c44:	1085883a 	add	r2,r2,r2
   22c48:	1885883a 	add	r2,r3,r2
   22c4c:	10800017 	ldw	r2,0(r2)
   22c50:	e0bffe15 	stw	r2,-8(fp)
    pQueue->rear = (pQueue->rear+1)%pQueue->num;        
   22c54:	e0bfff17 	ldw	r2,-4(fp)
   22c58:	10800217 	ldw	r2,8(r2)
   22c5c:	10c00044 	addi	r3,r2,1
   22c60:	e0bfff17 	ldw	r2,-4(fp)
   22c64:	10800017 	ldw	r2,0(r2)
   22c68:	100b883a 	mov	r5,r2
   22c6c:	1809883a 	mov	r4,r3
   22c70:	0022e280 	call	22e28 <__umodsi3>
   22c74:	1007883a 	mov	r3,r2
   22c78:	e0bfff17 	ldw	r2,-4(fp)
   22c7c:	10c00215 	stw	r3,8(r2)
    return data32;
   22c80:	e0bffe17 	ldw	r2,-8(fp)
}
   22c84:	e037883a 	mov	sp,fp
   22c88:	dfc00117 	ldw	ra,4(sp)
   22c8c:	df000017 	ldw	fp,0(sp)
   22c90:	dec00204 	addi	sp,sp,8
   22c94:	f800283a 	ret

00022c98 <QUEUE_Empty>:

void QUEUE_Empty(QUEUE_STRUCT *pQueue){
   22c98:	defffe04 	addi	sp,sp,-8
   22c9c:	df000115 	stw	fp,4(sp)
   22ca0:	df000104 	addi	fp,sp,4
   22ca4:	e13fff15 	stw	r4,-4(fp)
    pQueue->front = 0;
   22ca8:	e0bfff17 	ldw	r2,-4(fp)
   22cac:	10000115 	stw	zero,4(r2)
    pQueue->rear = 0;
   22cb0:	e0bfff17 	ldw	r2,-4(fp)
   22cb4:	10000215 	stw	zero,8(r2)
}
   22cb8:	0001883a 	nop
   22cbc:	e037883a 	mov	sp,fp
   22cc0:	df000017 	ldw	fp,0(sp)
   22cc4:	dec00104 	addi	sp,sp,4
   22cc8:	f800283a 	ret

00022ccc <__divsi3>:
   22ccc:	20001b16 	blt	r4,zero,22d3c <__divsi3+0x70>
   22cd0:	000f883a 	mov	r7,zero
   22cd4:	28001616 	blt	r5,zero,22d30 <__divsi3+0x64>
   22cd8:	200d883a 	mov	r6,r4
   22cdc:	29001a2e 	bgeu	r5,r4,22d48 <__divsi3+0x7c>
   22ce0:	00800804 	movi	r2,32
   22ce4:	00c00044 	movi	r3,1
   22ce8:	00000106 	br	22cf0 <__divsi3+0x24>
   22cec:	10000d26 	beq	r2,zero,22d24 <__divsi3+0x58>
   22cf0:	294b883a 	add	r5,r5,r5
   22cf4:	10bfffc4 	addi	r2,r2,-1
   22cf8:	18c7883a 	add	r3,r3,r3
   22cfc:	293ffb36 	bltu	r5,r4,22cec <__alt_data_end+0xfffe2cec>
   22d00:	0005883a 	mov	r2,zero
   22d04:	18000726 	beq	r3,zero,22d24 <__divsi3+0x58>
   22d08:	0005883a 	mov	r2,zero
   22d0c:	31400236 	bltu	r6,r5,22d18 <__divsi3+0x4c>
   22d10:	314dc83a 	sub	r6,r6,r5
   22d14:	10c4b03a 	or	r2,r2,r3
   22d18:	1806d07a 	srli	r3,r3,1
   22d1c:	280ad07a 	srli	r5,r5,1
   22d20:	183ffa1e 	bne	r3,zero,22d0c <__alt_data_end+0xfffe2d0c>
   22d24:	38000126 	beq	r7,zero,22d2c <__divsi3+0x60>
   22d28:	0085c83a 	sub	r2,zero,r2
   22d2c:	f800283a 	ret
   22d30:	014bc83a 	sub	r5,zero,r5
   22d34:	39c0005c 	xori	r7,r7,1
   22d38:	003fe706 	br	22cd8 <__alt_data_end+0xfffe2cd8>
   22d3c:	0109c83a 	sub	r4,zero,r4
   22d40:	01c00044 	movi	r7,1
   22d44:	003fe306 	br	22cd4 <__alt_data_end+0xfffe2cd4>
   22d48:	00c00044 	movi	r3,1
   22d4c:	003fee06 	br	22d08 <__alt_data_end+0xfffe2d08>

00022d50 <__modsi3>:
   22d50:	20001716 	blt	r4,zero,22db0 <__modsi3+0x60>
   22d54:	000f883a 	mov	r7,zero
   22d58:	2005883a 	mov	r2,r4
   22d5c:	28001216 	blt	r5,zero,22da8 <__modsi3+0x58>
   22d60:	2900162e 	bgeu	r5,r4,22dbc <__modsi3+0x6c>
   22d64:	01800804 	movi	r6,32
   22d68:	00c00044 	movi	r3,1
   22d6c:	00000106 	br	22d74 <__modsi3+0x24>
   22d70:	30000a26 	beq	r6,zero,22d9c <__modsi3+0x4c>
   22d74:	294b883a 	add	r5,r5,r5
   22d78:	31bfffc4 	addi	r6,r6,-1
   22d7c:	18c7883a 	add	r3,r3,r3
   22d80:	293ffb36 	bltu	r5,r4,22d70 <__alt_data_end+0xfffe2d70>
   22d84:	18000526 	beq	r3,zero,22d9c <__modsi3+0x4c>
   22d88:	1806d07a 	srli	r3,r3,1
   22d8c:	11400136 	bltu	r2,r5,22d94 <__modsi3+0x44>
   22d90:	1145c83a 	sub	r2,r2,r5
   22d94:	280ad07a 	srli	r5,r5,1
   22d98:	183ffb1e 	bne	r3,zero,22d88 <__alt_data_end+0xfffe2d88>
   22d9c:	38000126 	beq	r7,zero,22da4 <__modsi3+0x54>
   22da0:	0085c83a 	sub	r2,zero,r2
   22da4:	f800283a 	ret
   22da8:	014bc83a 	sub	r5,zero,r5
   22dac:	003fec06 	br	22d60 <__alt_data_end+0xfffe2d60>
   22db0:	0109c83a 	sub	r4,zero,r4
   22db4:	01c00044 	movi	r7,1
   22db8:	003fe706 	br	22d58 <__alt_data_end+0xfffe2d58>
   22dbc:	00c00044 	movi	r3,1
   22dc0:	003ff106 	br	22d88 <__alt_data_end+0xfffe2d88>

00022dc4 <__udivsi3>:
   22dc4:	200d883a 	mov	r6,r4
   22dc8:	2900152e 	bgeu	r5,r4,22e20 <__udivsi3+0x5c>
   22dcc:	28001416 	blt	r5,zero,22e20 <__udivsi3+0x5c>
   22dd0:	00800804 	movi	r2,32
   22dd4:	00c00044 	movi	r3,1
   22dd8:	00000206 	br	22de4 <__udivsi3+0x20>
   22ddc:	10000e26 	beq	r2,zero,22e18 <__udivsi3+0x54>
   22de0:	28000516 	blt	r5,zero,22df8 <__udivsi3+0x34>
   22de4:	294b883a 	add	r5,r5,r5
   22de8:	10bfffc4 	addi	r2,r2,-1
   22dec:	18c7883a 	add	r3,r3,r3
   22df0:	293ffa36 	bltu	r5,r4,22ddc <__alt_data_end+0xfffe2ddc>
   22df4:	18000826 	beq	r3,zero,22e18 <__udivsi3+0x54>
   22df8:	0005883a 	mov	r2,zero
   22dfc:	31400236 	bltu	r6,r5,22e08 <__udivsi3+0x44>
   22e00:	314dc83a 	sub	r6,r6,r5
   22e04:	10c4b03a 	or	r2,r2,r3
   22e08:	1806d07a 	srli	r3,r3,1
   22e0c:	280ad07a 	srli	r5,r5,1
   22e10:	183ffa1e 	bne	r3,zero,22dfc <__alt_data_end+0xfffe2dfc>
   22e14:	f800283a 	ret
   22e18:	0005883a 	mov	r2,zero
   22e1c:	f800283a 	ret
   22e20:	00c00044 	movi	r3,1
   22e24:	003ff406 	br	22df8 <__alt_data_end+0xfffe2df8>

00022e28 <__umodsi3>:
   22e28:	2005883a 	mov	r2,r4
   22e2c:	2900122e 	bgeu	r5,r4,22e78 <__umodsi3+0x50>
   22e30:	28001116 	blt	r5,zero,22e78 <__umodsi3+0x50>
   22e34:	01800804 	movi	r6,32
   22e38:	00c00044 	movi	r3,1
   22e3c:	00000206 	br	22e48 <__umodsi3+0x20>
   22e40:	30000c26 	beq	r6,zero,22e74 <__umodsi3+0x4c>
   22e44:	28000516 	blt	r5,zero,22e5c <__umodsi3+0x34>
   22e48:	294b883a 	add	r5,r5,r5
   22e4c:	31bfffc4 	addi	r6,r6,-1
   22e50:	18c7883a 	add	r3,r3,r3
   22e54:	293ffa36 	bltu	r5,r4,22e40 <__alt_data_end+0xfffe2e40>
   22e58:	18000626 	beq	r3,zero,22e74 <__umodsi3+0x4c>
   22e5c:	1806d07a 	srli	r3,r3,1
   22e60:	11400136 	bltu	r2,r5,22e68 <__umodsi3+0x40>
   22e64:	1145c83a 	sub	r2,r2,r5
   22e68:	280ad07a 	srli	r5,r5,1
   22e6c:	183ffb1e 	bne	r3,zero,22e5c <__alt_data_end+0xfffe2e5c>
   22e70:	f800283a 	ret
   22e74:	f800283a 	ret
   22e78:	00c00044 	movi	r3,1
   22e7c:	003ff706 	br	22e5c <__alt_data_end+0xfffe2e5c>

00022e80 <_fopen_r>:
   22e80:	defffa04 	addi	sp,sp,-24
   22e84:	3005883a 	mov	r2,r6
   22e88:	dcc00415 	stw	r19,16(sp)
   22e8c:	d80d883a 	mov	r6,sp
   22e90:	2827883a 	mov	r19,r5
   22e94:	100b883a 	mov	r5,r2
   22e98:	dc800315 	stw	r18,12(sp)
   22e9c:	dfc00515 	stw	ra,20(sp)
   22ea0:	dc400215 	stw	r17,8(sp)
   22ea4:	dc000115 	stw	r16,4(sp)
   22ea8:	2025883a 	mov	r18,r4
   22eac:	002ae140 	call	2ae14 <__sflags>
   22eb0:	10002726 	beq	r2,zero,22f50 <_fopen_r+0xd0>
   22eb4:	9009883a 	mov	r4,r18
   22eb8:	1023883a 	mov	r17,r2
   22ebc:	002ac940 	call	2ac94 <__sfp>
   22ec0:	1021883a 	mov	r16,r2
   22ec4:	10002226 	beq	r2,zero,22f50 <_fopen_r+0xd0>
   22ec8:	d9800017 	ldw	r6,0(sp)
   22ecc:	01c06d84 	movi	r7,438
   22ed0:	980b883a 	mov	r5,r19
   22ed4:	9009883a 	mov	r4,r18
   22ed8:	00240780 	call	24078 <_open_r>
   22edc:	10001916 	blt	r2,zero,22f44 <_fopen_r+0xc4>
   22ee0:	8080038d 	sth	r2,14(r16)
   22ee4:	008000b4 	movhi	r2,2
   22ee8:	1091b004 	addi	r2,r2,18112
   22eec:	80800815 	stw	r2,32(r16)
   22ef0:	008000b4 	movhi	r2,2
   22ef4:	1091c704 	addi	r2,r2,18204
   22ef8:	80800915 	stw	r2,36(r16)
   22efc:	008000b4 	movhi	r2,2
   22f00:	1091e604 	addi	r2,r2,18328
   22f04:	80800a15 	stw	r2,40(r16)
   22f08:	008000b4 	movhi	r2,2
   22f0c:	1091fd04 	addi	r2,r2,18420
   22f10:	8440030d 	sth	r17,12(r16)
   22f14:	84000715 	stw	r16,28(r16)
   22f18:	80800b15 	stw	r2,44(r16)
   22f1c:	8c40400c 	andi	r17,r17,256
   22f20:	88000d1e 	bne	r17,zero,22f58 <_fopen_r+0xd8>
   22f24:	8005883a 	mov	r2,r16
   22f28:	dfc00517 	ldw	ra,20(sp)
   22f2c:	dcc00417 	ldw	r19,16(sp)
   22f30:	dc800317 	ldw	r18,12(sp)
   22f34:	dc400217 	ldw	r17,8(sp)
   22f38:	dc000117 	ldw	r16,4(sp)
   22f3c:	dec00604 	addi	sp,sp,24
   22f40:	f800283a 	ret
   22f44:	002add40 	call	2add4 <__sfp_lock_acquire>
   22f48:	8000030d 	sth	zero,12(r16)
   22f4c:	002add80 	call	2add8 <__sfp_lock_release>
   22f50:	0005883a 	mov	r2,zero
   22f54:	003ff406 	br	22f28 <__alt_data_end+0xfffe2f28>
   22f58:	01c00084 	movi	r7,2
   22f5c:	000d883a 	mov	r6,zero
   22f60:	800b883a 	mov	r5,r16
   22f64:	9009883a 	mov	r4,r18
   22f68:	0022f8c0 	call	22f8c <_fseek_r>
   22f6c:	8005883a 	mov	r2,r16
   22f70:	003fed06 	br	22f28 <__alt_data_end+0xfffe2f28>

00022f74 <fopen>:
   22f74:	008000f4 	movhi	r2,3
   22f78:	109a9604 	addi	r2,r2,27224
   22f7c:	280d883a 	mov	r6,r5
   22f80:	200b883a 	mov	r5,r4
   22f84:	11000017 	ldw	r4,0(r2)
   22f88:	0022e801 	jmpi	22e80 <_fopen_r>

00022f8c <_fseek_r>:
   22f8c:	0022fac1 	jmpi	22fac <_fseeko_r>

00022f90 <fseek>:
   22f90:	008000f4 	movhi	r2,3
   22f94:	109a9604 	addi	r2,r2,27224
   22f98:	300f883a 	mov	r7,r6
   22f9c:	280d883a 	mov	r6,r5
   22fa0:	200b883a 	mov	r5,r4
   22fa4:	11000017 	ldw	r4,0(r2)
   22fa8:	0022fac1 	jmpi	22fac <_fseeko_r>

00022fac <_fseeko_r>:
   22fac:	deffe804 	addi	sp,sp,-96
   22fb0:	dd401415 	stw	r21,80(sp)
   22fb4:	dc801115 	stw	r18,68(sp)
   22fb8:	dc401015 	stw	r17,64(sp)
   22fbc:	dc000f15 	stw	r16,60(sp)
   22fc0:	dfc01715 	stw	ra,92(sp)
   22fc4:	ddc01615 	stw	r23,88(sp)
   22fc8:	dd801515 	stw	r22,84(sp)
   22fcc:	dd001315 	stw	r20,76(sp)
   22fd0:	dcc01215 	stw	r19,72(sp)
   22fd4:	2023883a 	mov	r17,r4
   22fd8:	2821883a 	mov	r16,r5
   22fdc:	302b883a 	mov	r21,r6
   22fe0:	3825883a 	mov	r18,r7
   22fe4:	20000226 	beq	r4,zero,22ff0 <_fseeko_r+0x44>
   22fe8:	20800e17 	ldw	r2,56(r4)
   22fec:	10005a26 	beq	r2,zero,23158 <_fseeko_r+0x1ac>
   22ff0:	8080030b 	ldhu	r2,12(r16)
   22ff4:	00c04204 	movi	r3,264
   22ff8:	1080420c 	andi	r2,r2,264
   22ffc:	10c05b26 	beq	r2,r3,2316c <_fseeko_r+0x1c0>
   23000:	85000a17 	ldw	r20,40(r16)
   23004:	a000f626 	beq	r20,zero,233e0 <_fseeko_r+0x434>
   23008:	00800044 	movi	r2,1
   2300c:	90803e26 	beq	r18,r2,23108 <_fseeko_r+0x15c>
   23010:	00800084 	movi	r2,2
   23014:	90801026 	beq	r18,r2,23058 <_fseeko_r+0xac>
   23018:	90000f26 	beq	r18,zero,23058 <_fseeko_r+0xac>
   2301c:	00800584 	movi	r2,22
   23020:	88800015 	stw	r2,0(r17)
   23024:	04ffffc4 	movi	r19,-1
   23028:	9805883a 	mov	r2,r19
   2302c:	dfc01717 	ldw	ra,92(sp)
   23030:	ddc01617 	ldw	r23,88(sp)
   23034:	dd801517 	ldw	r22,84(sp)
   23038:	dd401417 	ldw	r21,80(sp)
   2303c:	dd001317 	ldw	r20,76(sp)
   23040:	dcc01217 	ldw	r19,72(sp)
   23044:	dc801117 	ldw	r18,68(sp)
   23048:	dc401017 	ldw	r17,64(sp)
   2304c:	dc000f17 	ldw	r16,60(sp)
   23050:	dec01804 	addi	sp,sp,96
   23054:	f800283a 	ret
   23058:	80800417 	ldw	r2,16(r16)
   2305c:	002f883a 	mov	r23,zero
   23060:	0027883a 	mov	r19,zero
   23064:	1000cb26 	beq	r2,zero,23394 <_fseeko_r+0x3e8>
   23068:	8080030b 	ldhu	r2,12(r16)
   2306c:	10c2068c 	andi	r3,r2,2074
   23070:	1800071e 	bne	r3,zero,23090 <_fseeko_r+0xe4>
   23074:	10c1000c 	andi	r3,r2,1024
   23078:	1800451e 	bne	r3,zero,23190 <_fseeko_r+0x1e4>
   2307c:	00c000b4 	movhi	r3,2
   23080:	18d1e604 	addi	r3,r3,18328
   23084:	a0c0b726 	beq	r20,r3,23364 <_fseeko_r+0x3b8>
   23088:	10820014 	ori	r2,r2,2048
   2308c:	8080030d 	sth	r2,12(r16)
   23090:	800b883a 	mov	r5,r16
   23094:	8809883a 	mov	r4,r17
   23098:	002a9e80 	call	2a9e8 <_fflush_r>
   2309c:	1027883a 	mov	r19,r2
   230a0:	103fe01e 	bne	r2,zero,23024 <__alt_data_end+0xfffe3024>
   230a4:	81400717 	ldw	r5,28(r16)
   230a8:	900f883a 	mov	r7,r18
   230ac:	a80d883a 	mov	r6,r21
   230b0:	8809883a 	mov	r4,r17
   230b4:	a03ee83a 	callr	r20
   230b8:	00ffffc4 	movi	r3,-1
   230bc:	10ffd926 	beq	r2,r3,23024 <__alt_data_end+0xfffe3024>
   230c0:	81400c17 	ldw	r5,48(r16)
   230c4:	28000526 	beq	r5,zero,230dc <_fseeko_r+0x130>
   230c8:	80801004 	addi	r2,r16,64
   230cc:	28800226 	beq	r5,r2,230d8 <_fseeko_r+0x12c>
   230d0:	8809883a 	mov	r4,r17
   230d4:	002afe40 	call	2afe4 <_free_r>
   230d8:	80000c15 	stw	zero,48(r16)
   230dc:	8080030b 	ldhu	r2,12(r16)
   230e0:	80c00417 	ldw	r3,16(r16)
   230e4:	80000115 	stw	zero,4(r16)
   230e8:	10bdf7cc 	andi	r2,r2,63455
   230ec:	80c00015 	stw	r3,0(r16)
   230f0:	8080030d 	sth	r2,12(r16)
   230f4:	01800204 	movi	r6,8
   230f8:	000b883a 	mov	r5,zero
   230fc:	81001704 	addi	r4,r16,92
   23100:	0023f500 	call	23f50 <memset>
   23104:	003fc806 	br	23028 <__alt_data_end+0xfffe3028>
   23108:	800b883a 	mov	r5,r16
   2310c:	8809883a 	mov	r4,r17
   23110:	002a9e80 	call	2a9e8 <_fflush_r>
   23114:	8080030b 	ldhu	r2,12(r16)
   23118:	10c4000c 	andi	r3,r2,4096
   2311c:	18008726 	beq	r3,zero,2333c <_fseeko_r+0x390>
   23120:	84c01417 	ldw	r19,80(r16)
   23124:	10c0010c 	andi	r3,r2,4
   23128:	1800431e 	bne	r3,zero,23238 <_fseeko_r+0x28c>
   2312c:	1080020c 	andi	r2,r2,8
   23130:	10008026 	beq	r2,zero,23334 <_fseeko_r+0x388>
   23134:	80c00017 	ldw	r3,0(r16)
   23138:	80800417 	ldw	r2,16(r16)
   2313c:	18000226 	beq	r3,zero,23148 <_fseeko_r+0x19c>
   23140:	1887c83a 	sub	r3,r3,r2
   23144:	98e7883a 	add	r19,r19,r3
   23148:	aceb883a 	add	r21,r21,r19
   2314c:	05c00044 	movi	r23,1
   23150:	0025883a 	mov	r18,zero
   23154:	003fc306 	br	23064 <__alt_data_end+0xfffe3064>
   23158:	002adc40 	call	2adc4 <__sinit>
   2315c:	8080030b 	ldhu	r2,12(r16)
   23160:	00c04204 	movi	r3,264
   23164:	1080420c 	andi	r2,r2,264
   23168:	10ffa51e 	bne	r2,r3,23000 <__alt_data_end+0xfffe3000>
   2316c:	800b883a 	mov	r5,r16
   23170:	8809883a 	mov	r4,r17
   23174:	002a9e80 	call	2a9e8 <_fflush_r>
   23178:	003fa106 	br	23000 <__alt_data_end+0xfffe3000>
   2317c:	8080030b 	ldhu	r2,12(r16)
   23180:	00c10004 	movi	r3,1024
   23184:	80c01315 	stw	r3,76(r16)
   23188:	10c4b03a 	or	r2,r2,r3
   2318c:	8080030d 	sth	r2,12(r16)
   23190:	9000311e 	bne	r18,zero,23258 <_fseeko_r+0x2ac>
   23194:	a82d883a 	mov	r22,r21
   23198:	b800371e 	bne	r23,zero,23278 <_fseeko_r+0x2cc>
   2319c:	8080030b 	ldhu	r2,12(r16)
   231a0:	1084000c 	andi	r2,r2,4096
   231a4:	10007f26 	beq	r2,zero,233a4 <_fseeko_r+0x3f8>
   231a8:	80801417 	ldw	r2,80(r16)
   231ac:	81800117 	ldw	r6,4(r16)
   231b0:	81400c17 	ldw	r5,48(r16)
   231b4:	11a7c83a 	sub	r19,r2,r6
   231b8:	28008226 	beq	r5,zero,233c4 <_fseeko_r+0x418>
   231bc:	81c00f17 	ldw	r7,60(r16)
   231c0:	99e7c83a 	sub	r19,r19,r7
   231c4:	81000e17 	ldw	r4,56(r16)
   231c8:	80800417 	ldw	r2,16(r16)
   231cc:	99a7883a 	add	r19,r19,r6
   231d0:	2087c83a 	sub	r3,r4,r2
   231d4:	98e7c83a 	sub	r19,r19,r3
   231d8:	38c7883a 	add	r3,r7,r3
   231dc:	b4c02b16 	blt	r22,r19,2328c <_fseeko_r+0x2e0>
   231e0:	98c9883a 	add	r4,r19,r3
   231e4:	b100292e 	bgeu	r22,r4,2328c <_fseeko_r+0x2e0>
   231e8:	b4e7c83a 	sub	r19,r22,r19
   231ec:	14c5883a 	add	r2,r2,r19
   231f0:	1ce7c83a 	sub	r19,r3,r19
   231f4:	80800015 	stw	r2,0(r16)
   231f8:	84c00115 	stw	r19,4(r16)
   231fc:	28000526 	beq	r5,zero,23214 <_fseeko_r+0x268>
   23200:	80801004 	addi	r2,r16,64
   23204:	28800226 	beq	r5,r2,23210 <_fseeko_r+0x264>
   23208:	8809883a 	mov	r4,r17
   2320c:	002afe40 	call	2afe4 <_free_r>
   23210:	80000c15 	stw	zero,48(r16)
   23214:	8080030b 	ldhu	r2,12(r16)
   23218:	01800204 	movi	r6,8
   2321c:	000b883a 	mov	r5,zero
   23220:	10bff7cc 	andi	r2,r2,65503
   23224:	8080030d 	sth	r2,12(r16)
   23228:	81001704 	addi	r4,r16,92
   2322c:	0023f500 	call	23f50 <memset>
   23230:	0027883a 	mov	r19,zero
   23234:	003f7c06 	br	23028 <__alt_data_end+0xfffe3028>
   23238:	80c00117 	ldw	r3,4(r16)
   2323c:	80800c17 	ldw	r2,48(r16)
   23240:	98e7c83a 	sub	r19,r19,r3
   23244:	10003b26 	beq	r2,zero,23334 <_fseeko_r+0x388>
   23248:	80c00f17 	ldw	r3,60(r16)
   2324c:	80800417 	ldw	r2,16(r16)
   23250:	98e7c83a 	sub	r19,r19,r3
   23254:	003fbc06 	br	23148 <__alt_data_end+0xfffe3148>
   23258:	8140038f 	ldh	r5,14(r16)
   2325c:	d80d883a 	mov	r6,sp
   23260:	8809883a 	mov	r4,r17
   23264:	002340c0 	call	2340c <_fstat_r>
   23268:	103f891e 	bne	r2,zero,23090 <__alt_data_end+0xfffe3090>
   2326c:	dd800417 	ldw	r22,16(sp)
   23270:	adad883a 	add	r22,r21,r22
   23274:	b83fc926 	beq	r23,zero,2319c <__alt_data_end+0xfffe319c>
   23278:	81400c17 	ldw	r5,48(r16)
   2327c:	81800117 	ldw	r6,4(r16)
   23280:	28005026 	beq	r5,zero,233c4 <_fseeko_r+0x418>
   23284:	81c00f17 	ldw	r7,60(r16)
   23288:	003fce06 	br	231c4 <__alt_data_end+0xfffe31c4>
   2328c:	84c01317 	ldw	r19,76(r16)
   23290:	81400717 	ldw	r5,28(r16)
   23294:	000f883a 	mov	r7,zero
   23298:	04e7c83a 	sub	r19,zero,r19
   2329c:	9da6703a 	and	r19,r19,r22
   232a0:	980d883a 	mov	r6,r19
   232a4:	8809883a 	mov	r4,r17
   232a8:	a03ee83a 	callr	r20
   232ac:	00ffffc4 	movi	r3,-1
   232b0:	10ff7726 	beq	r2,r3,23090 <__alt_data_end+0xfffe3090>
   232b4:	80800417 	ldw	r2,16(r16)
   232b8:	81400c17 	ldw	r5,48(r16)
   232bc:	80000115 	stw	zero,4(r16)
   232c0:	80800015 	stw	r2,0(r16)
   232c4:	28000526 	beq	r5,zero,232dc <_fseeko_r+0x330>
   232c8:	80801004 	addi	r2,r16,64
   232cc:	28800226 	beq	r5,r2,232d8 <_fseeko_r+0x32c>
   232d0:	8809883a 	mov	r4,r17
   232d4:	002afe40 	call	2afe4 <_free_r>
   232d8:	80000c15 	stw	zero,48(r16)
   232dc:	8080030b 	ldhu	r2,12(r16)
   232e0:	b4e7c83a 	sub	r19,r22,r19
   232e4:	10bff7cc 	andi	r2,r2,65503
   232e8:	8080030d 	sth	r2,12(r16)
   232ec:	98000b26 	beq	r19,zero,2331c <_fseeko_r+0x370>
   232f0:	800b883a 	mov	r5,r16
   232f4:	8809883a 	mov	r4,r17
   232f8:	00242540 	call	24254 <__srefill_r>
   232fc:	103f641e 	bne	r2,zero,23090 <__alt_data_end+0xfffe3090>
   23300:	80800117 	ldw	r2,4(r16)
   23304:	14ff6236 	bltu	r2,r19,23090 <__alt_data_end+0xfffe3090>
   23308:	80c00017 	ldw	r3,0(r16)
   2330c:	14c5c83a 	sub	r2,r2,r19
   23310:	80800115 	stw	r2,4(r16)
   23314:	1ce7883a 	add	r19,r3,r19
   23318:	84c00015 	stw	r19,0(r16)
   2331c:	01800204 	movi	r6,8
   23320:	000b883a 	mov	r5,zero
   23324:	81001704 	addi	r4,r16,92
   23328:	0023f500 	call	23f50 <memset>
   2332c:	0027883a 	mov	r19,zero
   23330:	003f3d06 	br	23028 <__alt_data_end+0xfffe3028>
   23334:	80800417 	ldw	r2,16(r16)
   23338:	003f8306 	br	23148 <__alt_data_end+0xfffe3148>
   2333c:	81400717 	ldw	r5,28(r16)
   23340:	900f883a 	mov	r7,r18
   23344:	000d883a 	mov	r6,zero
   23348:	8809883a 	mov	r4,r17
   2334c:	a03ee83a 	callr	r20
   23350:	1027883a 	mov	r19,r2
   23354:	00bfffc4 	movi	r2,-1
   23358:	98bf3226 	beq	r19,r2,23024 <__alt_data_end+0xfffe3024>
   2335c:	8080030b 	ldhu	r2,12(r16)
   23360:	003f7006 	br	23124 <__alt_data_end+0xfffe3124>
   23364:	8140038f 	ldh	r5,14(r16)
   23368:	283f4716 	blt	r5,zero,23088 <__alt_data_end+0xfffe3088>
   2336c:	d80d883a 	mov	r6,sp
   23370:	8809883a 	mov	r4,r17
   23374:	002340c0 	call	2340c <_fstat_r>
   23378:	1000041e 	bne	r2,zero,2338c <_fseeko_r+0x3e0>
   2337c:	d8800117 	ldw	r2,4(sp)
   23380:	00e00014 	movui	r3,32768
   23384:	10bc000c 	andi	r2,r2,61440
   23388:	10ff7c26 	beq	r2,r3,2317c <__alt_data_end+0xfffe317c>
   2338c:	8080030b 	ldhu	r2,12(r16)
   23390:	003f3d06 	br	23088 <__alt_data_end+0xfffe3088>
   23394:	800b883a 	mov	r5,r16
   23398:	8809883a 	mov	r4,r17
   2339c:	00235600 	call	23560 <__smakebuf_r>
   233a0:	003f3106 	br	23068 <__alt_data_end+0xfffe3068>
   233a4:	81400717 	ldw	r5,28(r16)
   233a8:	01c00044 	movi	r7,1
   233ac:	000d883a 	mov	r6,zero
   233b0:	8809883a 	mov	r4,r17
   233b4:	a03ee83a 	callr	r20
   233b8:	00ffffc4 	movi	r3,-1
   233bc:	10ff7b1e 	bne	r2,r3,231ac <__alt_data_end+0xfffe31ac>
   233c0:	003f3306 	br	23090 <__alt_data_end+0xfffe3090>
   233c4:	80c00017 	ldw	r3,0(r16)
   233c8:	80800417 	ldw	r2,16(r16)
   233cc:	000b883a 	mov	r5,zero
   233d0:	1887c83a 	sub	r3,r3,r2
   233d4:	98e7c83a 	sub	r19,r19,r3
   233d8:	30c7883a 	add	r3,r6,r3
   233dc:	003f7f06 	br	231dc <__alt_data_end+0xfffe31dc>
   233e0:	00800744 	movi	r2,29
   233e4:	88800015 	stw	r2,0(r17)
   233e8:	04ffffc4 	movi	r19,-1
   233ec:	003f0e06 	br	23028 <__alt_data_end+0xfffe3028>

000233f0 <fseeko>:
   233f0:	008000f4 	movhi	r2,3
   233f4:	109a9604 	addi	r2,r2,27224
   233f8:	300f883a 	mov	r7,r6
   233fc:	280d883a 	mov	r6,r5
   23400:	200b883a 	mov	r5,r4
   23404:	11000017 	ldw	r4,0(r2)
   23408:	0022fac1 	jmpi	22fac <_fseeko_r>

0002340c <_fstat_r>:
   2340c:	defffd04 	addi	sp,sp,-12
   23410:	2805883a 	mov	r2,r5
   23414:	dc000015 	stw	r16,0(sp)
   23418:	040000f4 	movhi	r16,3
   2341c:	dc400115 	stw	r17,4(sp)
   23420:	841f5204 	addi	r16,r16,32072
   23424:	2023883a 	mov	r17,r4
   23428:	300b883a 	mov	r5,r6
   2342c:	1009883a 	mov	r4,r2
   23430:	dfc00215 	stw	ra,8(sp)
   23434:	80000015 	stw	zero,0(r16)
   23438:	0033ae00 	call	33ae0 <fstat>
   2343c:	00ffffc4 	movi	r3,-1
   23440:	10c00526 	beq	r2,r3,23458 <_fstat_r+0x4c>
   23444:	dfc00217 	ldw	ra,8(sp)
   23448:	dc400117 	ldw	r17,4(sp)
   2344c:	dc000017 	ldw	r16,0(sp)
   23450:	dec00304 	addi	sp,sp,12
   23454:	f800283a 	ret
   23458:	80c00017 	ldw	r3,0(r16)
   2345c:	183ff926 	beq	r3,zero,23444 <__alt_data_end+0xfffe3444>
   23460:	88c00015 	stw	r3,0(r17)
   23464:	003ff706 	br	23444 <__alt_data_end+0xfffe3444>

00023468 <_getc_r>:
   23468:	defffd04 	addi	sp,sp,-12
   2346c:	dc000115 	stw	r16,4(sp)
   23470:	dfc00215 	stw	ra,8(sp)
   23474:	2021883a 	mov	r16,r4
   23478:	20000226 	beq	r4,zero,23484 <_getc_r+0x1c>
   2347c:	20800e17 	ldw	r2,56(r4)
   23480:	10000c26 	beq	r2,zero,234b4 <_getc_r+0x4c>
   23484:	28800117 	ldw	r2,4(r5)
   23488:	10bfffc4 	addi	r2,r2,-1
   2348c:	28800115 	stw	r2,4(r5)
   23490:	10000c16 	blt	r2,zero,234c4 <_getc_r+0x5c>
   23494:	28800017 	ldw	r2,0(r5)
   23498:	10c00044 	addi	r3,r2,1
   2349c:	28c00015 	stw	r3,0(r5)
   234a0:	10800003 	ldbu	r2,0(r2)
   234a4:	dfc00217 	ldw	ra,8(sp)
   234a8:	dc000117 	ldw	r16,4(sp)
   234ac:	dec00304 	addi	sp,sp,12
   234b0:	f800283a 	ret
   234b4:	d9400015 	stw	r5,0(sp)
   234b8:	002adc40 	call	2adc4 <__sinit>
   234bc:	d9400017 	ldw	r5,0(sp)
   234c0:	003ff006 	br	23484 <__alt_data_end+0xfffe3484>
   234c4:	8009883a 	mov	r4,r16
   234c8:	dfc00217 	ldw	ra,8(sp)
   234cc:	dc000117 	ldw	r16,4(sp)
   234d0:	dec00304 	addi	sp,sp,12
   234d4:	00244281 	jmpi	24428 <__srget_r>

000234d8 <getc>:
   234d8:	008000f4 	movhi	r2,3
   234dc:	defffd04 	addi	sp,sp,-12
   234e0:	109a9604 	addi	r2,r2,27224
   234e4:	dc400115 	stw	r17,4(sp)
   234e8:	14400017 	ldw	r17,0(r2)
   234ec:	dc000015 	stw	r16,0(sp)
   234f0:	dfc00215 	stw	ra,8(sp)
   234f4:	2021883a 	mov	r16,r4
   234f8:	88000226 	beq	r17,zero,23504 <getc+0x2c>
   234fc:	88800e17 	ldw	r2,56(r17)
   23500:	10000d26 	beq	r2,zero,23538 <getc+0x60>
   23504:	80800117 	ldw	r2,4(r16)
   23508:	10bfffc4 	addi	r2,r2,-1
   2350c:	80800115 	stw	r2,4(r16)
   23510:	10000c16 	blt	r2,zero,23544 <getc+0x6c>
   23514:	80800017 	ldw	r2,0(r16)
   23518:	10c00044 	addi	r3,r2,1
   2351c:	80c00015 	stw	r3,0(r16)
   23520:	10800003 	ldbu	r2,0(r2)
   23524:	dfc00217 	ldw	ra,8(sp)
   23528:	dc400117 	ldw	r17,4(sp)
   2352c:	dc000017 	ldw	r16,0(sp)
   23530:	dec00304 	addi	sp,sp,12
   23534:	f800283a 	ret
   23538:	8809883a 	mov	r4,r17
   2353c:	002adc40 	call	2adc4 <__sinit>
   23540:	003ff006 	br	23504 <__alt_data_end+0xfffe3504>
   23544:	800b883a 	mov	r5,r16
   23548:	8809883a 	mov	r4,r17
   2354c:	dfc00217 	ldw	ra,8(sp)
   23550:	dc400117 	ldw	r17,4(sp)
   23554:	dc000017 	ldw	r16,0(sp)
   23558:	dec00304 	addi	sp,sp,12
   2355c:	00244281 	jmpi	24428 <__srget_r>

00023560 <__smakebuf_r>:
   23560:	2880030b 	ldhu	r2,12(r5)
   23564:	10c0008c 	andi	r3,r2,2
   23568:	1800411e 	bne	r3,zero,23670 <__smakebuf_r+0x110>
   2356c:	deffec04 	addi	sp,sp,-80
   23570:	dc000f15 	stw	r16,60(sp)
   23574:	2821883a 	mov	r16,r5
   23578:	2940038f 	ldh	r5,14(r5)
   2357c:	dc401015 	stw	r17,64(sp)
   23580:	dfc01315 	stw	ra,76(sp)
   23584:	dcc01215 	stw	r19,72(sp)
   23588:	dc801115 	stw	r18,68(sp)
   2358c:	2023883a 	mov	r17,r4
   23590:	28001c16 	blt	r5,zero,23604 <__smakebuf_r+0xa4>
   23594:	d80d883a 	mov	r6,sp
   23598:	002340c0 	call	2340c <_fstat_r>
   2359c:	10001816 	blt	r2,zero,23600 <__smakebuf_r+0xa0>
   235a0:	d8800117 	ldw	r2,4(sp)
   235a4:	00e00014 	movui	r3,32768
   235a8:	10bc000c 	andi	r2,r2,61440
   235ac:	14c80020 	cmpeqi	r19,r2,8192
   235b0:	10c03726 	beq	r2,r3,23690 <__smakebuf_r+0x130>
   235b4:	80c0030b 	ldhu	r3,12(r16)
   235b8:	18c20014 	ori	r3,r3,2048
   235bc:	80c0030d 	sth	r3,12(r16)
   235c0:	00c80004 	movi	r3,8192
   235c4:	10c0521e 	bne	r2,r3,23710 <__smakebuf_r+0x1b0>
   235c8:	8140038f 	ldh	r5,14(r16)
   235cc:	8809883a 	mov	r4,r17
   235d0:	002b9380 	call	2b938 <_isatty_r>
   235d4:	10004c26 	beq	r2,zero,23708 <__smakebuf_r+0x1a8>
   235d8:	8080030b 	ldhu	r2,12(r16)
   235dc:	80c010c4 	addi	r3,r16,67
   235e0:	80c00015 	stw	r3,0(r16)
   235e4:	10800054 	ori	r2,r2,1
   235e8:	8080030d 	sth	r2,12(r16)
   235ec:	00800044 	movi	r2,1
   235f0:	80c00415 	stw	r3,16(r16)
   235f4:	80800515 	stw	r2,20(r16)
   235f8:	04810004 	movi	r18,1024
   235fc:	00000706 	br	2361c <__smakebuf_r+0xbc>
   23600:	8080030b 	ldhu	r2,12(r16)
   23604:	10c0200c 	andi	r3,r2,128
   23608:	18001f1e 	bne	r3,zero,23688 <__smakebuf_r+0x128>
   2360c:	04810004 	movi	r18,1024
   23610:	10820014 	ori	r2,r2,2048
   23614:	8080030d 	sth	r2,12(r16)
   23618:	0027883a 	mov	r19,zero
   2361c:	900b883a 	mov	r5,r18
   23620:	8809883a 	mov	r4,r17
   23624:	00237440 	call	23744 <_malloc_r>
   23628:	10002c26 	beq	r2,zero,236dc <__smakebuf_r+0x17c>
   2362c:	80c0030b 	ldhu	r3,12(r16)
   23630:	010000f4 	movhi	r4,3
   23634:	212a9f04 	addi	r4,r4,-21892
   23638:	89000f15 	stw	r4,60(r17)
   2363c:	18c02014 	ori	r3,r3,128
   23640:	80c0030d 	sth	r3,12(r16)
   23644:	80800015 	stw	r2,0(r16)
   23648:	80800415 	stw	r2,16(r16)
   2364c:	84800515 	stw	r18,20(r16)
   23650:	98001a1e 	bne	r19,zero,236bc <__smakebuf_r+0x15c>
   23654:	dfc01317 	ldw	ra,76(sp)
   23658:	dcc01217 	ldw	r19,72(sp)
   2365c:	dc801117 	ldw	r18,68(sp)
   23660:	dc401017 	ldw	r17,64(sp)
   23664:	dc000f17 	ldw	r16,60(sp)
   23668:	dec01404 	addi	sp,sp,80
   2366c:	f800283a 	ret
   23670:	288010c4 	addi	r2,r5,67
   23674:	28800015 	stw	r2,0(r5)
   23678:	28800415 	stw	r2,16(r5)
   2367c:	00800044 	movi	r2,1
   23680:	28800515 	stw	r2,20(r5)
   23684:	f800283a 	ret
   23688:	04801004 	movi	r18,64
   2368c:	003fe006 	br	23610 <__alt_data_end+0xfffe3610>
   23690:	81000a17 	ldw	r4,40(r16)
   23694:	00c000b4 	movhi	r3,2
   23698:	18d1e604 	addi	r3,r3,18328
   2369c:	20ffc51e 	bne	r4,r3,235b4 <__alt_data_end+0xfffe35b4>
   236a0:	8080030b 	ldhu	r2,12(r16)
   236a4:	04810004 	movi	r18,1024
   236a8:	84801315 	stw	r18,76(r16)
   236ac:	1484b03a 	or	r2,r2,r18
   236b0:	8080030d 	sth	r2,12(r16)
   236b4:	0027883a 	mov	r19,zero
   236b8:	003fd806 	br	2361c <__alt_data_end+0xfffe361c>
   236bc:	8140038f 	ldh	r5,14(r16)
   236c0:	8809883a 	mov	r4,r17
   236c4:	002b9380 	call	2b938 <_isatty_r>
   236c8:	103fe226 	beq	r2,zero,23654 <__alt_data_end+0xfffe3654>
   236cc:	8080030b 	ldhu	r2,12(r16)
   236d0:	10800054 	ori	r2,r2,1
   236d4:	8080030d 	sth	r2,12(r16)
   236d8:	003fde06 	br	23654 <__alt_data_end+0xfffe3654>
   236dc:	8080030b 	ldhu	r2,12(r16)
   236e0:	10c0800c 	andi	r3,r2,512
   236e4:	183fdb1e 	bne	r3,zero,23654 <__alt_data_end+0xfffe3654>
   236e8:	10800094 	ori	r2,r2,2
   236ec:	80c010c4 	addi	r3,r16,67
   236f0:	8080030d 	sth	r2,12(r16)
   236f4:	00800044 	movi	r2,1
   236f8:	80c00015 	stw	r3,0(r16)
   236fc:	80c00415 	stw	r3,16(r16)
   23700:	80800515 	stw	r2,20(r16)
   23704:	003fd306 	br	23654 <__alt_data_end+0xfffe3654>
   23708:	04810004 	movi	r18,1024
   2370c:	003fc306 	br	2361c <__alt_data_end+0xfffe361c>
   23710:	0027883a 	mov	r19,zero
   23714:	04810004 	movi	r18,1024
   23718:	003fc006 	br	2361c <__alt_data_end+0xfffe361c>

0002371c <malloc>:
   2371c:	008000f4 	movhi	r2,3
   23720:	109a9604 	addi	r2,r2,27224
   23724:	200b883a 	mov	r5,r4
   23728:	11000017 	ldw	r4,0(r2)
   2372c:	00237441 	jmpi	23744 <_malloc_r>

00023730 <free>:
   23730:	008000f4 	movhi	r2,3
   23734:	109a9604 	addi	r2,r2,27224
   23738:	200b883a 	mov	r5,r4
   2373c:	11000017 	ldw	r4,0(r2)
   23740:	002afe41 	jmpi	2afe4 <_free_r>

00023744 <_malloc_r>:
   23744:	defff504 	addi	sp,sp,-44
   23748:	dc800315 	stw	r18,12(sp)
   2374c:	dfc00a15 	stw	ra,40(sp)
   23750:	df000915 	stw	fp,36(sp)
   23754:	ddc00815 	stw	r23,32(sp)
   23758:	dd800715 	stw	r22,28(sp)
   2375c:	dd400615 	stw	r21,24(sp)
   23760:	dd000515 	stw	r20,20(sp)
   23764:	dcc00415 	stw	r19,16(sp)
   23768:	dc400215 	stw	r17,8(sp)
   2376c:	dc000115 	stw	r16,4(sp)
   23770:	288002c4 	addi	r2,r5,11
   23774:	00c00584 	movi	r3,22
   23778:	2025883a 	mov	r18,r4
   2377c:	18807f2e 	bgeu	r3,r2,2397c <_malloc_r+0x238>
   23780:	047ffe04 	movi	r17,-8
   23784:	1462703a 	and	r17,r2,r17
   23788:	8800a316 	blt	r17,zero,23a18 <_malloc_r+0x2d4>
   2378c:	8940a236 	bltu	r17,r5,23a18 <_malloc_r+0x2d4>
   23790:	0033db80 	call	33db8 <__malloc_lock>
   23794:	00807dc4 	movi	r2,503
   23798:	1441e92e 	bgeu	r2,r17,23f40 <_malloc_r+0x7fc>
   2379c:	8804d27a 	srli	r2,r17,9
   237a0:	1000a126 	beq	r2,zero,23a28 <_malloc_r+0x2e4>
   237a4:	00c00104 	movi	r3,4
   237a8:	18811e36 	bltu	r3,r2,23c24 <_malloc_r+0x4e0>
   237ac:	8804d1ba 	srli	r2,r17,6
   237b0:	12000e44 	addi	r8,r2,57
   237b4:	11c00e04 	addi	r7,r2,56
   237b8:	4209883a 	add	r4,r8,r8
   237bc:	04c000f4 	movhi	r19,3
   237c0:	2109883a 	add	r4,r4,r4
   237c4:	9cd8f204 	addi	r19,r19,25544
   237c8:	2109883a 	add	r4,r4,r4
   237cc:	9909883a 	add	r4,r19,r4
   237d0:	24000117 	ldw	r16,4(r4)
   237d4:	213ffe04 	addi	r4,r4,-8
   237d8:	24009726 	beq	r4,r16,23a38 <_malloc_r+0x2f4>
   237dc:	80800117 	ldw	r2,4(r16)
   237e0:	01bfff04 	movi	r6,-4
   237e4:	014003c4 	movi	r5,15
   237e8:	1184703a 	and	r2,r2,r6
   237ec:	1447c83a 	sub	r3,r2,r17
   237f0:	28c00716 	blt	r5,r3,23810 <_malloc_r+0xcc>
   237f4:	1800920e 	bge	r3,zero,23a40 <_malloc_r+0x2fc>
   237f8:	84000317 	ldw	r16,12(r16)
   237fc:	24008e26 	beq	r4,r16,23a38 <_malloc_r+0x2f4>
   23800:	80800117 	ldw	r2,4(r16)
   23804:	1184703a 	and	r2,r2,r6
   23808:	1447c83a 	sub	r3,r2,r17
   2380c:	28fff90e 	bge	r5,r3,237f4 <__alt_data_end+0xfffe37f4>
   23810:	3809883a 	mov	r4,r7
   23814:	018000f4 	movhi	r6,3
   23818:	9c000417 	ldw	r16,16(r19)
   2381c:	3198f204 	addi	r6,r6,25544
   23820:	32000204 	addi	r8,r6,8
   23824:	82013426 	beq	r16,r8,23cf8 <_malloc_r+0x5b4>
   23828:	80c00117 	ldw	r3,4(r16)
   2382c:	00bfff04 	movi	r2,-4
   23830:	188e703a 	and	r7,r3,r2
   23834:	3c45c83a 	sub	r2,r7,r17
   23838:	00c003c4 	movi	r3,15
   2383c:	18811f16 	blt	r3,r2,23cbc <_malloc_r+0x578>
   23840:	32000515 	stw	r8,20(r6)
   23844:	32000415 	stw	r8,16(r6)
   23848:	10007f0e 	bge	r2,zero,23a48 <_malloc_r+0x304>
   2384c:	00807fc4 	movi	r2,511
   23850:	11c0fd36 	bltu	r2,r7,23c48 <_malloc_r+0x504>
   23854:	3806d0fa 	srli	r3,r7,3
   23858:	01c00044 	movi	r7,1
   2385c:	30800117 	ldw	r2,4(r6)
   23860:	19400044 	addi	r5,r3,1
   23864:	294b883a 	add	r5,r5,r5
   23868:	1807d0ba 	srai	r3,r3,2
   2386c:	294b883a 	add	r5,r5,r5
   23870:	294b883a 	add	r5,r5,r5
   23874:	298b883a 	add	r5,r5,r6
   23878:	38c6983a 	sll	r3,r7,r3
   2387c:	29c00017 	ldw	r7,0(r5)
   23880:	2a7ffe04 	addi	r9,r5,-8
   23884:	1886b03a 	or	r3,r3,r2
   23888:	82400315 	stw	r9,12(r16)
   2388c:	81c00215 	stw	r7,8(r16)
   23890:	30c00115 	stw	r3,4(r6)
   23894:	2c000015 	stw	r16,0(r5)
   23898:	3c000315 	stw	r16,12(r7)
   2389c:	2005d0ba 	srai	r2,r4,2
   238a0:	01400044 	movi	r5,1
   238a4:	288a983a 	sll	r5,r5,r2
   238a8:	19406f36 	bltu	r3,r5,23a68 <_malloc_r+0x324>
   238ac:	28c4703a 	and	r2,r5,r3
   238b0:	10000a1e 	bne	r2,zero,238dc <_malloc_r+0x198>
   238b4:	00bfff04 	movi	r2,-4
   238b8:	294b883a 	add	r5,r5,r5
   238bc:	2088703a 	and	r4,r4,r2
   238c0:	28c4703a 	and	r2,r5,r3
   238c4:	21000104 	addi	r4,r4,4
   238c8:	1000041e 	bne	r2,zero,238dc <_malloc_r+0x198>
   238cc:	294b883a 	add	r5,r5,r5
   238d0:	28c4703a 	and	r2,r5,r3
   238d4:	21000104 	addi	r4,r4,4
   238d8:	103ffc26 	beq	r2,zero,238cc <__alt_data_end+0xfffe38cc>
   238dc:	02bfff04 	movi	r10,-4
   238e0:	024003c4 	movi	r9,15
   238e4:	21800044 	addi	r6,r4,1
   238e8:	318d883a 	add	r6,r6,r6
   238ec:	318d883a 	add	r6,r6,r6
   238f0:	318d883a 	add	r6,r6,r6
   238f4:	998d883a 	add	r6,r19,r6
   238f8:	333ffe04 	addi	r12,r6,-8
   238fc:	2017883a 	mov	r11,r4
   23900:	31800104 	addi	r6,r6,4
   23904:	34000017 	ldw	r16,0(r6)
   23908:	31fffd04 	addi	r7,r6,-12
   2390c:	81c0041e 	bne	r16,r7,23920 <_malloc_r+0x1dc>
   23910:	0000fb06 	br	23d00 <_malloc_r+0x5bc>
   23914:	1801030e 	bge	r3,zero,23d24 <_malloc_r+0x5e0>
   23918:	84000317 	ldw	r16,12(r16)
   2391c:	81c0f826 	beq	r16,r7,23d00 <_malloc_r+0x5bc>
   23920:	80800117 	ldw	r2,4(r16)
   23924:	1284703a 	and	r2,r2,r10
   23928:	1447c83a 	sub	r3,r2,r17
   2392c:	48fff90e 	bge	r9,r3,23914 <__alt_data_end+0xfffe3914>
   23930:	80800317 	ldw	r2,12(r16)
   23934:	81000217 	ldw	r4,8(r16)
   23938:	89400054 	ori	r5,r17,1
   2393c:	81400115 	stw	r5,4(r16)
   23940:	20800315 	stw	r2,12(r4)
   23944:	11000215 	stw	r4,8(r2)
   23948:	8463883a 	add	r17,r16,r17
   2394c:	9c400515 	stw	r17,20(r19)
   23950:	9c400415 	stw	r17,16(r19)
   23954:	18800054 	ori	r2,r3,1
   23958:	88800115 	stw	r2,4(r17)
   2395c:	8a000315 	stw	r8,12(r17)
   23960:	8a000215 	stw	r8,8(r17)
   23964:	88e3883a 	add	r17,r17,r3
   23968:	88c00015 	stw	r3,0(r17)
   2396c:	9009883a 	mov	r4,r18
   23970:	0033dbc0 	call	33dbc <__malloc_unlock>
   23974:	80800204 	addi	r2,r16,8
   23978:	00001b06 	br	239e8 <_malloc_r+0x2a4>
   2397c:	04400404 	movi	r17,16
   23980:	89402536 	bltu	r17,r5,23a18 <_malloc_r+0x2d4>
   23984:	0033db80 	call	33db8 <__malloc_lock>
   23988:	00800184 	movi	r2,6
   2398c:	01000084 	movi	r4,2
   23990:	04c000f4 	movhi	r19,3
   23994:	1085883a 	add	r2,r2,r2
   23998:	9cd8f204 	addi	r19,r19,25544
   2399c:	1085883a 	add	r2,r2,r2
   239a0:	9885883a 	add	r2,r19,r2
   239a4:	14000117 	ldw	r16,4(r2)
   239a8:	10fffe04 	addi	r3,r2,-8
   239ac:	80c0d926 	beq	r16,r3,23d14 <_malloc_r+0x5d0>
   239b0:	80c00117 	ldw	r3,4(r16)
   239b4:	81000317 	ldw	r4,12(r16)
   239b8:	00bfff04 	movi	r2,-4
   239bc:	1884703a 	and	r2,r3,r2
   239c0:	81400217 	ldw	r5,8(r16)
   239c4:	8085883a 	add	r2,r16,r2
   239c8:	10c00117 	ldw	r3,4(r2)
   239cc:	29000315 	stw	r4,12(r5)
   239d0:	21400215 	stw	r5,8(r4)
   239d4:	18c00054 	ori	r3,r3,1
   239d8:	10c00115 	stw	r3,4(r2)
   239dc:	9009883a 	mov	r4,r18
   239e0:	0033dbc0 	call	33dbc <__malloc_unlock>
   239e4:	80800204 	addi	r2,r16,8
   239e8:	dfc00a17 	ldw	ra,40(sp)
   239ec:	df000917 	ldw	fp,36(sp)
   239f0:	ddc00817 	ldw	r23,32(sp)
   239f4:	dd800717 	ldw	r22,28(sp)
   239f8:	dd400617 	ldw	r21,24(sp)
   239fc:	dd000517 	ldw	r20,20(sp)
   23a00:	dcc00417 	ldw	r19,16(sp)
   23a04:	dc800317 	ldw	r18,12(sp)
   23a08:	dc400217 	ldw	r17,8(sp)
   23a0c:	dc000117 	ldw	r16,4(sp)
   23a10:	dec00b04 	addi	sp,sp,44
   23a14:	f800283a 	ret
   23a18:	00800304 	movi	r2,12
   23a1c:	90800015 	stw	r2,0(r18)
   23a20:	0005883a 	mov	r2,zero
   23a24:	003ff006 	br	239e8 <__alt_data_end+0xfffe39e8>
   23a28:	01002004 	movi	r4,128
   23a2c:	02001004 	movi	r8,64
   23a30:	01c00fc4 	movi	r7,63
   23a34:	003f6106 	br	237bc <__alt_data_end+0xfffe37bc>
   23a38:	4009883a 	mov	r4,r8
   23a3c:	003f7506 	br	23814 <__alt_data_end+0xfffe3814>
   23a40:	81000317 	ldw	r4,12(r16)
   23a44:	003fde06 	br	239c0 <__alt_data_end+0xfffe39c0>
   23a48:	81c5883a 	add	r2,r16,r7
   23a4c:	11400117 	ldw	r5,4(r2)
   23a50:	9009883a 	mov	r4,r18
   23a54:	29400054 	ori	r5,r5,1
   23a58:	11400115 	stw	r5,4(r2)
   23a5c:	0033dbc0 	call	33dbc <__malloc_unlock>
   23a60:	80800204 	addi	r2,r16,8
   23a64:	003fe006 	br	239e8 <__alt_data_end+0xfffe39e8>
   23a68:	9c000217 	ldw	r16,8(r19)
   23a6c:	00bfff04 	movi	r2,-4
   23a70:	85800117 	ldw	r22,4(r16)
   23a74:	b0ac703a 	and	r22,r22,r2
   23a78:	b4400336 	bltu	r22,r17,23a88 <_malloc_r+0x344>
   23a7c:	b445c83a 	sub	r2,r22,r17
   23a80:	00c003c4 	movi	r3,15
   23a84:	18805d16 	blt	r3,r2,23bfc <_malloc_r+0x4b8>
   23a88:	05c000f4 	movhi	r23,3
   23a8c:	008000f4 	movhi	r2,3
   23a90:	109f5504 	addi	r2,r2,32084
   23a94:	bdda9704 	addi	r23,r23,27228
   23a98:	15400017 	ldw	r21,0(r2)
   23a9c:	b8c00017 	ldw	r3,0(r23)
   23aa0:	00bfffc4 	movi	r2,-1
   23aa4:	858d883a 	add	r6,r16,r22
   23aa8:	8d6b883a 	add	r21,r17,r21
   23aac:	1880ea26 	beq	r3,r2,23e58 <_malloc_r+0x714>
   23ab0:	ad4403c4 	addi	r21,r21,4111
   23ab4:	00bc0004 	movi	r2,-4096
   23ab8:	a8aa703a 	and	r21,r21,r2
   23abc:	a80b883a 	mov	r5,r21
   23ac0:	9009883a 	mov	r4,r18
   23ac4:	d9800015 	stw	r6,0(sp)
   23ac8:	00244b00 	call	244b0 <_sbrk_r>
   23acc:	1029883a 	mov	r20,r2
   23ad0:	00bfffc4 	movi	r2,-1
   23ad4:	d9800017 	ldw	r6,0(sp)
   23ad8:	a080e826 	beq	r20,r2,23e7c <_malloc_r+0x738>
   23adc:	a180a636 	bltu	r20,r6,23d78 <_malloc_r+0x634>
   23ae0:	070000f4 	movhi	fp,3
   23ae4:	e71f6004 	addi	fp,fp,32128
   23ae8:	e0800017 	ldw	r2,0(fp)
   23aec:	a887883a 	add	r3,r21,r2
   23af0:	e0c00015 	stw	r3,0(fp)
   23af4:	3500e626 	beq	r6,r20,23e90 <_malloc_r+0x74c>
   23af8:	b9000017 	ldw	r4,0(r23)
   23afc:	00bfffc4 	movi	r2,-1
   23b00:	2080ee26 	beq	r4,r2,23ebc <_malloc_r+0x778>
   23b04:	a185c83a 	sub	r2,r20,r6
   23b08:	10c5883a 	add	r2,r2,r3
   23b0c:	e0800015 	stw	r2,0(fp)
   23b10:	a0c001cc 	andi	r3,r20,7
   23b14:	1800bc26 	beq	r3,zero,23e08 <_malloc_r+0x6c4>
   23b18:	a0e9c83a 	sub	r20,r20,r3
   23b1c:	00840204 	movi	r2,4104
   23b20:	a5000204 	addi	r20,r20,8
   23b24:	10c7c83a 	sub	r3,r2,r3
   23b28:	a545883a 	add	r2,r20,r21
   23b2c:	1083ffcc 	andi	r2,r2,4095
   23b30:	18abc83a 	sub	r21,r3,r2
   23b34:	a80b883a 	mov	r5,r21
   23b38:	9009883a 	mov	r4,r18
   23b3c:	00244b00 	call	244b0 <_sbrk_r>
   23b40:	00ffffc4 	movi	r3,-1
   23b44:	10c0e126 	beq	r2,r3,23ecc <_malloc_r+0x788>
   23b48:	1505c83a 	sub	r2,r2,r20
   23b4c:	1545883a 	add	r2,r2,r21
   23b50:	10800054 	ori	r2,r2,1
   23b54:	e0c00017 	ldw	r3,0(fp)
   23b58:	9d000215 	stw	r20,8(r19)
   23b5c:	a0800115 	stw	r2,4(r20)
   23b60:	a8c7883a 	add	r3,r21,r3
   23b64:	e0c00015 	stw	r3,0(fp)
   23b68:	84c00e26 	beq	r16,r19,23ba4 <_malloc_r+0x460>
   23b6c:	018003c4 	movi	r6,15
   23b70:	3580a72e 	bgeu	r6,r22,23e10 <_malloc_r+0x6cc>
   23b74:	81400117 	ldw	r5,4(r16)
   23b78:	013ffe04 	movi	r4,-8
   23b7c:	b0bffd04 	addi	r2,r22,-12
   23b80:	1104703a 	and	r2,r2,r4
   23b84:	2900004c 	andi	r4,r5,1
   23b88:	2088b03a 	or	r4,r4,r2
   23b8c:	81000115 	stw	r4,4(r16)
   23b90:	01400144 	movi	r5,5
   23b94:	8089883a 	add	r4,r16,r2
   23b98:	21400115 	stw	r5,4(r4)
   23b9c:	21400215 	stw	r5,8(r4)
   23ba0:	3080cd36 	bltu	r6,r2,23ed8 <_malloc_r+0x794>
   23ba4:	008000f4 	movhi	r2,3
   23ba8:	109f5404 	addi	r2,r2,32080
   23bac:	11000017 	ldw	r4,0(r2)
   23bb0:	20c0012e 	bgeu	r4,r3,23bb8 <_malloc_r+0x474>
   23bb4:	10c00015 	stw	r3,0(r2)
   23bb8:	008000f4 	movhi	r2,3
   23bbc:	109f5304 	addi	r2,r2,32076
   23bc0:	11000017 	ldw	r4,0(r2)
   23bc4:	9c000217 	ldw	r16,8(r19)
   23bc8:	20c0012e 	bgeu	r4,r3,23bd0 <_malloc_r+0x48c>
   23bcc:	10c00015 	stw	r3,0(r2)
   23bd0:	80c00117 	ldw	r3,4(r16)
   23bd4:	00bfff04 	movi	r2,-4
   23bd8:	1886703a 	and	r3,r3,r2
   23bdc:	1c45c83a 	sub	r2,r3,r17
   23be0:	1c400236 	bltu	r3,r17,23bec <_malloc_r+0x4a8>
   23be4:	00c003c4 	movi	r3,15
   23be8:	18800416 	blt	r3,r2,23bfc <_malloc_r+0x4b8>
   23bec:	9009883a 	mov	r4,r18
   23bf0:	0033dbc0 	call	33dbc <__malloc_unlock>
   23bf4:	0005883a 	mov	r2,zero
   23bf8:	003f7b06 	br	239e8 <__alt_data_end+0xfffe39e8>
   23bfc:	88c00054 	ori	r3,r17,1
   23c00:	80c00115 	stw	r3,4(r16)
   23c04:	8463883a 	add	r17,r16,r17
   23c08:	10800054 	ori	r2,r2,1
   23c0c:	9c400215 	stw	r17,8(r19)
   23c10:	88800115 	stw	r2,4(r17)
   23c14:	9009883a 	mov	r4,r18
   23c18:	0033dbc0 	call	33dbc <__malloc_unlock>
   23c1c:	80800204 	addi	r2,r16,8
   23c20:	003f7106 	br	239e8 <__alt_data_end+0xfffe39e8>
   23c24:	00c00504 	movi	r3,20
   23c28:	18804a2e 	bgeu	r3,r2,23d54 <_malloc_r+0x610>
   23c2c:	00c01504 	movi	r3,84
   23c30:	18806e36 	bltu	r3,r2,23dec <_malloc_r+0x6a8>
   23c34:	8804d33a 	srli	r2,r17,12
   23c38:	12001bc4 	addi	r8,r2,111
   23c3c:	11c01b84 	addi	r7,r2,110
   23c40:	4209883a 	add	r4,r8,r8
   23c44:	003edd06 	br	237bc <__alt_data_end+0xfffe37bc>
   23c48:	3804d27a 	srli	r2,r7,9
   23c4c:	00c00104 	movi	r3,4
   23c50:	1880442e 	bgeu	r3,r2,23d64 <_malloc_r+0x620>
   23c54:	00c00504 	movi	r3,20
   23c58:	18808136 	bltu	r3,r2,23e60 <_malloc_r+0x71c>
   23c5c:	11401704 	addi	r5,r2,92
   23c60:	10c016c4 	addi	r3,r2,91
   23c64:	294b883a 	add	r5,r5,r5
   23c68:	294b883a 	add	r5,r5,r5
   23c6c:	294b883a 	add	r5,r5,r5
   23c70:	994b883a 	add	r5,r19,r5
   23c74:	28800017 	ldw	r2,0(r5)
   23c78:	018000f4 	movhi	r6,3
   23c7c:	297ffe04 	addi	r5,r5,-8
   23c80:	3198f204 	addi	r6,r6,25544
   23c84:	28806526 	beq	r5,r2,23e1c <_malloc_r+0x6d8>
   23c88:	01bfff04 	movi	r6,-4
   23c8c:	10c00117 	ldw	r3,4(r2)
   23c90:	1986703a 	and	r3,r3,r6
   23c94:	38c0022e 	bgeu	r7,r3,23ca0 <_malloc_r+0x55c>
   23c98:	10800217 	ldw	r2,8(r2)
   23c9c:	28bffb1e 	bne	r5,r2,23c8c <__alt_data_end+0xfffe3c8c>
   23ca0:	11400317 	ldw	r5,12(r2)
   23ca4:	98c00117 	ldw	r3,4(r19)
   23ca8:	81400315 	stw	r5,12(r16)
   23cac:	80800215 	stw	r2,8(r16)
   23cb0:	2c000215 	stw	r16,8(r5)
   23cb4:	14000315 	stw	r16,12(r2)
   23cb8:	003ef806 	br	2389c <__alt_data_end+0xfffe389c>
   23cbc:	88c00054 	ori	r3,r17,1
   23cc0:	80c00115 	stw	r3,4(r16)
   23cc4:	8463883a 	add	r17,r16,r17
   23cc8:	34400515 	stw	r17,20(r6)
   23ccc:	34400415 	stw	r17,16(r6)
   23cd0:	10c00054 	ori	r3,r2,1
   23cd4:	8a000315 	stw	r8,12(r17)
   23cd8:	8a000215 	stw	r8,8(r17)
   23cdc:	88c00115 	stw	r3,4(r17)
   23ce0:	88a3883a 	add	r17,r17,r2
   23ce4:	88800015 	stw	r2,0(r17)
   23ce8:	9009883a 	mov	r4,r18
   23cec:	0033dbc0 	call	33dbc <__malloc_unlock>
   23cf0:	80800204 	addi	r2,r16,8
   23cf4:	003f3c06 	br	239e8 <__alt_data_end+0xfffe39e8>
   23cf8:	30c00117 	ldw	r3,4(r6)
   23cfc:	003ee706 	br	2389c <__alt_data_end+0xfffe389c>
   23d00:	5ac00044 	addi	r11,r11,1
   23d04:	588000cc 	andi	r2,r11,3
   23d08:	31800204 	addi	r6,r6,8
   23d0c:	103efd1e 	bne	r2,zero,23904 <__alt_data_end+0xfffe3904>
   23d10:	00002406 	br	23da4 <_malloc_r+0x660>
   23d14:	14000317 	ldw	r16,12(r2)
   23d18:	143f251e 	bne	r2,r16,239b0 <__alt_data_end+0xfffe39b0>
   23d1c:	21000084 	addi	r4,r4,2
   23d20:	003ebc06 	br	23814 <__alt_data_end+0xfffe3814>
   23d24:	8085883a 	add	r2,r16,r2
   23d28:	10c00117 	ldw	r3,4(r2)
   23d2c:	81000317 	ldw	r4,12(r16)
   23d30:	81400217 	ldw	r5,8(r16)
   23d34:	18c00054 	ori	r3,r3,1
   23d38:	10c00115 	stw	r3,4(r2)
   23d3c:	29000315 	stw	r4,12(r5)
   23d40:	21400215 	stw	r5,8(r4)
   23d44:	9009883a 	mov	r4,r18
   23d48:	0033dbc0 	call	33dbc <__malloc_unlock>
   23d4c:	80800204 	addi	r2,r16,8
   23d50:	003f2506 	br	239e8 <__alt_data_end+0xfffe39e8>
   23d54:	12001704 	addi	r8,r2,92
   23d58:	11c016c4 	addi	r7,r2,91
   23d5c:	4209883a 	add	r4,r8,r8
   23d60:	003e9606 	br	237bc <__alt_data_end+0xfffe37bc>
   23d64:	3804d1ba 	srli	r2,r7,6
   23d68:	11400e44 	addi	r5,r2,57
   23d6c:	10c00e04 	addi	r3,r2,56
   23d70:	294b883a 	add	r5,r5,r5
   23d74:	003fbc06 	br	23c68 <__alt_data_end+0xfffe3c68>
   23d78:	84ff5926 	beq	r16,r19,23ae0 <__alt_data_end+0xfffe3ae0>
   23d7c:	008000f4 	movhi	r2,3
   23d80:	1098f204 	addi	r2,r2,25544
   23d84:	14000217 	ldw	r16,8(r2)
   23d88:	00bfff04 	movi	r2,-4
   23d8c:	80c00117 	ldw	r3,4(r16)
   23d90:	1886703a 	and	r3,r3,r2
   23d94:	003f9106 	br	23bdc <__alt_data_end+0xfffe3bdc>
   23d98:	60800217 	ldw	r2,8(r12)
   23d9c:	213fffc4 	addi	r4,r4,-1
   23da0:	1300651e 	bne	r2,r12,23f38 <_malloc_r+0x7f4>
   23da4:	208000cc 	andi	r2,r4,3
   23da8:	633ffe04 	addi	r12,r12,-8
   23dac:	103ffa1e 	bne	r2,zero,23d98 <__alt_data_end+0xfffe3d98>
   23db0:	98800117 	ldw	r2,4(r19)
   23db4:	0146303a 	nor	r3,zero,r5
   23db8:	1884703a 	and	r2,r3,r2
   23dbc:	98800115 	stw	r2,4(r19)
   23dc0:	294b883a 	add	r5,r5,r5
   23dc4:	117f2836 	bltu	r2,r5,23a68 <__alt_data_end+0xfffe3a68>
   23dc8:	283f2726 	beq	r5,zero,23a68 <__alt_data_end+0xfffe3a68>
   23dcc:	2886703a 	and	r3,r5,r2
   23dd0:	5809883a 	mov	r4,r11
   23dd4:	183ec31e 	bne	r3,zero,238e4 <__alt_data_end+0xfffe38e4>
   23dd8:	294b883a 	add	r5,r5,r5
   23ddc:	2886703a 	and	r3,r5,r2
   23de0:	21000104 	addi	r4,r4,4
   23de4:	183ffc26 	beq	r3,zero,23dd8 <__alt_data_end+0xfffe3dd8>
   23de8:	003ebe06 	br	238e4 <__alt_data_end+0xfffe38e4>
   23dec:	00c05504 	movi	r3,340
   23df0:	18801236 	bltu	r3,r2,23e3c <_malloc_r+0x6f8>
   23df4:	8804d3fa 	srli	r2,r17,15
   23df8:	12001e04 	addi	r8,r2,120
   23dfc:	11c01dc4 	addi	r7,r2,119
   23e00:	4209883a 	add	r4,r8,r8
   23e04:	003e6d06 	br	237bc <__alt_data_end+0xfffe37bc>
   23e08:	00c40004 	movi	r3,4096
   23e0c:	003f4606 	br	23b28 <__alt_data_end+0xfffe3b28>
   23e10:	00800044 	movi	r2,1
   23e14:	a0800115 	stw	r2,4(r20)
   23e18:	003f7406 	br	23bec <__alt_data_end+0xfffe3bec>
   23e1c:	1805d0ba 	srai	r2,r3,2
   23e20:	01c00044 	movi	r7,1
   23e24:	30c00117 	ldw	r3,4(r6)
   23e28:	388e983a 	sll	r7,r7,r2
   23e2c:	2805883a 	mov	r2,r5
   23e30:	38c6b03a 	or	r3,r7,r3
   23e34:	30c00115 	stw	r3,4(r6)
   23e38:	003f9b06 	br	23ca8 <__alt_data_end+0xfffe3ca8>
   23e3c:	00c15504 	movi	r3,1364
   23e40:	18801a36 	bltu	r3,r2,23eac <_malloc_r+0x768>
   23e44:	8804d4ba 	srli	r2,r17,18
   23e48:	12001f44 	addi	r8,r2,125
   23e4c:	11c01f04 	addi	r7,r2,124
   23e50:	4209883a 	add	r4,r8,r8
   23e54:	003e5906 	br	237bc <__alt_data_end+0xfffe37bc>
   23e58:	ad400404 	addi	r21,r21,16
   23e5c:	003f1706 	br	23abc <__alt_data_end+0xfffe3abc>
   23e60:	00c01504 	movi	r3,84
   23e64:	18802336 	bltu	r3,r2,23ef4 <_malloc_r+0x7b0>
   23e68:	3804d33a 	srli	r2,r7,12
   23e6c:	11401bc4 	addi	r5,r2,111
   23e70:	10c01b84 	addi	r3,r2,110
   23e74:	294b883a 	add	r5,r5,r5
   23e78:	003f7b06 	br	23c68 <__alt_data_end+0xfffe3c68>
   23e7c:	9c000217 	ldw	r16,8(r19)
   23e80:	00bfff04 	movi	r2,-4
   23e84:	80c00117 	ldw	r3,4(r16)
   23e88:	1886703a 	and	r3,r3,r2
   23e8c:	003f5306 	br	23bdc <__alt_data_end+0xfffe3bdc>
   23e90:	3083ffcc 	andi	r2,r6,4095
   23e94:	103f181e 	bne	r2,zero,23af8 <__alt_data_end+0xfffe3af8>
   23e98:	99000217 	ldw	r4,8(r19)
   23e9c:	b545883a 	add	r2,r22,r21
   23ea0:	10800054 	ori	r2,r2,1
   23ea4:	20800115 	stw	r2,4(r4)
   23ea8:	003f3e06 	br	23ba4 <__alt_data_end+0xfffe3ba4>
   23eac:	01003f84 	movi	r4,254
   23eb0:	02001fc4 	movi	r8,127
   23eb4:	01c01f84 	movi	r7,126
   23eb8:	003e4006 	br	237bc <__alt_data_end+0xfffe37bc>
   23ebc:	008000f4 	movhi	r2,3
   23ec0:	109a9704 	addi	r2,r2,27228
   23ec4:	15000015 	stw	r20,0(r2)
   23ec8:	003f1106 	br	23b10 <__alt_data_end+0xfffe3b10>
   23ecc:	00800044 	movi	r2,1
   23ed0:	002b883a 	mov	r21,zero
   23ed4:	003f1f06 	br	23b54 <__alt_data_end+0xfffe3b54>
   23ed8:	81400204 	addi	r5,r16,8
   23edc:	9009883a 	mov	r4,r18
   23ee0:	002afe40 	call	2afe4 <_free_r>
   23ee4:	008000f4 	movhi	r2,3
   23ee8:	109f6004 	addi	r2,r2,32128
   23eec:	10c00017 	ldw	r3,0(r2)
   23ef0:	003f2c06 	br	23ba4 <__alt_data_end+0xfffe3ba4>
   23ef4:	00c05504 	movi	r3,340
   23ef8:	18800536 	bltu	r3,r2,23f10 <_malloc_r+0x7cc>
   23efc:	3804d3fa 	srli	r2,r7,15
   23f00:	11401e04 	addi	r5,r2,120
   23f04:	10c01dc4 	addi	r3,r2,119
   23f08:	294b883a 	add	r5,r5,r5
   23f0c:	003f5606 	br	23c68 <__alt_data_end+0xfffe3c68>
   23f10:	00c15504 	movi	r3,1364
   23f14:	18800536 	bltu	r3,r2,23f2c <_malloc_r+0x7e8>
   23f18:	3804d4ba 	srli	r2,r7,18
   23f1c:	11401f44 	addi	r5,r2,125
   23f20:	10c01f04 	addi	r3,r2,124
   23f24:	294b883a 	add	r5,r5,r5
   23f28:	003f4f06 	br	23c68 <__alt_data_end+0xfffe3c68>
   23f2c:	01403f84 	movi	r5,254
   23f30:	00c01f84 	movi	r3,126
   23f34:	003f4c06 	br	23c68 <__alt_data_end+0xfffe3c68>
   23f38:	98800117 	ldw	r2,4(r19)
   23f3c:	003fa006 	br	23dc0 <__alt_data_end+0xfffe3dc0>
   23f40:	8808d0fa 	srli	r4,r17,3
   23f44:	20800044 	addi	r2,r4,1
   23f48:	1085883a 	add	r2,r2,r2
   23f4c:	003e9006 	br	23990 <__alt_data_end+0xfffe3990>

00023f50 <memset>:
   23f50:	20c000cc 	andi	r3,r4,3
   23f54:	2005883a 	mov	r2,r4
   23f58:	18004426 	beq	r3,zero,2406c <memset+0x11c>
   23f5c:	31ffffc4 	addi	r7,r6,-1
   23f60:	30004026 	beq	r6,zero,24064 <memset+0x114>
   23f64:	2813883a 	mov	r9,r5
   23f68:	200d883a 	mov	r6,r4
   23f6c:	2007883a 	mov	r3,r4
   23f70:	00000406 	br	23f84 <memset+0x34>
   23f74:	3a3fffc4 	addi	r8,r7,-1
   23f78:	31800044 	addi	r6,r6,1
   23f7c:	38003926 	beq	r7,zero,24064 <memset+0x114>
   23f80:	400f883a 	mov	r7,r8
   23f84:	18c00044 	addi	r3,r3,1
   23f88:	32400005 	stb	r9,0(r6)
   23f8c:	1a0000cc 	andi	r8,r3,3
   23f90:	403ff81e 	bne	r8,zero,23f74 <__alt_data_end+0xfffe3f74>
   23f94:	010000c4 	movi	r4,3
   23f98:	21c02d2e 	bgeu	r4,r7,24050 <memset+0x100>
   23f9c:	29003fcc 	andi	r4,r5,255
   23fa0:	200c923a 	slli	r6,r4,8
   23fa4:	3108b03a 	or	r4,r6,r4
   23fa8:	200c943a 	slli	r6,r4,16
   23fac:	218cb03a 	or	r6,r4,r6
   23fb0:	010003c4 	movi	r4,15
   23fb4:	21c0182e 	bgeu	r4,r7,24018 <memset+0xc8>
   23fb8:	3b3ffc04 	addi	r12,r7,-16
   23fbc:	6018d13a 	srli	r12,r12,4
   23fc0:	1a000104 	addi	r8,r3,4
   23fc4:	1ac00204 	addi	r11,r3,8
   23fc8:	6008913a 	slli	r4,r12,4
   23fcc:	1a800304 	addi	r10,r3,12
   23fd0:	1813883a 	mov	r9,r3
   23fd4:	21000504 	addi	r4,r4,20
   23fd8:	1909883a 	add	r4,r3,r4
   23fdc:	49800015 	stw	r6,0(r9)
   23fe0:	41800015 	stw	r6,0(r8)
   23fe4:	59800015 	stw	r6,0(r11)
   23fe8:	51800015 	stw	r6,0(r10)
   23fec:	42000404 	addi	r8,r8,16
   23ff0:	4a400404 	addi	r9,r9,16
   23ff4:	5ac00404 	addi	r11,r11,16
   23ff8:	52800404 	addi	r10,r10,16
   23ffc:	413ff71e 	bne	r8,r4,23fdc <__alt_data_end+0xfffe3fdc>
   24000:	63000044 	addi	r12,r12,1
   24004:	6018913a 	slli	r12,r12,4
   24008:	39c003cc 	andi	r7,r7,15
   2400c:	010000c4 	movi	r4,3
   24010:	1b07883a 	add	r3,r3,r12
   24014:	21c00e2e 	bgeu	r4,r7,24050 <memset+0x100>
   24018:	1813883a 	mov	r9,r3
   2401c:	3811883a 	mov	r8,r7
   24020:	010000c4 	movi	r4,3
   24024:	49800015 	stw	r6,0(r9)
   24028:	423fff04 	addi	r8,r8,-4
   2402c:	4a400104 	addi	r9,r9,4
   24030:	223ffc36 	bltu	r4,r8,24024 <__alt_data_end+0xfffe4024>
   24034:	393fff04 	addi	r4,r7,-4
   24038:	2008d0ba 	srli	r4,r4,2
   2403c:	39c000cc 	andi	r7,r7,3
   24040:	21000044 	addi	r4,r4,1
   24044:	2109883a 	add	r4,r4,r4
   24048:	2109883a 	add	r4,r4,r4
   2404c:	1907883a 	add	r3,r3,r4
   24050:	38000526 	beq	r7,zero,24068 <memset+0x118>
   24054:	19cf883a 	add	r7,r3,r7
   24058:	19400005 	stb	r5,0(r3)
   2405c:	18c00044 	addi	r3,r3,1
   24060:	38fffd1e 	bne	r7,r3,24058 <__alt_data_end+0xfffe4058>
   24064:	f800283a 	ret
   24068:	f800283a 	ret
   2406c:	2007883a 	mov	r3,r4
   24070:	300f883a 	mov	r7,r6
   24074:	003fc706 	br	23f94 <__alt_data_end+0xfffe3f94>

00024078 <_open_r>:
   24078:	defffd04 	addi	sp,sp,-12
   2407c:	2805883a 	mov	r2,r5
   24080:	dc000015 	stw	r16,0(sp)
   24084:	040000f4 	movhi	r16,3
   24088:	dc400115 	stw	r17,4(sp)
   2408c:	300b883a 	mov	r5,r6
   24090:	841f5204 	addi	r16,r16,32072
   24094:	2023883a 	mov	r17,r4
   24098:	380d883a 	mov	r6,r7
   2409c:	1009883a 	mov	r4,r2
   240a0:	dfc00215 	stw	ra,8(sp)
   240a4:	80000015 	stw	zero,0(r16)
   240a8:	0033dc00 	call	33dc0 <open>
   240ac:	00ffffc4 	movi	r3,-1
   240b0:	10c00526 	beq	r2,r3,240c8 <_open_r+0x50>
   240b4:	dfc00217 	ldw	ra,8(sp)
   240b8:	dc400117 	ldw	r17,4(sp)
   240bc:	dc000017 	ldw	r16,0(sp)
   240c0:	dec00304 	addi	sp,sp,12
   240c4:	f800283a 	ret
   240c8:	80c00017 	ldw	r3,0(r16)
   240cc:	183ff926 	beq	r3,zero,240b4 <__alt_data_end+0xfffe40b4>
   240d0:	88c00015 	stw	r3,0(r17)
   240d4:	003ff706 	br	240b4 <__alt_data_end+0xfffe40b4>

000240d8 <_printf_r>:
   240d8:	defffd04 	addi	sp,sp,-12
   240dc:	2805883a 	mov	r2,r5
   240e0:	dfc00015 	stw	ra,0(sp)
   240e4:	d9800115 	stw	r6,4(sp)
   240e8:	d9c00215 	stw	r7,8(sp)
   240ec:	21400217 	ldw	r5,8(r4)
   240f0:	d9c00104 	addi	r7,sp,4
   240f4:	100d883a 	mov	r6,r2
   240f8:	0026a6c0 	call	26a6c <___vfprintf_internal_r>
   240fc:	dfc00017 	ldw	ra,0(sp)
   24100:	dec00304 	addi	sp,sp,12
   24104:	f800283a 	ret

00024108 <printf>:
   24108:	defffc04 	addi	sp,sp,-16
   2410c:	dfc00015 	stw	ra,0(sp)
   24110:	d9400115 	stw	r5,4(sp)
   24114:	d9800215 	stw	r6,8(sp)
   24118:	d9c00315 	stw	r7,12(sp)
   2411c:	008000f4 	movhi	r2,3
   24120:	109a9604 	addi	r2,r2,27224
   24124:	10800017 	ldw	r2,0(r2)
   24128:	200b883a 	mov	r5,r4
   2412c:	d9800104 	addi	r6,sp,4
   24130:	11000217 	ldw	r4,8(r2)
   24134:	0028c640 	call	28c64 <__vfprintf_internal>
   24138:	dfc00017 	ldw	ra,0(sp)
   2413c:	dec00404 	addi	sp,sp,16
   24140:	f800283a 	ret

00024144 <_putchar_r>:
   24144:	21800217 	ldw	r6,8(r4)
   24148:	002ce4c1 	jmpi	2ce4c <_putc_r>

0002414c <putchar>:
   2414c:	008000f4 	movhi	r2,3
   24150:	109a9604 	addi	r2,r2,27224
   24154:	200b883a 	mov	r5,r4
   24158:	11000017 	ldw	r4,0(r2)
   2415c:	21800217 	ldw	r6,8(r4)
   24160:	002ce4c1 	jmpi	2ce4c <_putc_r>

00024164 <_puts_r>:
   24164:	defff604 	addi	sp,sp,-40
   24168:	dc000715 	stw	r16,28(sp)
   2416c:	2021883a 	mov	r16,r4
   24170:	2809883a 	mov	r4,r5
   24174:	dc400815 	stw	r17,32(sp)
   24178:	dfc00915 	stw	ra,36(sp)
   2417c:	2823883a 	mov	r17,r5
   24180:	00247fc0 	call	247fc <strlen>
   24184:	10c00044 	addi	r3,r2,1
   24188:	d8800115 	stw	r2,4(sp)
   2418c:	008000f4 	movhi	r2,3
   24190:	10953304 	addi	r2,r2,21708
   24194:	d8800215 	stw	r2,8(sp)
   24198:	00800044 	movi	r2,1
   2419c:	d8800315 	stw	r2,12(sp)
   241a0:	00800084 	movi	r2,2
   241a4:	dc400015 	stw	r17,0(sp)
   241a8:	d8c00615 	stw	r3,24(sp)
   241ac:	dec00415 	stw	sp,16(sp)
   241b0:	d8800515 	stw	r2,20(sp)
   241b4:	80000226 	beq	r16,zero,241c0 <_puts_r+0x5c>
   241b8:	80800e17 	ldw	r2,56(r16)
   241bc:	10001426 	beq	r2,zero,24210 <_puts_r+0xac>
   241c0:	81400217 	ldw	r5,8(r16)
   241c4:	2880030b 	ldhu	r2,12(r5)
   241c8:	10c8000c 	andi	r3,r2,8192
   241cc:	1800061e 	bne	r3,zero,241e8 <_puts_r+0x84>
   241d0:	29001917 	ldw	r4,100(r5)
   241d4:	00f7ffc4 	movi	r3,-8193
   241d8:	10880014 	ori	r2,r2,8192
   241dc:	20c6703a 	and	r3,r4,r3
   241e0:	2880030d 	sth	r2,12(r5)
   241e4:	28c01915 	stw	r3,100(r5)
   241e8:	d9800404 	addi	r6,sp,16
   241ec:	8009883a 	mov	r4,r16
   241f0:	002b2f40 	call	2b2f4 <__sfvwrite_r>
   241f4:	1000091e 	bne	r2,zero,2421c <_puts_r+0xb8>
   241f8:	00800284 	movi	r2,10
   241fc:	dfc00917 	ldw	ra,36(sp)
   24200:	dc400817 	ldw	r17,32(sp)
   24204:	dc000717 	ldw	r16,28(sp)
   24208:	dec00a04 	addi	sp,sp,40
   2420c:	f800283a 	ret
   24210:	8009883a 	mov	r4,r16
   24214:	002adc40 	call	2adc4 <__sinit>
   24218:	003fe906 	br	241c0 <__alt_data_end+0xfffe41c0>
   2421c:	00bfffc4 	movi	r2,-1
   24220:	003ff606 	br	241fc <__alt_data_end+0xfffe41fc>

00024224 <puts>:
   24224:	008000f4 	movhi	r2,3
   24228:	109a9604 	addi	r2,r2,27224
   2422c:	200b883a 	mov	r5,r4
   24230:	11000017 	ldw	r4,0(r2)
   24234:	00241641 	jmpi	24164 <_puts_r>

00024238 <lflush>:
   24238:	2080030b 	ldhu	r2,12(r4)
   2423c:	00c00244 	movi	r3,9
   24240:	1080024c 	andi	r2,r2,9
   24244:	10c00226 	beq	r2,r3,24250 <lflush+0x18>
   24248:	0005883a 	mov	r2,zero
   2424c:	f800283a 	ret
   24250:	002aa441 	jmpi	2aa44 <fflush>

00024254 <__srefill_r>:
   24254:	defffc04 	addi	sp,sp,-16
   24258:	dc400115 	stw	r17,4(sp)
   2425c:	dc000015 	stw	r16,0(sp)
   24260:	dfc00315 	stw	ra,12(sp)
   24264:	dc800215 	stw	r18,8(sp)
   24268:	2023883a 	mov	r17,r4
   2426c:	2821883a 	mov	r16,r5
   24270:	20000226 	beq	r4,zero,2427c <__srefill_r+0x28>
   24274:	20800e17 	ldw	r2,56(r4)
   24278:	10003c26 	beq	r2,zero,2436c <__srefill_r+0x118>
   2427c:	80c0030b 	ldhu	r3,12(r16)
   24280:	1908000c 	andi	r4,r3,8192
   24284:	1805883a 	mov	r2,r3
   24288:	2000071e 	bne	r4,zero,242a8 <__srefill_r+0x54>
   2428c:	81001917 	ldw	r4,100(r16)
   24290:	18880014 	ori	r2,r3,8192
   24294:	00f7ffc4 	movi	r3,-8193
   24298:	20c8703a 	and	r4,r4,r3
   2429c:	8080030d 	sth	r2,12(r16)
   242a0:	1007883a 	mov	r3,r2
   242a4:	81001915 	stw	r4,100(r16)
   242a8:	80000115 	stw	zero,4(r16)
   242ac:	1100080c 	andi	r4,r2,32
   242b0:	2000571e 	bne	r4,zero,24410 <__srefill_r+0x1bc>
   242b4:	1100010c 	andi	r4,r2,4
   242b8:	20001f26 	beq	r4,zero,24338 <__srefill_r+0xe4>
   242bc:	81400c17 	ldw	r5,48(r16)
   242c0:	28000826 	beq	r5,zero,242e4 <__srefill_r+0x90>
   242c4:	80801004 	addi	r2,r16,64
   242c8:	28800226 	beq	r5,r2,242d4 <__srefill_r+0x80>
   242cc:	8809883a 	mov	r4,r17
   242d0:	002afe40 	call	2afe4 <_free_r>
   242d4:	80800f17 	ldw	r2,60(r16)
   242d8:	80000c15 	stw	zero,48(r16)
   242dc:	80800115 	stw	r2,4(r16)
   242e0:	1000391e 	bne	r2,zero,243c8 <__srefill_r+0x174>
   242e4:	80800417 	ldw	r2,16(r16)
   242e8:	10004b26 	beq	r2,zero,24418 <__srefill_r+0x1c4>
   242ec:	8480030b 	ldhu	r18,12(r16)
   242f0:	908000cc 	andi	r2,r18,3
   242f4:	10001f1e 	bne	r2,zero,24374 <__srefill_r+0x120>
   242f8:	81800417 	ldw	r6,16(r16)
   242fc:	80800817 	ldw	r2,32(r16)
   24300:	81c00517 	ldw	r7,20(r16)
   24304:	81400717 	ldw	r5,28(r16)
   24308:	81800015 	stw	r6,0(r16)
   2430c:	8809883a 	mov	r4,r17
   24310:	103ee83a 	callr	r2
   24314:	80800115 	stw	r2,4(r16)
   24318:	00800e0e 	bge	zero,r2,24354 <__srefill_r+0x100>
   2431c:	0005883a 	mov	r2,zero
   24320:	dfc00317 	ldw	ra,12(sp)
   24324:	dc800217 	ldw	r18,8(sp)
   24328:	dc400117 	ldw	r17,4(sp)
   2432c:	dc000017 	ldw	r16,0(sp)
   24330:	dec00404 	addi	sp,sp,16
   24334:	f800283a 	ret
   24338:	1100040c 	andi	r4,r2,16
   2433c:	20003026 	beq	r4,zero,24400 <__srefill_r+0x1ac>
   24340:	1080020c 	andi	r2,r2,8
   24344:	1000241e 	bne	r2,zero,243d8 <__srefill_r+0x184>
   24348:	18c00114 	ori	r3,r3,4
   2434c:	80c0030d 	sth	r3,12(r16)
   24350:	003fe406 	br	242e4 <__alt_data_end+0xfffe42e4>
   24354:	80c0030b 	ldhu	r3,12(r16)
   24358:	1000161e 	bne	r2,zero,243b4 <__srefill_r+0x160>
   2435c:	18c00814 	ori	r3,r3,32
   24360:	00bfffc4 	movi	r2,-1
   24364:	80c0030d 	sth	r3,12(r16)
   24368:	003fed06 	br	24320 <__alt_data_end+0xfffe4320>
   2436c:	002adc40 	call	2adc4 <__sinit>
   24370:	003fc206 	br	2427c <__alt_data_end+0xfffe427c>
   24374:	008000f4 	movhi	r2,3
   24378:	109a9504 	addi	r2,r2,27220
   2437c:	11000017 	ldw	r4,0(r2)
   24380:	014000b4 	movhi	r5,2
   24384:	00800044 	movi	r2,1
   24388:	29508e04 	addi	r5,r5,16952
   2438c:	8080030d 	sth	r2,12(r16)
   24390:	002b7b00 	call	2b7b0 <_fwalk>
   24394:	00800244 	movi	r2,9
   24398:	8480030d 	sth	r18,12(r16)
   2439c:	9480024c 	andi	r18,r18,9
   243a0:	90bfd51e 	bne	r18,r2,242f8 <__alt_data_end+0xfffe42f8>
   243a4:	800b883a 	mov	r5,r16
   243a8:	8809883a 	mov	r4,r17
   243ac:	002a7cc0 	call	2a7cc <__sflush_r>
   243b0:	003fd106 	br	242f8 <__alt_data_end+0xfffe42f8>
   243b4:	18c01014 	ori	r3,r3,64
   243b8:	80000115 	stw	zero,4(r16)
   243bc:	00bfffc4 	movi	r2,-1
   243c0:	80c0030d 	sth	r3,12(r16)
   243c4:	003fd606 	br	24320 <__alt_data_end+0xfffe4320>
   243c8:	80c00e17 	ldw	r3,56(r16)
   243cc:	0005883a 	mov	r2,zero
   243d0:	80c00015 	stw	r3,0(r16)
   243d4:	003fd206 	br	24320 <__alt_data_end+0xfffe4320>
   243d8:	800b883a 	mov	r5,r16
   243dc:	8809883a 	mov	r4,r17
   243e0:	002a9e80 	call	2a9e8 <_fflush_r>
   243e4:	10000a1e 	bne	r2,zero,24410 <__srefill_r+0x1bc>
   243e8:	8080030b 	ldhu	r2,12(r16)
   243ec:	00fffdc4 	movi	r3,-9
   243f0:	80000215 	stw	zero,8(r16)
   243f4:	1886703a 	and	r3,r3,r2
   243f8:	80000615 	stw	zero,24(r16)
   243fc:	003fd206 	br	24348 <__alt_data_end+0xfffe4348>
   24400:	00800244 	movi	r2,9
   24404:	88800015 	stw	r2,0(r17)
   24408:	18c01014 	ori	r3,r3,64
   2440c:	80c0030d 	sth	r3,12(r16)
   24410:	00bfffc4 	movi	r2,-1
   24414:	003fc206 	br	24320 <__alt_data_end+0xfffe4320>
   24418:	800b883a 	mov	r5,r16
   2441c:	8809883a 	mov	r4,r17
   24420:	00235600 	call	23560 <__smakebuf_r>
   24424:	003fb106 	br	242ec <__alt_data_end+0xfffe42ec>

00024428 <__srget_r>:
   24428:	defffd04 	addi	sp,sp,-12
   2442c:	dc400115 	stw	r17,4(sp)
   24430:	dc000015 	stw	r16,0(sp)
   24434:	dfc00215 	stw	ra,8(sp)
   24438:	2023883a 	mov	r17,r4
   2443c:	2821883a 	mov	r16,r5
   24440:	20000226 	beq	r4,zero,2444c <__srget_r+0x24>
   24444:	20800e17 	ldw	r2,56(r4)
   24448:	10001026 	beq	r2,zero,2448c <__srget_r+0x64>
   2444c:	800b883a 	mov	r5,r16
   24450:	8809883a 	mov	r4,r17
   24454:	00242540 	call	24254 <__srefill_r>
   24458:	10000e1e 	bne	r2,zero,24494 <__srget_r+0x6c>
   2445c:	80c00017 	ldw	r3,0(r16)
   24460:	80800117 	ldw	r2,4(r16)
   24464:	19000044 	addi	r4,r3,1
   24468:	10bfffc4 	addi	r2,r2,-1
   2446c:	80800115 	stw	r2,4(r16)
   24470:	81000015 	stw	r4,0(r16)
   24474:	18800003 	ldbu	r2,0(r3)
   24478:	dfc00217 	ldw	ra,8(sp)
   2447c:	dc400117 	ldw	r17,4(sp)
   24480:	dc000017 	ldw	r16,0(sp)
   24484:	dec00304 	addi	sp,sp,12
   24488:	f800283a 	ret
   2448c:	002adc40 	call	2adc4 <__sinit>
   24490:	003fee06 	br	2444c <__alt_data_end+0xfffe444c>
   24494:	00bfffc4 	movi	r2,-1
   24498:	003ff706 	br	24478 <__alt_data_end+0xfffe4478>

0002449c <__srget>:
   2449c:	008000f4 	movhi	r2,3
   244a0:	109a9604 	addi	r2,r2,27224
   244a4:	200b883a 	mov	r5,r4
   244a8:	11000017 	ldw	r4,0(r2)
   244ac:	00244281 	jmpi	24428 <__srget_r>

000244b0 <_sbrk_r>:
   244b0:	defffd04 	addi	sp,sp,-12
   244b4:	dc000015 	stw	r16,0(sp)
   244b8:	040000f4 	movhi	r16,3
   244bc:	dc400115 	stw	r17,4(sp)
   244c0:	841f5204 	addi	r16,r16,32072
   244c4:	2023883a 	mov	r17,r4
   244c8:	2809883a 	mov	r4,r5
   244cc:	dfc00215 	stw	ra,8(sp)
   244d0:	80000015 	stw	zero,0(r16)
   244d4:	00340200 	call	34020 <sbrk>
   244d8:	00ffffc4 	movi	r3,-1
   244dc:	10c00526 	beq	r2,r3,244f4 <_sbrk_r+0x44>
   244e0:	dfc00217 	ldw	ra,8(sp)
   244e4:	dc400117 	ldw	r17,4(sp)
   244e8:	dc000017 	ldw	r16,0(sp)
   244ec:	dec00304 	addi	sp,sp,12
   244f0:	f800283a 	ret
   244f4:	80c00017 	ldw	r3,0(r16)
   244f8:	183ff926 	beq	r3,zero,244e0 <__alt_data_end+0xfffe44e0>
   244fc:	88c00015 	stw	r3,0(r17)
   24500:	003ff706 	br	244e0 <__alt_data_end+0xfffe44e0>

00024504 <_snprintf_r>:
   24504:	30003116 	blt	r6,zero,245cc <_snprintf_r+0xc8>
   24508:	deffe404 	addi	sp,sp,-112
   2450c:	00c08204 	movi	r3,520
   24510:	dc001a15 	stw	r16,104(sp)
   24514:	3005883a 	mov	r2,r6
   24518:	dfc01b15 	stw	ra,108(sp)
   2451c:	d8c0030d 	sth	r3,12(sp)
   24520:	d9400015 	stw	r5,0(sp)
   24524:	d9400415 	stw	r5,16(sp)
   24528:	380d883a 	mov	r6,r7
   2452c:	2021883a 	mov	r16,r4
   24530:	10001026 	beq	r2,zero,24574 <_snprintf_r+0x70>
   24534:	10bfffc4 	addi	r2,r2,-1
   24538:	d8800215 	stw	r2,8(sp)
   2453c:	d8800515 	stw	r2,20(sp)
   24540:	d9c01c04 	addi	r7,sp,112
   24544:	00bfffc4 	movi	r2,-1
   24548:	d80b883a 	mov	r5,sp
   2454c:	d880038d 	sth	r2,14(sp)
   24550:	00248940 	call	24894 <___svfprintf_internal_r>
   24554:	00ffffc4 	movi	r3,-1
   24558:	10c01316 	blt	r2,r3,245a8 <_snprintf_r+0xa4>
   2455c:	d8c00017 	ldw	r3,0(sp)
   24560:	18000005 	stb	zero,0(r3)
   24564:	dfc01b17 	ldw	ra,108(sp)
   24568:	dc001a17 	ldw	r16,104(sp)
   2456c:	dec01c04 	addi	sp,sp,112
   24570:	f800283a 	ret
   24574:	00bfffc4 	movi	r2,-1
   24578:	d9c01c04 	addi	r7,sp,112
   2457c:	d80b883a 	mov	r5,sp
   24580:	d8000215 	stw	zero,8(sp)
   24584:	d8000515 	stw	zero,20(sp)
   24588:	d880038d 	sth	r2,14(sp)
   2458c:	00248940 	call	24894 <___svfprintf_internal_r>
   24590:	00ffffc4 	movi	r3,-1
   24594:	10c00716 	blt	r2,r3,245b4 <_snprintf_r+0xb0>
   24598:	dfc01b17 	ldw	ra,108(sp)
   2459c:	dc001a17 	ldw	r16,104(sp)
   245a0:	dec01c04 	addi	sp,sp,112
   245a4:	f800283a 	ret
   245a8:	00c022c4 	movi	r3,139
   245ac:	80c00015 	stw	r3,0(r16)
   245b0:	003fea06 	br	2455c <__alt_data_end+0xfffe455c>
   245b4:	00c022c4 	movi	r3,139
   245b8:	80c00015 	stw	r3,0(r16)
   245bc:	dfc01b17 	ldw	ra,108(sp)
   245c0:	dc001a17 	ldw	r16,104(sp)
   245c4:	dec01c04 	addi	sp,sp,112
   245c8:	f800283a 	ret
   245cc:	008022c4 	movi	r2,139
   245d0:	20800015 	stw	r2,0(r4)
   245d4:	00bfffc4 	movi	r2,-1
   245d8:	f800283a 	ret

000245dc <snprintf>:
   245dc:	deffe304 	addi	sp,sp,-116
   245e0:	dfc01b15 	stw	ra,108(sp)
   245e4:	dc001a15 	stw	r16,104(sp)
   245e8:	d9c01c15 	stw	r7,112(sp)
   245ec:	008000f4 	movhi	r2,3
   245f0:	109a9604 	addi	r2,r2,27224
   245f4:	14000017 	ldw	r16,0(r2)
   245f8:	28002d16 	blt	r5,zero,246b0 <snprintf+0xd4>
   245fc:	00808204 	movi	r2,520
   24600:	d880030d 	sth	r2,12(sp)
   24604:	d9000015 	stw	r4,0(sp)
   24608:	d9000415 	stw	r4,16(sp)
   2460c:	28001126 	beq	r5,zero,24654 <snprintf+0x78>
   24610:	28bfffc4 	addi	r2,r5,-1
   24614:	d8800215 	stw	r2,8(sp)
   24618:	d8800515 	stw	r2,20(sp)
   2461c:	d9c01c04 	addi	r7,sp,112
   24620:	00bfffc4 	movi	r2,-1
   24624:	d80b883a 	mov	r5,sp
   24628:	8009883a 	mov	r4,r16
   2462c:	d880038d 	sth	r2,14(sp)
   24630:	00248940 	call	24894 <___svfprintf_internal_r>
   24634:	00ffffc4 	movi	r3,-1
   24638:	10c01416 	blt	r2,r3,2468c <snprintf+0xb0>
   2463c:	d8c00017 	ldw	r3,0(sp)
   24640:	18000005 	stb	zero,0(r3)
   24644:	dfc01b17 	ldw	ra,108(sp)
   24648:	dc001a17 	ldw	r16,104(sp)
   2464c:	dec01d04 	addi	sp,sp,116
   24650:	f800283a 	ret
   24654:	00bfffc4 	movi	r2,-1
   24658:	d9c01c04 	addi	r7,sp,112
   2465c:	d80b883a 	mov	r5,sp
   24660:	8009883a 	mov	r4,r16
   24664:	d8000215 	stw	zero,8(sp)
   24668:	d8000515 	stw	zero,20(sp)
   2466c:	d880038d 	sth	r2,14(sp)
   24670:	00248940 	call	24894 <___svfprintf_internal_r>
   24674:	00ffffc4 	movi	r3,-1
   24678:	10c00716 	blt	r2,r3,24698 <snprintf+0xbc>
   2467c:	dfc01b17 	ldw	ra,108(sp)
   24680:	dc001a17 	ldw	r16,104(sp)
   24684:	dec01d04 	addi	sp,sp,116
   24688:	f800283a 	ret
   2468c:	00c022c4 	movi	r3,139
   24690:	80c00015 	stw	r3,0(r16)
   24694:	003fe906 	br	2463c <__alt_data_end+0xfffe463c>
   24698:	00c022c4 	movi	r3,139
   2469c:	80c00015 	stw	r3,0(r16)
   246a0:	dfc01b17 	ldw	ra,108(sp)
   246a4:	dc001a17 	ldw	r16,104(sp)
   246a8:	dec01d04 	addi	sp,sp,116
   246ac:	f800283a 	ret
   246b0:	008022c4 	movi	r2,139
   246b4:	80800015 	stw	r2,0(r16)
   246b8:	00bfffc4 	movi	r2,-1
   246bc:	003fef06 	br	2467c <__alt_data_end+0xfffe467c>

000246c0 <__sread>:
   246c0:	defffe04 	addi	sp,sp,-8
   246c4:	dc000015 	stw	r16,0(sp)
   246c8:	2821883a 	mov	r16,r5
   246cc:	2940038f 	ldh	r5,14(r5)
   246d0:	dfc00115 	stw	ra,4(sp)
   246d4:	002cfb40 	call	2cfb4 <_read_r>
   246d8:	10000716 	blt	r2,zero,246f8 <__sread+0x38>
   246dc:	80c01417 	ldw	r3,80(r16)
   246e0:	1887883a 	add	r3,r3,r2
   246e4:	80c01415 	stw	r3,80(r16)
   246e8:	dfc00117 	ldw	ra,4(sp)
   246ec:	dc000017 	ldw	r16,0(sp)
   246f0:	dec00204 	addi	sp,sp,8
   246f4:	f800283a 	ret
   246f8:	80c0030b 	ldhu	r3,12(r16)
   246fc:	18fbffcc 	andi	r3,r3,61439
   24700:	80c0030d 	sth	r3,12(r16)
   24704:	dfc00117 	ldw	ra,4(sp)
   24708:	dc000017 	ldw	r16,0(sp)
   2470c:	dec00204 	addi	sp,sp,8
   24710:	f800283a 	ret

00024714 <__seofread>:
   24714:	0005883a 	mov	r2,zero
   24718:	f800283a 	ret

0002471c <__swrite>:
   2471c:	2880030b 	ldhu	r2,12(r5)
   24720:	defffb04 	addi	sp,sp,-20
   24724:	dcc00315 	stw	r19,12(sp)
   24728:	dc800215 	stw	r18,8(sp)
   2472c:	dc400115 	stw	r17,4(sp)
   24730:	dc000015 	stw	r16,0(sp)
   24734:	dfc00415 	stw	ra,16(sp)
   24738:	10c0400c 	andi	r3,r2,256
   2473c:	2821883a 	mov	r16,r5
   24740:	2023883a 	mov	r17,r4
   24744:	3025883a 	mov	r18,r6
   24748:	3827883a 	mov	r19,r7
   2474c:	18000526 	beq	r3,zero,24764 <__swrite+0x48>
   24750:	2940038f 	ldh	r5,14(r5)
   24754:	01c00084 	movi	r7,2
   24758:	000d883a 	mov	r6,zero
   2475c:	002ba680 	call	2ba68 <_lseek_r>
   24760:	8080030b 	ldhu	r2,12(r16)
   24764:	8140038f 	ldh	r5,14(r16)
   24768:	10bbffcc 	andi	r2,r2,61439
   2476c:	980f883a 	mov	r7,r19
   24770:	900d883a 	mov	r6,r18
   24774:	8809883a 	mov	r4,r17
   24778:	8080030d 	sth	r2,12(r16)
   2477c:	dfc00417 	ldw	ra,16(sp)
   24780:	dcc00317 	ldw	r19,12(sp)
   24784:	dc800217 	ldw	r18,8(sp)
   24788:	dc400117 	ldw	r17,4(sp)
   2478c:	dc000017 	ldw	r16,0(sp)
   24790:	dec00504 	addi	sp,sp,20
   24794:	0028d3c1 	jmpi	28d3c <_write_r>

00024798 <__sseek>:
   24798:	defffe04 	addi	sp,sp,-8
   2479c:	dc000015 	stw	r16,0(sp)
   247a0:	2821883a 	mov	r16,r5
   247a4:	2940038f 	ldh	r5,14(r5)
   247a8:	dfc00115 	stw	ra,4(sp)
   247ac:	002ba680 	call	2ba68 <_lseek_r>
   247b0:	00ffffc4 	movi	r3,-1
   247b4:	10c00826 	beq	r2,r3,247d8 <__sseek+0x40>
   247b8:	80c0030b 	ldhu	r3,12(r16)
   247bc:	80801415 	stw	r2,80(r16)
   247c0:	18c40014 	ori	r3,r3,4096
   247c4:	80c0030d 	sth	r3,12(r16)
   247c8:	dfc00117 	ldw	ra,4(sp)
   247cc:	dc000017 	ldw	r16,0(sp)
   247d0:	dec00204 	addi	sp,sp,8
   247d4:	f800283a 	ret
   247d8:	80c0030b 	ldhu	r3,12(r16)
   247dc:	18fbffcc 	andi	r3,r3,61439
   247e0:	80c0030d 	sth	r3,12(r16)
   247e4:	dfc00117 	ldw	ra,4(sp)
   247e8:	dc000017 	ldw	r16,0(sp)
   247ec:	dec00204 	addi	sp,sp,8
   247f0:	f800283a 	ret

000247f4 <__sclose>:
   247f4:	2940038f 	ldh	r5,14(r5)
   247f8:	0028ef01 	jmpi	28ef0 <_close_r>

000247fc <strlen>:
   247fc:	208000cc 	andi	r2,r4,3
   24800:	10002026 	beq	r2,zero,24884 <strlen+0x88>
   24804:	20800007 	ldb	r2,0(r4)
   24808:	10002026 	beq	r2,zero,2488c <strlen+0x90>
   2480c:	2005883a 	mov	r2,r4
   24810:	00000206 	br	2481c <strlen+0x20>
   24814:	10c00007 	ldb	r3,0(r2)
   24818:	18001826 	beq	r3,zero,2487c <strlen+0x80>
   2481c:	10800044 	addi	r2,r2,1
   24820:	10c000cc 	andi	r3,r2,3
   24824:	183ffb1e 	bne	r3,zero,24814 <__alt_data_end+0xfffe4814>
   24828:	10c00017 	ldw	r3,0(r2)
   2482c:	01ffbff4 	movhi	r7,65279
   24830:	39ffbfc4 	addi	r7,r7,-257
   24834:	00ca303a 	nor	r5,zero,r3
   24838:	01a02074 	movhi	r6,32897
   2483c:	19c7883a 	add	r3,r3,r7
   24840:	31a02004 	addi	r6,r6,-32640
   24844:	1946703a 	and	r3,r3,r5
   24848:	1986703a 	and	r3,r3,r6
   2484c:	1800091e 	bne	r3,zero,24874 <strlen+0x78>
   24850:	10800104 	addi	r2,r2,4
   24854:	10c00017 	ldw	r3,0(r2)
   24858:	19cb883a 	add	r5,r3,r7
   2485c:	00c6303a 	nor	r3,zero,r3
   24860:	28c6703a 	and	r3,r5,r3
   24864:	1986703a 	and	r3,r3,r6
   24868:	183ff926 	beq	r3,zero,24850 <__alt_data_end+0xfffe4850>
   2486c:	00000106 	br	24874 <strlen+0x78>
   24870:	10800044 	addi	r2,r2,1
   24874:	10c00007 	ldb	r3,0(r2)
   24878:	183ffd1e 	bne	r3,zero,24870 <__alt_data_end+0xfffe4870>
   2487c:	1105c83a 	sub	r2,r2,r4
   24880:	f800283a 	ret
   24884:	2005883a 	mov	r2,r4
   24888:	003fe706 	br	24828 <__alt_data_end+0xfffe4828>
   2488c:	0005883a 	mov	r2,zero
   24890:	f800283a 	ret

00024894 <___svfprintf_internal_r>:
   24894:	deffb704 	addi	sp,sp,-292
   24898:	dfc04815 	stw	ra,288(sp)
   2489c:	ddc04615 	stw	r23,280(sp)
   248a0:	d9402c15 	stw	r5,176(sp)
   248a4:	d9003915 	stw	r4,228(sp)
   248a8:	302f883a 	mov	r23,r6
   248ac:	d9c02d15 	stw	r7,180(sp)
   248b0:	df004715 	stw	fp,284(sp)
   248b4:	dd804515 	stw	r22,276(sp)
   248b8:	dd404415 	stw	r21,272(sp)
   248bc:	dd004315 	stw	r20,268(sp)
   248c0:	dcc04215 	stw	r19,264(sp)
   248c4:	dc804115 	stw	r18,260(sp)
   248c8:	dc404015 	stw	r17,256(sp)
   248cc:	dc003f15 	stw	r16,252(sp)
   248d0:	002ba380 	call	2ba38 <_localeconv_r>
   248d4:	10800017 	ldw	r2,0(r2)
   248d8:	1009883a 	mov	r4,r2
   248dc:	d8803415 	stw	r2,208(sp)
   248e0:	00247fc0 	call	247fc <strlen>
   248e4:	d8c02c17 	ldw	r3,176(sp)
   248e8:	d8803815 	stw	r2,224(sp)
   248ec:	1880030b 	ldhu	r2,12(r3)
   248f0:	1080200c 	andi	r2,r2,128
   248f4:	10000226 	beq	r2,zero,24900 <___svfprintf_internal_r+0x6c>
   248f8:	18800417 	ldw	r2,16(r3)
   248fc:	10067f26 	beq	r2,zero,262fc <___svfprintf_internal_r+0x1a68>
   24900:	dcc03917 	ldw	r19,228(sp)
   24904:	d8c00404 	addi	r3,sp,16
   24908:	054000f4 	movhi	r21,3
   2490c:	d9001e04 	addi	r4,sp,120
   24910:	ad554484 	addi	r21,r21,21778
   24914:	d8c01e15 	stw	r3,120(sp)
   24918:	d8002015 	stw	zero,128(sp)
   2491c:	d8001f15 	stw	zero,124(sp)
   24920:	d8003315 	stw	zero,204(sp)
   24924:	d8003615 	stw	zero,216(sp)
   24928:	d8003715 	stw	zero,220(sp)
   2492c:	1811883a 	mov	r8,r3
   24930:	d8003a15 	stw	zero,232(sp)
   24934:	d8003b15 	stw	zero,236(sp)
   24938:	d8002f15 	stw	zero,188(sp)
   2493c:	d9002815 	stw	r4,160(sp)
   24940:	b8800007 	ldb	r2,0(r23)
   24944:	10026726 	beq	r2,zero,252e4 <___svfprintf_internal_r+0xa50>
   24948:	00c00944 	movi	r3,37
   2494c:	b821883a 	mov	r16,r23
   24950:	10c0021e 	bne	r2,r3,2495c <___svfprintf_internal_r+0xc8>
   24954:	00001406 	br	249a8 <___svfprintf_internal_r+0x114>
   24958:	10c00326 	beq	r2,r3,24968 <___svfprintf_internal_r+0xd4>
   2495c:	84000044 	addi	r16,r16,1
   24960:	80800007 	ldb	r2,0(r16)
   24964:	103ffc1e 	bne	r2,zero,24958 <__alt_data_end+0xfffe4958>
   24968:	85e3c83a 	sub	r17,r16,r23
   2496c:	88000e26 	beq	r17,zero,249a8 <___svfprintf_internal_r+0x114>
   24970:	d8c02017 	ldw	r3,128(sp)
   24974:	d8801f17 	ldw	r2,124(sp)
   24978:	45c00015 	stw	r23,0(r8)
   2497c:	1c47883a 	add	r3,r3,r17
   24980:	10800044 	addi	r2,r2,1
   24984:	d8c02015 	stw	r3,128(sp)
   24988:	44400115 	stw	r17,4(r8)
   2498c:	d8801f15 	stw	r2,124(sp)
   24990:	00c001c4 	movi	r3,7
   24994:	18809716 	blt	r3,r2,24bf4 <___svfprintf_internal_r+0x360>
   24998:	42000204 	addi	r8,r8,8
   2499c:	d9402f17 	ldw	r5,188(sp)
   249a0:	2c4b883a 	add	r5,r5,r17
   249a4:	d9402f15 	stw	r5,188(sp)
   249a8:	80800007 	ldb	r2,0(r16)
   249ac:	10009826 	beq	r2,zero,24c10 <___svfprintf_internal_r+0x37c>
   249b0:	84400047 	ldb	r17,1(r16)
   249b4:	00bfffc4 	movi	r2,-1
   249b8:	85c00044 	addi	r23,r16,1
   249bc:	d8002785 	stb	zero,158(sp)
   249c0:	0007883a 	mov	r3,zero
   249c4:	000f883a 	mov	r7,zero
   249c8:	d8802915 	stw	r2,164(sp)
   249cc:	d8003115 	stw	zero,196(sp)
   249d0:	0025883a 	mov	r18,zero
   249d4:	01401604 	movi	r5,88
   249d8:	01800244 	movi	r6,9
   249dc:	02800a84 	movi	r10,42
   249e0:	02401b04 	movi	r9,108
   249e4:	bdc00044 	addi	r23,r23,1
   249e8:	88bff804 	addi	r2,r17,-32
   249ec:	2882f036 	bltu	r5,r2,255b0 <___svfprintf_internal_r+0xd1c>
   249f0:	100490ba 	slli	r2,r2,2
   249f4:	010000b4 	movhi	r4,2
   249f8:	21128204 	addi	r4,r4,18952
   249fc:	1105883a 	add	r2,r2,r4
   24a00:	10800017 	ldw	r2,0(r2)
   24a04:	1000683a 	jmp	r2
   24a08:	00025518 	cmpnei	zero,zero,2388
   24a0c:	000255b0 	cmpltui	zero,zero,2390
   24a10:	000255b0 	cmpltui	zero,zero,2390
   24a14:	0002550c 	andi	zero,zero,2388
   24a18:	000255b0 	cmpltui	zero,zero,2390
   24a1c:	000255b0 	cmpltui	zero,zero,2390
   24a20:	000255b0 	cmpltui	zero,zero,2390
   24a24:	000255b0 	cmpltui	zero,zero,2390
   24a28:	000255b0 	cmpltui	zero,zero,2390
   24a2c:	000255b0 	cmpltui	zero,zero,2390
   24a30:	00024c6c 	andhi	zero,zero,2353
   24a34:	00025448 	cmpgei	zero,zero,2385
   24a38:	000255b0 	cmpltui	zero,zero,2390
   24a3c:	00024b7c 	xorhi	zero,zero,2349
   24a40:	00024c94 	movui	zero,2354
   24a44:	000255b0 	cmpltui	zero,zero,2390
   24a48:	00024d08 	cmpgei	zero,zero,2356
   24a4c:	00024cd4 	movui	zero,2355
   24a50:	00024cd4 	movui	zero,2355
   24a54:	00024cd4 	movui	zero,2355
   24a58:	00024cd4 	movui	zero,2355
   24a5c:	00024cd4 	movui	zero,2355
   24a60:	00024cd4 	movui	zero,2355
   24a64:	00024cd4 	movui	zero,2355
   24a68:	00024cd4 	movui	zero,2355
   24a6c:	00024cd4 	movui	zero,2355
   24a70:	000255b0 	cmpltui	zero,zero,2390
   24a74:	000255b0 	cmpltui	zero,zero,2390
   24a78:	000255b0 	cmpltui	zero,zero,2390
   24a7c:	000255b0 	cmpltui	zero,zero,2390
   24a80:	000255b0 	cmpltui	zero,zero,2390
   24a84:	000255b0 	cmpltui	zero,zero,2390
   24a88:	000255b0 	cmpltui	zero,zero,2390
   24a8c:	000255b0 	cmpltui	zero,zero,2390
   24a90:	000255b0 	cmpltui	zero,zero,2390
   24a94:	000255b0 	cmpltui	zero,zero,2390
   24a98:	00024dc0 	call	24dc <__alt_mem_onchip_memory2_0-0x1db24>
   24a9c:	00024d14 	movui	zero,2356
   24aa0:	000255b0 	cmpltui	zero,zero,2390
   24aa4:	00024d14 	movui	zero,2356
   24aa8:	000255b0 	cmpltui	zero,zero,2390
   24aac:	000255b0 	cmpltui	zero,zero,2390
   24ab0:	000255b0 	cmpltui	zero,zero,2390
   24ab4:	000255b0 	cmpltui	zero,zero,2390
   24ab8:	00024db4 	movhi	zero,2358
   24abc:	000255b0 	cmpltui	zero,zero,2390
   24ac0:	000255b0 	cmpltui	zero,zero,2390
   24ac4:	00024e7c 	xorhi	zero,zero,2361
   24ac8:	000255b0 	cmpltui	zero,zero,2390
   24acc:	000255b0 	cmpltui	zero,zero,2390
   24ad0:	000255b0 	cmpltui	zero,zero,2390
   24ad4:	000255b0 	cmpltui	zero,zero,2390
   24ad8:	000255b0 	cmpltui	zero,zero,2390
   24adc:	000252ec 	andhi	zero,zero,2379
   24ae0:	000255b0 	cmpltui	zero,zero,2390
   24ae4:	000255b0 	cmpltui	zero,zero,2390
   24ae8:	0002534c 	andi	zero,zero,2381
   24aec:	000255b0 	cmpltui	zero,zero,2390
   24af0:	000255b0 	cmpltui	zero,zero,2390
   24af4:	000255b0 	cmpltui	zero,zero,2390
   24af8:	000255b0 	cmpltui	zero,zero,2390
   24afc:	000255b0 	cmpltui	zero,zero,2390
   24b00:	000255b0 	cmpltui	zero,zero,2390
   24b04:	000255b0 	cmpltui	zero,zero,2390
   24b08:	000255b0 	cmpltui	zero,zero,2390
   24b0c:	000255b0 	cmpltui	zero,zero,2390
   24b10:	000255b0 	cmpltui	zero,zero,2390
   24b14:	000253fc 	xorhi	zero,zero,2383
   24b18:	00025538 	rdprs	zero,zero,2388
   24b1c:	00024d14 	movui	zero,2356
   24b20:	00024d14 	movui	zero,2356
   24b24:	00024d14 	movui	zero,2356
   24b28:	0002558c 	andi	zero,zero,2390
   24b2c:	00025538 	rdprs	zero,zero,2388
   24b30:	000255b0 	cmpltui	zero,zero,2390
   24b34:	000255b0 	cmpltui	zero,zero,2390
   24b38:	00025548 	cmpgei	zero,zero,2389
   24b3c:	000255b0 	cmpltui	zero,zero,2390
   24b40:	00025558 	cmpnei	zero,zero,2389
   24b44:	00025438 	rdprs	zero,zero,2384
   24b48:	00024b88 	cmpgei	zero,zero,2350
   24b4c:	00025458 	cmpnei	zero,zero,2385
   24b50:	000255b0 	cmpltui	zero,zero,2390
   24b54:	00025464 	muli	zero,zero,2385
   24b58:	000255b0 	cmpltui	zero,zero,2390
   24b5c:	000254c0 	call	254c <__alt_mem_onchip_memory2_0-0x1dab4>
   24b60:	000255b0 	cmpltui	zero,zero,2390
   24b64:	000255b0 	cmpltui	zero,zero,2390
   24b68:	000254d0 	cmplti	zero,zero,2387
   24b6c:	d9003117 	ldw	r4,196(sp)
   24b70:	d8802d15 	stw	r2,180(sp)
   24b74:	0109c83a 	sub	r4,zero,r4
   24b78:	d9003115 	stw	r4,196(sp)
   24b7c:	94800114 	ori	r18,r18,4
   24b80:	bc400007 	ldb	r17,0(r23)
   24b84:	003f9706 	br	249e4 <__alt_data_end+0xfffe49e4>
   24b88:	00800c04 	movi	r2,48
   24b8c:	d9002d17 	ldw	r4,180(sp)
   24b90:	d9402917 	ldw	r5,164(sp)
   24b94:	d8802705 	stb	r2,156(sp)
   24b98:	00801e04 	movi	r2,120
   24b9c:	d8802745 	stb	r2,157(sp)
   24ba0:	d8002785 	stb	zero,158(sp)
   24ba4:	20c00104 	addi	r3,r4,4
   24ba8:	25000017 	ldw	r20,0(r4)
   24bac:	002d883a 	mov	r22,zero
   24bb0:	90800094 	ori	r2,r18,2
   24bb4:	28028616 	blt	r5,zero,255d0 <___svfprintf_internal_r+0xd3c>
   24bb8:	00bfdfc4 	movi	r2,-129
   24bbc:	90a4703a 	and	r18,r18,r2
   24bc0:	d8c02d15 	stw	r3,180(sp)
   24bc4:	94800094 	ori	r18,r18,2
   24bc8:	a002731e 	bne	r20,zero,25598 <___svfprintf_internal_r+0xd04>
   24bcc:	008000f4 	movhi	r2,3
   24bd0:	10953d04 	addi	r2,r2,21748
   24bd4:	d8803a15 	stw	r2,232(sp)
   24bd8:	04401e04 	movi	r17,120
   24bdc:	d8c02917 	ldw	r3,164(sp)
   24be0:	0039883a 	mov	fp,zero
   24be4:	1801d526 	beq	r3,zero,2533c <___svfprintf_internal_r+0xaa8>
   24be8:	0029883a 	mov	r20,zero
   24bec:	002d883a 	mov	r22,zero
   24bf0:	0001f106 	br	253b8 <___svfprintf_internal_r+0xb24>
   24bf4:	d9402c17 	ldw	r5,176(sp)
   24bf8:	d9801e04 	addi	r6,sp,120
   24bfc:	9809883a 	mov	r4,r19
   24c00:	002d6c80 	call	2d6c8 <__ssprint_r>
   24c04:	1000081e 	bne	r2,zero,24c28 <___svfprintf_internal_r+0x394>
   24c08:	da000404 	addi	r8,sp,16
   24c0c:	003f6306 	br	2499c <__alt_data_end+0xfffe499c>
   24c10:	d8802017 	ldw	r2,128(sp)
   24c14:	10000426 	beq	r2,zero,24c28 <___svfprintf_internal_r+0x394>
   24c18:	d9402c17 	ldw	r5,176(sp)
   24c1c:	d9003917 	ldw	r4,228(sp)
   24c20:	d9801e04 	addi	r6,sp,120
   24c24:	002d6c80 	call	2d6c8 <__ssprint_r>
   24c28:	d8802c17 	ldw	r2,176(sp)
   24c2c:	10c0030b 	ldhu	r3,12(r2)
   24c30:	d8802f17 	ldw	r2,188(sp)
   24c34:	18c0100c 	andi	r3,r3,64
   24c38:	1805f51e 	bne	r3,zero,26410 <___svfprintf_internal_r+0x1b7c>
   24c3c:	dfc04817 	ldw	ra,288(sp)
   24c40:	df004717 	ldw	fp,284(sp)
   24c44:	ddc04617 	ldw	r23,280(sp)
   24c48:	dd804517 	ldw	r22,276(sp)
   24c4c:	dd404417 	ldw	r21,272(sp)
   24c50:	dd004317 	ldw	r20,268(sp)
   24c54:	dcc04217 	ldw	r19,264(sp)
   24c58:	dc804117 	ldw	r18,260(sp)
   24c5c:	dc404017 	ldw	r17,256(sp)
   24c60:	dc003f17 	ldw	r16,252(sp)
   24c64:	dec04904 	addi	sp,sp,292
   24c68:	f800283a 	ret
   24c6c:	d8802d17 	ldw	r2,180(sp)
   24c70:	d9002d17 	ldw	r4,180(sp)
   24c74:	10800017 	ldw	r2,0(r2)
   24c78:	d8803115 	stw	r2,196(sp)
   24c7c:	20800104 	addi	r2,r4,4
   24c80:	d9003117 	ldw	r4,196(sp)
   24c84:	203fb916 	blt	r4,zero,24b6c <__alt_data_end+0xfffe4b6c>
   24c88:	d8802d15 	stw	r2,180(sp)
   24c8c:	bc400007 	ldb	r17,0(r23)
   24c90:	003f5406 	br	249e4 <__alt_data_end+0xfffe49e4>
   24c94:	bc400007 	ldb	r17,0(r23)
   24c98:	bac00044 	addi	r11,r23,1
   24c9c:	8a873926 	beq	r17,r10,26984 <___svfprintf_internal_r+0x20f0>
   24ca0:	88bff404 	addi	r2,r17,-48
   24ca4:	0009883a 	mov	r4,zero
   24ca8:	30868836 	bltu	r6,r2,266cc <___svfprintf_internal_r+0x1e38>
   24cac:	5c400007 	ldb	r17,0(r11)
   24cb0:	210002a4 	muli	r4,r4,10
   24cb4:	5dc00044 	addi	r23,r11,1
   24cb8:	b817883a 	mov	r11,r23
   24cbc:	2089883a 	add	r4,r4,r2
   24cc0:	88bff404 	addi	r2,r17,-48
   24cc4:	30bff92e 	bgeu	r6,r2,24cac <__alt_data_end+0xfffe4cac>
   24cc8:	2005d716 	blt	r4,zero,26428 <___svfprintf_internal_r+0x1b94>
   24ccc:	d9002915 	stw	r4,164(sp)
   24cd0:	003f4506 	br	249e8 <__alt_data_end+0xfffe49e8>
   24cd4:	b809883a 	mov	r4,r23
   24cd8:	d8003115 	stw	zero,196(sp)
   24cdc:	88bff404 	addi	r2,r17,-48
   24ce0:	0017883a 	mov	r11,zero
   24ce4:	24400007 	ldb	r17,0(r4)
   24ce8:	5ac002a4 	muli	r11,r11,10
   24cec:	bdc00044 	addi	r23,r23,1
   24cf0:	b809883a 	mov	r4,r23
   24cf4:	12d7883a 	add	r11,r2,r11
   24cf8:	88bff404 	addi	r2,r17,-48
   24cfc:	30bff92e 	bgeu	r6,r2,24ce4 <__alt_data_end+0xfffe4ce4>
   24d00:	dac03115 	stw	r11,196(sp)
   24d04:	003f3806 	br	249e8 <__alt_data_end+0xfffe49e8>
   24d08:	94802014 	ori	r18,r18,128
   24d0c:	bc400007 	ldb	r17,0(r23)
   24d10:	003f3406 	br	249e4 <__alt_data_end+0xfffe49e4>
   24d14:	18c03fcc 	andi	r3,r3,255
   24d18:	1807471e 	bne	r3,zero,26a38 <___svfprintf_internal_r+0x21a4>
   24d1c:	9080020c 	andi	r2,r18,8
   24d20:	10047d26 	beq	r2,zero,25f18 <___svfprintf_internal_r+0x1684>
   24d24:	d8c02d17 	ldw	r3,180(sp)
   24d28:	d9002d17 	ldw	r4,180(sp)
   24d2c:	d9402d17 	ldw	r5,180(sp)
   24d30:	18c00017 	ldw	r3,0(r3)
   24d34:	21000117 	ldw	r4,4(r4)
   24d38:	29400204 	addi	r5,r5,8
   24d3c:	d8c03615 	stw	r3,216(sp)
   24d40:	d9003715 	stw	r4,220(sp)
   24d44:	d9402d15 	stw	r5,180(sp)
   24d48:	d9003617 	ldw	r4,216(sp)
   24d4c:	d9403717 	ldw	r5,220(sp)
   24d50:	da003e15 	stw	r8,248(sp)
   24d54:	04000044 	movi	r16,1
   24d58:	002d5780 	call	2d578 <__fpclassifyd>
   24d5c:	da003e17 	ldw	r8,248(sp)
   24d60:	14044b1e 	bne	r2,r16,25e90 <___svfprintf_internal_r+0x15fc>
   24d64:	d9003617 	ldw	r4,216(sp)
   24d68:	d9403717 	ldw	r5,220(sp)
   24d6c:	000d883a 	mov	r6,zero
   24d70:	000f883a 	mov	r7,zero
   24d74:	00325d40 	call	325d4 <__ledf2>
   24d78:	da003e17 	ldw	r8,248(sp)
   24d7c:	1005f316 	blt	r2,zero,2654c <___svfprintf_internal_r+0x1cb8>
   24d80:	df002783 	ldbu	fp,158(sp)
   24d84:	008011c4 	movi	r2,71
   24d88:	1445590e 	bge	r2,r17,262f0 <___svfprintf_internal_r+0x1a5c>
   24d8c:	040000f4 	movhi	r16,3
   24d90:	84153504 	addi	r16,r16,21716
   24d94:	00c000c4 	movi	r3,3
   24d98:	00bfdfc4 	movi	r2,-129
   24d9c:	d8c02a15 	stw	r3,168(sp)
   24da0:	90a4703a 	and	r18,r18,r2
   24da4:	d8c02e15 	stw	r3,184(sp)
   24da8:	d8002915 	stw	zero,164(sp)
   24dac:	d8003215 	stw	zero,200(sp)
   24db0:	00006606 	br	24f4c <___svfprintf_internal_r+0x6b8>
   24db4:	94800214 	ori	r18,r18,8
   24db8:	bc400007 	ldb	r17,0(r23)
   24dbc:	003f0906 	br	249e4 <__alt_data_end+0xfffe49e4>
   24dc0:	18c03fcc 	andi	r3,r3,255
   24dc4:	1807181e 	bne	r3,zero,26a28 <___svfprintf_internal_r+0x2194>
   24dc8:	94800414 	ori	r18,r18,16
   24dcc:	9080080c 	andi	r2,r18,32
   24dd0:	10039626 	beq	r2,zero,25c2c <___svfprintf_internal_r+0x1398>
   24dd4:	d9402d17 	ldw	r5,180(sp)
   24dd8:	28800117 	ldw	r2,4(r5)
   24ddc:	2d000017 	ldw	r20,0(r5)
   24de0:	29400204 	addi	r5,r5,8
   24de4:	d9402d15 	stw	r5,180(sp)
   24de8:	102d883a 	mov	r22,r2
   24dec:	10039816 	blt	r2,zero,25c50 <___svfprintf_internal_r+0x13bc>
   24df0:	d9402917 	ldw	r5,164(sp)
   24df4:	df002783 	ldbu	fp,158(sp)
   24df8:	2803ab16 	blt	r5,zero,25ca8 <___svfprintf_internal_r+0x1414>
   24dfc:	00ffdfc4 	movi	r3,-129
   24e00:	a584b03a 	or	r2,r20,r22
   24e04:	90e4703a 	and	r18,r18,r3
   24e08:	10014a26 	beq	r2,zero,25334 <___svfprintf_internal_r+0xaa0>
   24e0c:	b0034b26 	beq	r22,zero,25b3c <___svfprintf_internal_r+0x12a8>
   24e10:	dc402a15 	stw	r17,168(sp)
   24e14:	dc001e04 	addi	r16,sp,120
   24e18:	b023883a 	mov	r17,r22
   24e1c:	402d883a 	mov	r22,r8
   24e20:	a009883a 	mov	r4,r20
   24e24:	880b883a 	mov	r5,r17
   24e28:	01800284 	movi	r6,10
   24e2c:	000f883a 	mov	r7,zero
   24e30:	0030da40 	call	30da4 <__umoddi3>
   24e34:	10800c04 	addi	r2,r2,48
   24e38:	843fffc4 	addi	r16,r16,-1
   24e3c:	a009883a 	mov	r4,r20
   24e40:	880b883a 	mov	r5,r17
   24e44:	80800005 	stb	r2,0(r16)
   24e48:	01800284 	movi	r6,10
   24e4c:	000f883a 	mov	r7,zero
   24e50:	003082c0 	call	3082c <__udivdi3>
   24e54:	1029883a 	mov	r20,r2
   24e58:	10c4b03a 	or	r2,r2,r3
   24e5c:	1823883a 	mov	r17,r3
   24e60:	103fef1e 	bne	r2,zero,24e20 <__alt_data_end+0xfffe4e20>
   24e64:	d8c02817 	ldw	r3,160(sp)
   24e68:	dc402a17 	ldw	r17,168(sp)
   24e6c:	b011883a 	mov	r8,r22
   24e70:	1c07c83a 	sub	r3,r3,r16
   24e74:	d8c02e15 	stw	r3,184(sp)
   24e78:	00002e06 	br	24f34 <___svfprintf_internal_r+0x6a0>
   24e7c:	18c03fcc 	andi	r3,r3,255
   24e80:	1806e71e 	bne	r3,zero,26a20 <___svfprintf_internal_r+0x218c>
   24e84:	94800414 	ori	r18,r18,16
   24e88:	9080080c 	andi	r2,r18,32
   24e8c:	1002d426 	beq	r2,zero,259e0 <___svfprintf_internal_r+0x114c>
   24e90:	d9402d17 	ldw	r5,180(sp)
   24e94:	d8c02917 	ldw	r3,164(sp)
   24e98:	d8002785 	stb	zero,158(sp)
   24e9c:	28800204 	addi	r2,r5,8
   24ea0:	2d000017 	ldw	r20,0(r5)
   24ea4:	2d800117 	ldw	r22,4(r5)
   24ea8:	18041516 	blt	r3,zero,25f00 <___svfprintf_internal_r+0x166c>
   24eac:	013fdfc4 	movi	r4,-129
   24eb0:	a586b03a 	or	r3,r20,r22
   24eb4:	d8802d15 	stw	r2,180(sp)
   24eb8:	9124703a 	and	r18,r18,r4
   24ebc:	1802d51e 	bne	r3,zero,25a14 <___svfprintf_internal_r+0x1180>
   24ec0:	d9402917 	ldw	r5,164(sp)
   24ec4:	0039883a 	mov	fp,zero
   24ec8:	2806be26 	beq	r5,zero,269c4 <___svfprintf_internal_r+0x2130>
   24ecc:	0029883a 	mov	r20,zero
   24ed0:	002d883a 	mov	r22,zero
   24ed4:	dc001e04 	addi	r16,sp,120
   24ed8:	a006d0fa 	srli	r3,r20,3
   24edc:	b008977a 	slli	r4,r22,29
   24ee0:	b02cd0fa 	srli	r22,r22,3
   24ee4:	a50001cc 	andi	r20,r20,7
   24ee8:	a0800c04 	addi	r2,r20,48
   24eec:	843fffc4 	addi	r16,r16,-1
   24ef0:	20e8b03a 	or	r20,r4,r3
   24ef4:	80800005 	stb	r2,0(r16)
   24ef8:	a586b03a 	or	r3,r20,r22
   24efc:	183ff61e 	bne	r3,zero,24ed8 <__alt_data_end+0xfffe4ed8>
   24f00:	90c0004c 	andi	r3,r18,1
   24f04:	18013926 	beq	r3,zero,253ec <___svfprintf_internal_r+0xb58>
   24f08:	10803fcc 	andi	r2,r2,255
   24f0c:	1080201c 	xori	r2,r2,128
   24f10:	10bfe004 	addi	r2,r2,-128
   24f14:	00c00c04 	movi	r3,48
   24f18:	10c13426 	beq	r2,r3,253ec <___svfprintf_internal_r+0xb58>
   24f1c:	80ffffc5 	stb	r3,-1(r16)
   24f20:	d8c02817 	ldw	r3,160(sp)
   24f24:	80bfffc4 	addi	r2,r16,-1
   24f28:	1021883a 	mov	r16,r2
   24f2c:	1887c83a 	sub	r3,r3,r2
   24f30:	d8c02e15 	stw	r3,184(sp)
   24f34:	d8802e17 	ldw	r2,184(sp)
   24f38:	d9002917 	ldw	r4,164(sp)
   24f3c:	1100010e 	bge	r2,r4,24f44 <___svfprintf_internal_r+0x6b0>
   24f40:	2005883a 	mov	r2,r4
   24f44:	d8802a15 	stw	r2,168(sp)
   24f48:	d8003215 	stw	zero,200(sp)
   24f4c:	e7003fcc 	andi	fp,fp,255
   24f50:	e700201c 	xori	fp,fp,128
   24f54:	e73fe004 	addi	fp,fp,-128
   24f58:	e0000326 	beq	fp,zero,24f68 <___svfprintf_internal_r+0x6d4>
   24f5c:	d8c02a17 	ldw	r3,168(sp)
   24f60:	18c00044 	addi	r3,r3,1
   24f64:	d8c02a15 	stw	r3,168(sp)
   24f68:	90c0008c 	andi	r3,r18,2
   24f6c:	d8c02b15 	stw	r3,172(sp)
   24f70:	18000326 	beq	r3,zero,24f80 <___svfprintf_internal_r+0x6ec>
   24f74:	d8c02a17 	ldw	r3,168(sp)
   24f78:	18c00084 	addi	r3,r3,2
   24f7c:	d8c02a15 	stw	r3,168(sp)
   24f80:	90c0210c 	andi	r3,r18,132
   24f84:	d8c03015 	stw	r3,192(sp)
   24f88:	1801a11e 	bne	r3,zero,25610 <___svfprintf_internal_r+0xd7c>
   24f8c:	d9003117 	ldw	r4,196(sp)
   24f90:	d8c02a17 	ldw	r3,168(sp)
   24f94:	20e9c83a 	sub	r20,r4,r3
   24f98:	05019d0e 	bge	zero,r20,25610 <___svfprintf_internal_r+0xd7c>
   24f9c:	02400404 	movi	r9,16
   24fa0:	d8c02017 	ldw	r3,128(sp)
   24fa4:	d8801f17 	ldw	r2,124(sp)
   24fa8:	4d051b0e 	bge	r9,r20,26418 <___svfprintf_internal_r+0x1b84>
   24fac:	014000f4 	movhi	r5,3
   24fb0:	29554884 	addi	r5,r5,21794
   24fb4:	dc403c15 	stw	r17,240(sp)
   24fb8:	d9403515 	stw	r5,212(sp)
   24fbc:	a023883a 	mov	r17,r20
   24fc0:	482d883a 	mov	r22,r9
   24fc4:	9029883a 	mov	r20,r18
   24fc8:	070001c4 	movi	fp,7
   24fcc:	8025883a 	mov	r18,r16
   24fd0:	dc002c17 	ldw	r16,176(sp)
   24fd4:	00000306 	br	24fe4 <___svfprintf_internal_r+0x750>
   24fd8:	8c7ffc04 	addi	r17,r17,-16
   24fdc:	42000204 	addi	r8,r8,8
   24fe0:	b440130e 	bge	r22,r17,25030 <___svfprintf_internal_r+0x79c>
   24fe4:	010000f4 	movhi	r4,3
   24fe8:	18c00404 	addi	r3,r3,16
   24fec:	10800044 	addi	r2,r2,1
   24ff0:	21154884 	addi	r4,r4,21794
   24ff4:	41000015 	stw	r4,0(r8)
   24ff8:	45800115 	stw	r22,4(r8)
   24ffc:	d8c02015 	stw	r3,128(sp)
   25000:	d8801f15 	stw	r2,124(sp)
   25004:	e0bff40e 	bge	fp,r2,24fd8 <__alt_data_end+0xfffe4fd8>
   25008:	d9801e04 	addi	r6,sp,120
   2500c:	800b883a 	mov	r5,r16
   25010:	9809883a 	mov	r4,r19
   25014:	002d6c80 	call	2d6c8 <__ssprint_r>
   25018:	103f031e 	bne	r2,zero,24c28 <__alt_data_end+0xfffe4c28>
   2501c:	8c7ffc04 	addi	r17,r17,-16
   25020:	d8c02017 	ldw	r3,128(sp)
   25024:	d8801f17 	ldw	r2,124(sp)
   25028:	da000404 	addi	r8,sp,16
   2502c:	b47fed16 	blt	r22,r17,24fe4 <__alt_data_end+0xfffe4fe4>
   25030:	9021883a 	mov	r16,r18
   25034:	a025883a 	mov	r18,r20
   25038:	8829883a 	mov	r20,r17
   2503c:	dc403c17 	ldw	r17,240(sp)
   25040:	d9403517 	ldw	r5,212(sp)
   25044:	a0c7883a 	add	r3,r20,r3
   25048:	10800044 	addi	r2,r2,1
   2504c:	41400015 	stw	r5,0(r8)
   25050:	45000115 	stw	r20,4(r8)
   25054:	d8c02015 	stw	r3,128(sp)
   25058:	d8801f15 	stw	r2,124(sp)
   2505c:	010001c4 	movi	r4,7
   25060:	20829f16 	blt	r4,r2,25ae0 <___svfprintf_internal_r+0x124c>
   25064:	df002787 	ldb	fp,158(sp)
   25068:	42000204 	addi	r8,r8,8
   2506c:	e0000c26 	beq	fp,zero,250a0 <___svfprintf_internal_r+0x80c>
   25070:	d8801f17 	ldw	r2,124(sp)
   25074:	d9002784 	addi	r4,sp,158
   25078:	18c00044 	addi	r3,r3,1
   2507c:	10800044 	addi	r2,r2,1
   25080:	41000015 	stw	r4,0(r8)
   25084:	01000044 	movi	r4,1
   25088:	41000115 	stw	r4,4(r8)
   2508c:	d8c02015 	stw	r3,128(sp)
   25090:	d8801f15 	stw	r2,124(sp)
   25094:	010001c4 	movi	r4,7
   25098:	20823816 	blt	r4,r2,2597c <___svfprintf_internal_r+0x10e8>
   2509c:	42000204 	addi	r8,r8,8
   250a0:	d8802b17 	ldw	r2,172(sp)
   250a4:	10000c26 	beq	r2,zero,250d8 <___svfprintf_internal_r+0x844>
   250a8:	d8801f17 	ldw	r2,124(sp)
   250ac:	d9002704 	addi	r4,sp,156
   250b0:	18c00084 	addi	r3,r3,2
   250b4:	10800044 	addi	r2,r2,1
   250b8:	41000015 	stw	r4,0(r8)
   250bc:	01000084 	movi	r4,2
   250c0:	41000115 	stw	r4,4(r8)
   250c4:	d8c02015 	stw	r3,128(sp)
   250c8:	d8801f15 	stw	r2,124(sp)
   250cc:	010001c4 	movi	r4,7
   250d0:	20823216 	blt	r4,r2,2599c <___svfprintf_internal_r+0x1108>
   250d4:	42000204 	addi	r8,r8,8
   250d8:	d9003017 	ldw	r4,192(sp)
   250dc:	00802004 	movi	r2,128
   250e0:	20819726 	beq	r4,r2,25740 <___svfprintf_internal_r+0xeac>
   250e4:	d9402917 	ldw	r5,164(sp)
   250e8:	d8802e17 	ldw	r2,184(sp)
   250ec:	28adc83a 	sub	r22,r5,r2
   250f0:	05802f0e 	bge	zero,r22,251b0 <___svfprintf_internal_r+0x91c>
   250f4:	07000404 	movi	fp,16
   250f8:	d8801f17 	ldw	r2,124(sp)
   250fc:	e583c00e 	bge	fp,r22,26000 <___svfprintf_internal_r+0x176c>
   25100:	014000f4 	movhi	r5,3
   25104:	29554484 	addi	r5,r5,21778
   25108:	dc402915 	stw	r17,164(sp)
   2510c:	d9402b15 	stw	r5,172(sp)
   25110:	b023883a 	mov	r17,r22
   25114:	050001c4 	movi	r20,7
   25118:	902d883a 	mov	r22,r18
   2511c:	8025883a 	mov	r18,r16
   25120:	dc002c17 	ldw	r16,176(sp)
   25124:	00000306 	br	25134 <___svfprintf_internal_r+0x8a0>
   25128:	8c7ffc04 	addi	r17,r17,-16
   2512c:	42000204 	addi	r8,r8,8
   25130:	e440110e 	bge	fp,r17,25178 <___svfprintf_internal_r+0x8e4>
   25134:	18c00404 	addi	r3,r3,16
   25138:	10800044 	addi	r2,r2,1
   2513c:	45400015 	stw	r21,0(r8)
   25140:	47000115 	stw	fp,4(r8)
   25144:	d8c02015 	stw	r3,128(sp)
   25148:	d8801f15 	stw	r2,124(sp)
   2514c:	a0bff60e 	bge	r20,r2,25128 <__alt_data_end+0xfffe5128>
   25150:	d9801e04 	addi	r6,sp,120
   25154:	800b883a 	mov	r5,r16
   25158:	9809883a 	mov	r4,r19
   2515c:	002d6c80 	call	2d6c8 <__ssprint_r>
   25160:	103eb11e 	bne	r2,zero,24c28 <__alt_data_end+0xfffe4c28>
   25164:	8c7ffc04 	addi	r17,r17,-16
   25168:	d8c02017 	ldw	r3,128(sp)
   2516c:	d8801f17 	ldw	r2,124(sp)
   25170:	da000404 	addi	r8,sp,16
   25174:	e47fef16 	blt	fp,r17,25134 <__alt_data_end+0xfffe5134>
   25178:	9021883a 	mov	r16,r18
   2517c:	b025883a 	mov	r18,r22
   25180:	882d883a 	mov	r22,r17
   25184:	dc402917 	ldw	r17,164(sp)
   25188:	d9002b17 	ldw	r4,172(sp)
   2518c:	1d87883a 	add	r3,r3,r22
   25190:	10800044 	addi	r2,r2,1
   25194:	41000015 	stw	r4,0(r8)
   25198:	45800115 	stw	r22,4(r8)
   2519c:	d8c02015 	stw	r3,128(sp)
   251a0:	d8801f15 	stw	r2,124(sp)
   251a4:	010001c4 	movi	r4,7
   251a8:	2081ec16 	blt	r4,r2,2595c <___svfprintf_internal_r+0x10c8>
   251ac:	42000204 	addi	r8,r8,8
   251b0:	9080400c 	andi	r2,r18,256
   251b4:	1001181e 	bne	r2,zero,25618 <___svfprintf_internal_r+0xd84>
   251b8:	d9402e17 	ldw	r5,184(sp)
   251bc:	d8801f17 	ldw	r2,124(sp)
   251c0:	44000015 	stw	r16,0(r8)
   251c4:	1947883a 	add	r3,r3,r5
   251c8:	10800044 	addi	r2,r2,1
   251cc:	41400115 	stw	r5,4(r8)
   251d0:	d8c02015 	stw	r3,128(sp)
   251d4:	d8801f15 	stw	r2,124(sp)
   251d8:	010001c4 	movi	r4,7
   251dc:	2081d116 	blt	r4,r2,25924 <___svfprintf_internal_r+0x1090>
   251e0:	42000204 	addi	r8,r8,8
   251e4:	9480010c 	andi	r18,r18,4
   251e8:	90003226 	beq	r18,zero,252b4 <___svfprintf_internal_r+0xa20>
   251ec:	d9403117 	ldw	r5,196(sp)
   251f0:	d8802a17 	ldw	r2,168(sp)
   251f4:	28a1c83a 	sub	r16,r5,r2
   251f8:	04002e0e 	bge	zero,r16,252b4 <___svfprintf_internal_r+0xa20>
   251fc:	04400404 	movi	r17,16
   25200:	d8801f17 	ldw	r2,124(sp)
   25204:	8c04b90e 	bge	r17,r16,264ec <___svfprintf_internal_r+0x1c58>
   25208:	014000f4 	movhi	r5,3
   2520c:	29554884 	addi	r5,r5,21794
   25210:	d9403515 	stw	r5,212(sp)
   25214:	048001c4 	movi	r18,7
   25218:	dd002c17 	ldw	r20,176(sp)
   2521c:	00000306 	br	2522c <___svfprintf_internal_r+0x998>
   25220:	843ffc04 	addi	r16,r16,-16
   25224:	42000204 	addi	r8,r8,8
   25228:	8c00130e 	bge	r17,r16,25278 <___svfprintf_internal_r+0x9e4>
   2522c:	010000f4 	movhi	r4,3
   25230:	18c00404 	addi	r3,r3,16
   25234:	10800044 	addi	r2,r2,1
   25238:	21154884 	addi	r4,r4,21794
   2523c:	41000015 	stw	r4,0(r8)
   25240:	44400115 	stw	r17,4(r8)
   25244:	d8c02015 	stw	r3,128(sp)
   25248:	d8801f15 	stw	r2,124(sp)
   2524c:	90bff40e 	bge	r18,r2,25220 <__alt_data_end+0xfffe5220>
   25250:	d9801e04 	addi	r6,sp,120
   25254:	a00b883a 	mov	r5,r20
   25258:	9809883a 	mov	r4,r19
   2525c:	002d6c80 	call	2d6c8 <__ssprint_r>
   25260:	103e711e 	bne	r2,zero,24c28 <__alt_data_end+0xfffe4c28>
   25264:	843ffc04 	addi	r16,r16,-16
   25268:	d8c02017 	ldw	r3,128(sp)
   2526c:	d8801f17 	ldw	r2,124(sp)
   25270:	da000404 	addi	r8,sp,16
   25274:	8c3fed16 	blt	r17,r16,2522c <__alt_data_end+0xfffe522c>
   25278:	d9403517 	ldw	r5,212(sp)
   2527c:	1c07883a 	add	r3,r3,r16
   25280:	10800044 	addi	r2,r2,1
   25284:	41400015 	stw	r5,0(r8)
   25288:	44000115 	stw	r16,4(r8)
   2528c:	d8c02015 	stw	r3,128(sp)
   25290:	d8801f15 	stw	r2,124(sp)
   25294:	010001c4 	movi	r4,7
   25298:	2080060e 	bge	r4,r2,252b4 <___svfprintf_internal_r+0xa20>
   2529c:	d9402c17 	ldw	r5,176(sp)
   252a0:	d9801e04 	addi	r6,sp,120
   252a4:	9809883a 	mov	r4,r19
   252a8:	002d6c80 	call	2d6c8 <__ssprint_r>
   252ac:	103e5e1e 	bne	r2,zero,24c28 <__alt_data_end+0xfffe4c28>
   252b0:	d8c02017 	ldw	r3,128(sp)
   252b4:	d8803117 	ldw	r2,196(sp)
   252b8:	d9002a17 	ldw	r4,168(sp)
   252bc:	1100010e 	bge	r2,r4,252c4 <___svfprintf_internal_r+0xa30>
   252c0:	2005883a 	mov	r2,r4
   252c4:	d9402f17 	ldw	r5,188(sp)
   252c8:	288b883a 	add	r5,r5,r2
   252cc:	d9402f15 	stw	r5,188(sp)
   252d0:	18019c1e 	bne	r3,zero,25944 <___svfprintf_internal_r+0x10b0>
   252d4:	b8800007 	ldb	r2,0(r23)
   252d8:	d8001f15 	stw	zero,124(sp)
   252dc:	da000404 	addi	r8,sp,16
   252e0:	103d991e 	bne	r2,zero,24948 <__alt_data_end+0xfffe4948>
   252e4:	b821883a 	mov	r16,r23
   252e8:	003daf06 	br	249a8 <__alt_data_end+0xfffe49a8>
   252ec:	18c03fcc 	andi	r3,r3,255
   252f0:	1805c71e 	bne	r3,zero,26a10 <___svfprintf_internal_r+0x217c>
   252f4:	94800414 	ori	r18,r18,16
   252f8:	9080080c 	andi	r2,r18,32
   252fc:	10020126 	beq	r2,zero,25b04 <___svfprintf_internal_r+0x1270>
   25300:	d8802d17 	ldw	r2,180(sp)
   25304:	d9002917 	ldw	r4,164(sp)
   25308:	d8002785 	stb	zero,158(sp)
   2530c:	10c00204 	addi	r3,r2,8
   25310:	15000017 	ldw	r20,0(r2)
   25314:	15800117 	ldw	r22,4(r2)
   25318:	20038e16 	blt	r4,zero,26154 <___svfprintf_internal_r+0x18c0>
   2531c:	013fdfc4 	movi	r4,-129
   25320:	a584b03a 	or	r2,r20,r22
   25324:	d8c02d15 	stw	r3,180(sp)
   25328:	9124703a 	and	r18,r18,r4
   2532c:	0039883a 	mov	fp,zero
   25330:	103eb61e 	bne	r2,zero,24e0c <__alt_data_end+0xfffe4e0c>
   25334:	d8802917 	ldw	r2,164(sp)
   25338:	1002c81e 	bne	r2,zero,25e5c <___svfprintf_internal_r+0x15c8>
   2533c:	d8002915 	stw	zero,164(sp)
   25340:	d8002e15 	stw	zero,184(sp)
   25344:	dc001e04 	addi	r16,sp,120
   25348:	003efa06 	br	24f34 <__alt_data_end+0xfffe4f34>
   2534c:	18c03fcc 	andi	r3,r3,255
   25350:	1805ad1e 	bne	r3,zero,26a08 <___svfprintf_internal_r+0x2174>
   25354:	014000f4 	movhi	r5,3
   25358:	29553804 	addi	r5,r5,21728
   2535c:	d9403a15 	stw	r5,232(sp)
   25360:	9080080c 	andi	r2,r18,32
   25364:	10006126 	beq	r2,zero,254ec <___svfprintf_internal_r+0xc58>
   25368:	d8802d17 	ldw	r2,180(sp)
   2536c:	15000017 	ldw	r20,0(r2)
   25370:	15800117 	ldw	r22,4(r2)
   25374:	10800204 	addi	r2,r2,8
   25378:	d8802d15 	stw	r2,180(sp)
   2537c:	9080004c 	andi	r2,r18,1
   25380:	10018e26 	beq	r2,zero,259bc <___svfprintf_internal_r+0x1128>
   25384:	a584b03a 	or	r2,r20,r22
   25388:	10030926 	beq	r2,zero,25fb0 <___svfprintf_internal_r+0x171c>
   2538c:	d8c02917 	ldw	r3,164(sp)
   25390:	00800c04 	movi	r2,48
   25394:	d8802705 	stb	r2,156(sp)
   25398:	dc402745 	stb	r17,157(sp)
   2539c:	d8002785 	stb	zero,158(sp)
   253a0:	90800094 	ori	r2,r18,2
   253a4:	18048716 	blt	r3,zero,265c4 <___svfprintf_internal_r+0x1d30>
   253a8:	00bfdfc4 	movi	r2,-129
   253ac:	90a4703a 	and	r18,r18,r2
   253b0:	94800094 	ori	r18,r18,2
   253b4:	0039883a 	mov	fp,zero
   253b8:	d9003a17 	ldw	r4,232(sp)
   253bc:	dc001e04 	addi	r16,sp,120
   253c0:	a08003cc 	andi	r2,r20,15
   253c4:	b006973a 	slli	r3,r22,28
   253c8:	2085883a 	add	r2,r4,r2
   253cc:	a028d13a 	srli	r20,r20,4
   253d0:	10800003 	ldbu	r2,0(r2)
   253d4:	b02cd13a 	srli	r22,r22,4
   253d8:	843fffc4 	addi	r16,r16,-1
   253dc:	1d28b03a 	or	r20,r3,r20
   253e0:	80800005 	stb	r2,0(r16)
   253e4:	a584b03a 	or	r2,r20,r22
   253e8:	103ff51e 	bne	r2,zero,253c0 <__alt_data_end+0xfffe53c0>
   253ec:	d8c02817 	ldw	r3,160(sp)
   253f0:	1c07c83a 	sub	r3,r3,r16
   253f4:	d8c02e15 	stw	r3,184(sp)
   253f8:	003ece06 	br	24f34 <__alt_data_end+0xfffe4f34>
   253fc:	d8c02d17 	ldw	r3,180(sp)
   25400:	d9002d17 	ldw	r4,180(sp)
   25404:	d8002785 	stb	zero,158(sp)
   25408:	18800017 	ldw	r2,0(r3)
   2540c:	21000104 	addi	r4,r4,4
   25410:	00c00044 	movi	r3,1
   25414:	d8c02a15 	stw	r3,168(sp)
   25418:	d8801405 	stb	r2,80(sp)
   2541c:	d9002d15 	stw	r4,180(sp)
   25420:	d8c02e15 	stw	r3,184(sp)
   25424:	d8002915 	stw	zero,164(sp)
   25428:	d8003215 	stw	zero,200(sp)
   2542c:	dc001404 	addi	r16,sp,80
   25430:	0039883a 	mov	fp,zero
   25434:	003ecc06 	br	24f68 <__alt_data_end+0xfffe4f68>
   25438:	18c03fcc 	andi	r3,r3,255
   2543c:	183e9226 	beq	r3,zero,24e88 <__alt_data_end+0xfffe4e88>
   25440:	d9c02785 	stb	r7,158(sp)
   25444:	003e9006 	br	24e88 <__alt_data_end+0xfffe4e88>
   25448:	00c00044 	movi	r3,1
   2544c:	01c00ac4 	movi	r7,43
   25450:	bc400007 	ldb	r17,0(r23)
   25454:	003d6306 	br	249e4 <__alt_data_end+0xfffe49e4>
   25458:	94800814 	ori	r18,r18,32
   2545c:	bc400007 	ldb	r17,0(r23)
   25460:	003d6006 	br	249e4 <__alt_data_end+0xfffe49e4>
   25464:	d8c02d17 	ldw	r3,180(sp)
   25468:	d8002785 	stb	zero,158(sp)
   2546c:	1c000017 	ldw	r16,0(r3)
   25470:	1d000104 	addi	r20,r3,4
   25474:	80040f26 	beq	r16,zero,264b4 <___svfprintf_internal_r+0x1c20>
   25478:	d9002917 	ldw	r4,164(sp)
   2547c:	2003dc16 	blt	r4,zero,263f0 <___svfprintf_internal_r+0x1b5c>
   25480:	200d883a 	mov	r6,r4
   25484:	000b883a 	mov	r5,zero
   25488:	8009883a 	mov	r4,r16
   2548c:	da003e15 	stw	r8,248(sp)
   25490:	002bac80 	call	2bac8 <memchr>
   25494:	da003e17 	ldw	r8,248(sp)
   25498:	10045826 	beq	r2,zero,265fc <___svfprintf_internal_r+0x1d68>
   2549c:	1405c83a 	sub	r2,r2,r16
   254a0:	d8802e15 	stw	r2,184(sp)
   254a4:	1003d816 	blt	r2,zero,26408 <___svfprintf_internal_r+0x1b74>
   254a8:	df002783 	ldbu	fp,158(sp)
   254ac:	d8802a15 	stw	r2,168(sp)
   254b0:	dd002d15 	stw	r20,180(sp)
   254b4:	d8002915 	stw	zero,164(sp)
   254b8:	d8003215 	stw	zero,200(sp)
   254bc:	003ea306 	br	24f4c <__alt_data_end+0xfffe4f4c>
   254c0:	18c03fcc 	andi	r3,r3,255
   254c4:	183f8c26 	beq	r3,zero,252f8 <__alt_data_end+0xfffe52f8>
   254c8:	d9c02785 	stb	r7,158(sp)
   254cc:	003f8a06 	br	252f8 <__alt_data_end+0xfffe52f8>
   254d0:	18c03fcc 	andi	r3,r3,255
   254d4:	1805631e 	bne	r3,zero,26a64 <___svfprintf_internal_r+0x21d0>
   254d8:	014000f4 	movhi	r5,3
   254dc:	29553d04 	addi	r5,r5,21748
   254e0:	d9403a15 	stw	r5,232(sp)
   254e4:	9080080c 	andi	r2,r18,32
   254e8:	103f9f1e 	bne	r2,zero,25368 <__alt_data_end+0xfffe5368>
   254ec:	9080040c 	andi	r2,r18,16
   254f0:	10029c26 	beq	r2,zero,25f64 <___svfprintf_internal_r+0x16d0>
   254f4:	d8c02d17 	ldw	r3,180(sp)
   254f8:	002d883a 	mov	r22,zero
   254fc:	1d000017 	ldw	r20,0(r3)
   25500:	18c00104 	addi	r3,r3,4
   25504:	d8c02d15 	stw	r3,180(sp)
   25508:	003f9c06 	br	2537c <__alt_data_end+0xfffe537c>
   2550c:	94800054 	ori	r18,r18,1
   25510:	bc400007 	ldb	r17,0(r23)
   25514:	003d3306 	br	249e4 <__alt_data_end+0xfffe49e4>
   25518:	38803fcc 	andi	r2,r7,255
   2551c:	1080201c 	xori	r2,r2,128
   25520:	10bfe004 	addi	r2,r2,-128
   25524:	1002971e 	bne	r2,zero,25f84 <___svfprintf_internal_r+0x16f0>
   25528:	00c00044 	movi	r3,1
   2552c:	01c00804 	movi	r7,32
   25530:	bc400007 	ldb	r17,0(r23)
   25534:	003d2b06 	br	249e4 <__alt_data_end+0xfffe49e4>
   25538:	18c03fcc 	andi	r3,r3,255
   2553c:	183e2326 	beq	r3,zero,24dcc <__alt_data_end+0xfffe4dcc>
   25540:	d9c02785 	stb	r7,158(sp)
   25544:	003e2106 	br	24dcc <__alt_data_end+0xfffe4dcc>
   25548:	bc400007 	ldb	r17,0(r23)
   2554c:	8a430426 	beq	r17,r9,26160 <___svfprintf_internal_r+0x18cc>
   25550:	94800414 	ori	r18,r18,16
   25554:	003d2306 	br	249e4 <__alt_data_end+0xfffe49e4>
   25558:	18c03fcc 	andi	r3,r3,255
   2555c:	18053f1e 	bne	r3,zero,26a5c <___svfprintf_internal_r+0x21c8>
   25560:	9080080c 	andi	r2,r18,32
   25564:	10028926 	beq	r2,zero,25f8c <___svfprintf_internal_r+0x16f8>
   25568:	d9402d17 	ldw	r5,180(sp)
   2556c:	d9002f17 	ldw	r4,188(sp)
   25570:	28800017 	ldw	r2,0(r5)
   25574:	2007d7fa 	srai	r3,r4,31
   25578:	29400104 	addi	r5,r5,4
   2557c:	d9402d15 	stw	r5,180(sp)
   25580:	11000015 	stw	r4,0(r2)
   25584:	10c00115 	stw	r3,4(r2)
   25588:	003ced06 	br	24940 <__alt_data_end+0xfffe4940>
   2558c:	94801014 	ori	r18,r18,64
   25590:	bc400007 	ldb	r17,0(r23)
   25594:	003d1306 	br	249e4 <__alt_data_end+0xfffe49e4>
   25598:	010000f4 	movhi	r4,3
   2559c:	21153d04 	addi	r4,r4,21748
   255a0:	0039883a 	mov	fp,zero
   255a4:	d9003a15 	stw	r4,232(sp)
   255a8:	04401e04 	movi	r17,120
   255ac:	003f8206 	br	253b8 <__alt_data_end+0xfffe53b8>
   255b0:	18c03fcc 	andi	r3,r3,255
   255b4:	1805221e 	bne	r3,zero,26a40 <___svfprintf_internal_r+0x21ac>
   255b8:	883d9526 	beq	r17,zero,24c10 <__alt_data_end+0xfffe4c10>
   255bc:	00c00044 	movi	r3,1
   255c0:	d8c02a15 	stw	r3,168(sp)
   255c4:	dc401405 	stb	r17,80(sp)
   255c8:	d8002785 	stb	zero,158(sp)
   255cc:	003f9406 	br	25420 <__alt_data_end+0xfffe5420>
   255d0:	010000f4 	movhi	r4,3
   255d4:	21153d04 	addi	r4,r4,21748
   255d8:	d9003a15 	stw	r4,232(sp)
   255dc:	d8c02d15 	stw	r3,180(sp)
   255e0:	1025883a 	mov	r18,r2
   255e4:	04401e04 	movi	r17,120
   255e8:	a584b03a 	or	r2,r20,r22
   255ec:	1000fa1e 	bne	r2,zero,259d8 <___svfprintf_internal_r+0x1144>
   255f0:	0039883a 	mov	fp,zero
   255f4:	00800084 	movi	r2,2
   255f8:	10803fcc 	andi	r2,r2,255
   255fc:	00c00044 	movi	r3,1
   25600:	10c21626 	beq	r2,r3,25e5c <___svfprintf_internal_r+0x15c8>
   25604:	00c00084 	movi	r3,2
   25608:	10fe301e 	bne	r2,r3,24ecc <__alt_data_end+0xfffe4ecc>
   2560c:	003d7606 	br	24be8 <__alt_data_end+0xfffe4be8>
   25610:	d8c02017 	ldw	r3,128(sp)
   25614:	003e9506 	br	2506c <__alt_data_end+0xfffe506c>
   25618:	00801944 	movi	r2,101
   2561c:	14407c0e 	bge	r2,r17,25810 <___svfprintf_internal_r+0xf7c>
   25620:	d9003617 	ldw	r4,216(sp)
   25624:	d9403717 	ldw	r5,220(sp)
   25628:	000d883a 	mov	r6,zero
   2562c:	000f883a 	mov	r7,zero
   25630:	d8c03d15 	stw	r3,244(sp)
   25634:	da003e15 	stw	r8,248(sp)
   25638:	00324700 	call	32470 <__eqdf2>
   2563c:	d8c03d17 	ldw	r3,244(sp)
   25640:	da003e17 	ldw	r8,248(sp)
   25644:	1000f51e 	bne	r2,zero,25a1c <___svfprintf_internal_r+0x1188>
   25648:	d8801f17 	ldw	r2,124(sp)
   2564c:	010000f4 	movhi	r4,3
   25650:	21154404 	addi	r4,r4,21776
   25654:	18c00044 	addi	r3,r3,1
   25658:	10800044 	addi	r2,r2,1
   2565c:	41000015 	stw	r4,0(r8)
   25660:	01000044 	movi	r4,1
   25664:	41000115 	stw	r4,4(r8)
   25668:	d8c02015 	stw	r3,128(sp)
   2566c:	d8801f15 	stw	r2,124(sp)
   25670:	010001c4 	movi	r4,7
   25674:	20826616 	blt	r4,r2,26010 <___svfprintf_internal_r+0x177c>
   25678:	42000204 	addi	r8,r8,8
   2567c:	d8802617 	ldw	r2,152(sp)
   25680:	d9403317 	ldw	r5,204(sp)
   25684:	11400216 	blt	r2,r5,25690 <___svfprintf_internal_r+0xdfc>
   25688:	9080004c 	andi	r2,r18,1
   2568c:	103ed526 	beq	r2,zero,251e4 <__alt_data_end+0xfffe51e4>
   25690:	d8803817 	ldw	r2,224(sp)
   25694:	d9003417 	ldw	r4,208(sp)
   25698:	d9403817 	ldw	r5,224(sp)
   2569c:	1887883a 	add	r3,r3,r2
   256a0:	d8801f17 	ldw	r2,124(sp)
   256a4:	41000015 	stw	r4,0(r8)
   256a8:	41400115 	stw	r5,4(r8)
   256ac:	10800044 	addi	r2,r2,1
   256b0:	d8c02015 	stw	r3,128(sp)
   256b4:	d8801f15 	stw	r2,124(sp)
   256b8:	010001c4 	movi	r4,7
   256bc:	2082af16 	blt	r4,r2,2617c <___svfprintf_internal_r+0x18e8>
   256c0:	42000204 	addi	r8,r8,8
   256c4:	d8803317 	ldw	r2,204(sp)
   256c8:	143fffc4 	addi	r16,r2,-1
   256cc:	043ec50e 	bge	zero,r16,251e4 <__alt_data_end+0xfffe51e4>
   256d0:	04400404 	movi	r17,16
   256d4:	d8801f17 	ldw	r2,124(sp)
   256d8:	8c00860e 	bge	r17,r16,258f4 <___svfprintf_internal_r+0x1060>
   256dc:	014000f4 	movhi	r5,3
   256e0:	29554484 	addi	r5,r5,21778
   256e4:	d9402b15 	stw	r5,172(sp)
   256e8:	058001c4 	movi	r22,7
   256ec:	dd002c17 	ldw	r20,176(sp)
   256f0:	00000306 	br	25700 <___svfprintf_internal_r+0xe6c>
   256f4:	42000204 	addi	r8,r8,8
   256f8:	843ffc04 	addi	r16,r16,-16
   256fc:	8c00800e 	bge	r17,r16,25900 <___svfprintf_internal_r+0x106c>
   25700:	18c00404 	addi	r3,r3,16
   25704:	10800044 	addi	r2,r2,1
   25708:	45400015 	stw	r21,0(r8)
   2570c:	44400115 	stw	r17,4(r8)
   25710:	d8c02015 	stw	r3,128(sp)
   25714:	d8801f15 	stw	r2,124(sp)
   25718:	b0bff60e 	bge	r22,r2,256f4 <__alt_data_end+0xfffe56f4>
   2571c:	d9801e04 	addi	r6,sp,120
   25720:	a00b883a 	mov	r5,r20
   25724:	9809883a 	mov	r4,r19
   25728:	002d6c80 	call	2d6c8 <__ssprint_r>
   2572c:	103d3e1e 	bne	r2,zero,24c28 <__alt_data_end+0xfffe4c28>
   25730:	d8c02017 	ldw	r3,128(sp)
   25734:	d8801f17 	ldw	r2,124(sp)
   25738:	da000404 	addi	r8,sp,16
   2573c:	003fee06 	br	256f8 <__alt_data_end+0xfffe56f8>
   25740:	d9403117 	ldw	r5,196(sp)
   25744:	d8802a17 	ldw	r2,168(sp)
   25748:	28adc83a 	sub	r22,r5,r2
   2574c:	05be650e 	bge	zero,r22,250e4 <__alt_data_end+0xfffe50e4>
   25750:	07000404 	movi	fp,16
   25754:	d8801f17 	ldw	r2,124(sp)
   25758:	e583a20e 	bge	fp,r22,265e4 <___svfprintf_internal_r+0x1d50>
   2575c:	014000f4 	movhi	r5,3
   25760:	29554484 	addi	r5,r5,21778
   25764:	dc403015 	stw	r17,192(sp)
   25768:	d9402b15 	stw	r5,172(sp)
   2576c:	b023883a 	mov	r17,r22
   25770:	050001c4 	movi	r20,7
   25774:	902d883a 	mov	r22,r18
   25778:	8025883a 	mov	r18,r16
   2577c:	dc002c17 	ldw	r16,176(sp)
   25780:	00000306 	br	25790 <___svfprintf_internal_r+0xefc>
   25784:	8c7ffc04 	addi	r17,r17,-16
   25788:	42000204 	addi	r8,r8,8
   2578c:	e440110e 	bge	fp,r17,257d4 <___svfprintf_internal_r+0xf40>
   25790:	18c00404 	addi	r3,r3,16
   25794:	10800044 	addi	r2,r2,1
   25798:	45400015 	stw	r21,0(r8)
   2579c:	47000115 	stw	fp,4(r8)
   257a0:	d8c02015 	stw	r3,128(sp)
   257a4:	d8801f15 	stw	r2,124(sp)
   257a8:	a0bff60e 	bge	r20,r2,25784 <__alt_data_end+0xfffe5784>
   257ac:	d9801e04 	addi	r6,sp,120
   257b0:	800b883a 	mov	r5,r16
   257b4:	9809883a 	mov	r4,r19
   257b8:	002d6c80 	call	2d6c8 <__ssprint_r>
   257bc:	103d1a1e 	bne	r2,zero,24c28 <__alt_data_end+0xfffe4c28>
   257c0:	8c7ffc04 	addi	r17,r17,-16
   257c4:	d8c02017 	ldw	r3,128(sp)
   257c8:	d8801f17 	ldw	r2,124(sp)
   257cc:	da000404 	addi	r8,sp,16
   257d0:	e47fef16 	blt	fp,r17,25790 <__alt_data_end+0xfffe5790>
   257d4:	9021883a 	mov	r16,r18
   257d8:	b025883a 	mov	r18,r22
   257dc:	882d883a 	mov	r22,r17
   257e0:	dc403017 	ldw	r17,192(sp)
   257e4:	d9002b17 	ldw	r4,172(sp)
   257e8:	1d87883a 	add	r3,r3,r22
   257ec:	10800044 	addi	r2,r2,1
   257f0:	41000015 	stw	r4,0(r8)
   257f4:	45800115 	stw	r22,4(r8)
   257f8:	d8c02015 	stw	r3,128(sp)
   257fc:	d8801f15 	stw	r2,124(sp)
   25800:	010001c4 	movi	r4,7
   25804:	20819a16 	blt	r4,r2,25e70 <___svfprintf_internal_r+0x15dc>
   25808:	42000204 	addi	r8,r8,8
   2580c:	003e3506 	br	250e4 <__alt_data_end+0xfffe50e4>
   25810:	d9403317 	ldw	r5,204(sp)
   25814:	00800044 	movi	r2,1
   25818:	18c00044 	addi	r3,r3,1
   2581c:	1141710e 	bge	r2,r5,25de4 <___svfprintf_internal_r+0x1550>
   25820:	dc401f17 	ldw	r17,124(sp)
   25824:	00800044 	movi	r2,1
   25828:	40800115 	stw	r2,4(r8)
   2582c:	8c400044 	addi	r17,r17,1
   25830:	44000015 	stw	r16,0(r8)
   25834:	d8c02015 	stw	r3,128(sp)
   25838:	dc401f15 	stw	r17,124(sp)
   2583c:	008001c4 	movi	r2,7
   25840:	14417416 	blt	r2,r17,25e14 <___svfprintf_internal_r+0x1580>
   25844:	42000204 	addi	r8,r8,8
   25848:	d8803817 	ldw	r2,224(sp)
   2584c:	d9003417 	ldw	r4,208(sp)
   25850:	8c400044 	addi	r17,r17,1
   25854:	10c7883a 	add	r3,r2,r3
   25858:	40800115 	stw	r2,4(r8)
   2585c:	41000015 	stw	r4,0(r8)
   25860:	d8c02015 	stw	r3,128(sp)
   25864:	dc401f15 	stw	r17,124(sp)
   25868:	008001c4 	movi	r2,7
   2586c:	14417216 	blt	r2,r17,25e38 <___svfprintf_internal_r+0x15a4>
   25870:	45800204 	addi	r22,r8,8
   25874:	d9003617 	ldw	r4,216(sp)
   25878:	d9403717 	ldw	r5,220(sp)
   2587c:	000d883a 	mov	r6,zero
   25880:	000f883a 	mov	r7,zero
   25884:	d8c03d15 	stw	r3,244(sp)
   25888:	00324700 	call	32470 <__eqdf2>
   2588c:	d8c03d17 	ldw	r3,244(sp)
   25890:	1000b326 	beq	r2,zero,25b60 <___svfprintf_internal_r+0x12cc>
   25894:	d9403317 	ldw	r5,204(sp)
   25898:	84000044 	addi	r16,r16,1
   2589c:	8c400044 	addi	r17,r17,1
   258a0:	28bfffc4 	addi	r2,r5,-1
   258a4:	1887883a 	add	r3,r3,r2
   258a8:	b0800115 	stw	r2,4(r22)
   258ac:	b4000015 	stw	r16,0(r22)
   258b0:	d8c02015 	stw	r3,128(sp)
   258b4:	dc401f15 	stw	r17,124(sp)
   258b8:	008001c4 	movi	r2,7
   258bc:	1440d216 	blt	r2,r17,25c08 <___svfprintf_internal_r+0x1374>
   258c0:	b5800204 	addi	r22,r22,8
   258c4:	d9003b17 	ldw	r4,236(sp)
   258c8:	df0022c4 	addi	fp,sp,139
   258cc:	8c400044 	addi	r17,r17,1
   258d0:	20c7883a 	add	r3,r4,r3
   258d4:	b7000015 	stw	fp,0(r22)
   258d8:	b1000115 	stw	r4,4(r22)
   258dc:	d8c02015 	stw	r3,128(sp)
   258e0:	dc401f15 	stw	r17,124(sp)
   258e4:	008001c4 	movi	r2,7
   258e8:	14400e16 	blt	r2,r17,25924 <___svfprintf_internal_r+0x1090>
   258ec:	b2000204 	addi	r8,r22,8
   258f0:	003e3c06 	br	251e4 <__alt_data_end+0xfffe51e4>
   258f4:	010000f4 	movhi	r4,3
   258f8:	21154484 	addi	r4,r4,21778
   258fc:	d9002b15 	stw	r4,172(sp)
   25900:	d9002b17 	ldw	r4,172(sp)
   25904:	1c07883a 	add	r3,r3,r16
   25908:	44000115 	stw	r16,4(r8)
   2590c:	41000015 	stw	r4,0(r8)
   25910:	10800044 	addi	r2,r2,1
   25914:	d8c02015 	stw	r3,128(sp)
   25918:	d8801f15 	stw	r2,124(sp)
   2591c:	010001c4 	movi	r4,7
   25920:	20be2f0e 	bge	r4,r2,251e0 <__alt_data_end+0xfffe51e0>
   25924:	d9402c17 	ldw	r5,176(sp)
   25928:	d9801e04 	addi	r6,sp,120
   2592c:	9809883a 	mov	r4,r19
   25930:	002d6c80 	call	2d6c8 <__ssprint_r>
   25934:	103cbc1e 	bne	r2,zero,24c28 <__alt_data_end+0xfffe4c28>
   25938:	d8c02017 	ldw	r3,128(sp)
   2593c:	da000404 	addi	r8,sp,16
   25940:	003e2806 	br	251e4 <__alt_data_end+0xfffe51e4>
   25944:	d9402c17 	ldw	r5,176(sp)
   25948:	d9801e04 	addi	r6,sp,120
   2594c:	9809883a 	mov	r4,r19
   25950:	002d6c80 	call	2d6c8 <__ssprint_r>
   25954:	103e5f26 	beq	r2,zero,252d4 <__alt_data_end+0xfffe52d4>
   25958:	003cb306 	br	24c28 <__alt_data_end+0xfffe4c28>
   2595c:	d9402c17 	ldw	r5,176(sp)
   25960:	d9801e04 	addi	r6,sp,120
   25964:	9809883a 	mov	r4,r19
   25968:	002d6c80 	call	2d6c8 <__ssprint_r>
   2596c:	103cae1e 	bne	r2,zero,24c28 <__alt_data_end+0xfffe4c28>
   25970:	d8c02017 	ldw	r3,128(sp)
   25974:	da000404 	addi	r8,sp,16
   25978:	003e0d06 	br	251b0 <__alt_data_end+0xfffe51b0>
   2597c:	d9402c17 	ldw	r5,176(sp)
   25980:	d9801e04 	addi	r6,sp,120
   25984:	9809883a 	mov	r4,r19
   25988:	002d6c80 	call	2d6c8 <__ssprint_r>
   2598c:	103ca61e 	bne	r2,zero,24c28 <__alt_data_end+0xfffe4c28>
   25990:	d8c02017 	ldw	r3,128(sp)
   25994:	da000404 	addi	r8,sp,16
   25998:	003dc106 	br	250a0 <__alt_data_end+0xfffe50a0>
   2599c:	d9402c17 	ldw	r5,176(sp)
   259a0:	d9801e04 	addi	r6,sp,120
   259a4:	9809883a 	mov	r4,r19
   259a8:	002d6c80 	call	2d6c8 <__ssprint_r>
   259ac:	103c9e1e 	bne	r2,zero,24c28 <__alt_data_end+0xfffe4c28>
   259b0:	d8c02017 	ldw	r3,128(sp)
   259b4:	da000404 	addi	r8,sp,16
   259b8:	003dc706 	br	250d8 <__alt_data_end+0xfffe50d8>
   259bc:	d8802917 	ldw	r2,164(sp)
   259c0:	d8002785 	stb	zero,158(sp)
   259c4:	103f0816 	blt	r2,zero,255e8 <__alt_data_end+0xfffe55e8>
   259c8:	00ffdfc4 	movi	r3,-129
   259cc:	a584b03a 	or	r2,r20,r22
   259d0:	90e4703a 	and	r18,r18,r3
   259d4:	103c8126 	beq	r2,zero,24bdc <__alt_data_end+0xfffe4bdc>
   259d8:	0039883a 	mov	fp,zero
   259dc:	003e7606 	br	253b8 <__alt_data_end+0xfffe53b8>
   259e0:	9080040c 	andi	r2,r18,16
   259e4:	10013d26 	beq	r2,zero,25edc <___svfprintf_internal_r+0x1648>
   259e8:	d9002d17 	ldw	r4,180(sp)
   259ec:	d9402917 	ldw	r5,164(sp)
   259f0:	d8002785 	stb	zero,158(sp)
   259f4:	20800104 	addi	r2,r4,4
   259f8:	25000017 	ldw	r20,0(r4)
   259fc:	002d883a 	mov	r22,zero
   25a00:	28013f16 	blt	r5,zero,25f00 <___svfprintf_internal_r+0x166c>
   25a04:	00ffdfc4 	movi	r3,-129
   25a08:	d8802d15 	stw	r2,180(sp)
   25a0c:	90e4703a 	and	r18,r18,r3
   25a10:	a03d2b26 	beq	r20,zero,24ec0 <__alt_data_end+0xfffe4ec0>
   25a14:	0039883a 	mov	fp,zero
   25a18:	003d2e06 	br	24ed4 <__alt_data_end+0xfffe4ed4>
   25a1c:	dc402617 	ldw	r17,152(sp)
   25a20:	0441830e 	bge	zero,r17,26030 <___svfprintf_internal_r+0x179c>
   25a24:	dc403217 	ldw	r17,200(sp)
   25a28:	d8803317 	ldw	r2,204(sp)
   25a2c:	1440010e 	bge	r2,r17,25a34 <___svfprintf_internal_r+0x11a0>
   25a30:	1023883a 	mov	r17,r2
   25a34:	04400a0e 	bge	zero,r17,25a60 <___svfprintf_internal_r+0x11cc>
   25a38:	d8801f17 	ldw	r2,124(sp)
   25a3c:	1c47883a 	add	r3,r3,r17
   25a40:	44000015 	stw	r16,0(r8)
   25a44:	10800044 	addi	r2,r2,1
   25a48:	44400115 	stw	r17,4(r8)
   25a4c:	d8c02015 	stw	r3,128(sp)
   25a50:	d8801f15 	stw	r2,124(sp)
   25a54:	010001c4 	movi	r4,7
   25a58:	20827516 	blt	r4,r2,26430 <___svfprintf_internal_r+0x1b9c>
   25a5c:	42000204 	addi	r8,r8,8
   25a60:	88027b16 	blt	r17,zero,26450 <___svfprintf_internal_r+0x1bbc>
   25a64:	d9003217 	ldw	r4,200(sp)
   25a68:	2463c83a 	sub	r17,r4,r17
   25a6c:	0440990e 	bge	zero,r17,25cd4 <___svfprintf_internal_r+0x1440>
   25a70:	05800404 	movi	r22,16
   25a74:	d8801f17 	ldw	r2,124(sp)
   25a78:	b441530e 	bge	r22,r17,25fc8 <___svfprintf_internal_r+0x1734>
   25a7c:	010000f4 	movhi	r4,3
   25a80:	21154484 	addi	r4,r4,21778
   25a84:	d9002b15 	stw	r4,172(sp)
   25a88:	070001c4 	movi	fp,7
   25a8c:	dd002c17 	ldw	r20,176(sp)
   25a90:	00000306 	br	25aa0 <___svfprintf_internal_r+0x120c>
   25a94:	42000204 	addi	r8,r8,8
   25a98:	8c7ffc04 	addi	r17,r17,-16
   25a9c:	b4414d0e 	bge	r22,r17,25fd4 <___svfprintf_internal_r+0x1740>
   25aa0:	18c00404 	addi	r3,r3,16
   25aa4:	10800044 	addi	r2,r2,1
   25aa8:	45400015 	stw	r21,0(r8)
   25aac:	45800115 	stw	r22,4(r8)
   25ab0:	d8c02015 	stw	r3,128(sp)
   25ab4:	d8801f15 	stw	r2,124(sp)
   25ab8:	e0bff60e 	bge	fp,r2,25a94 <__alt_data_end+0xfffe5a94>
   25abc:	d9801e04 	addi	r6,sp,120
   25ac0:	a00b883a 	mov	r5,r20
   25ac4:	9809883a 	mov	r4,r19
   25ac8:	002d6c80 	call	2d6c8 <__ssprint_r>
   25acc:	103c561e 	bne	r2,zero,24c28 <__alt_data_end+0xfffe4c28>
   25ad0:	d8c02017 	ldw	r3,128(sp)
   25ad4:	d8801f17 	ldw	r2,124(sp)
   25ad8:	da000404 	addi	r8,sp,16
   25adc:	003fee06 	br	25a98 <__alt_data_end+0xfffe5a98>
   25ae0:	d9402c17 	ldw	r5,176(sp)
   25ae4:	d9801e04 	addi	r6,sp,120
   25ae8:	9809883a 	mov	r4,r19
   25aec:	002d6c80 	call	2d6c8 <__ssprint_r>
   25af0:	103c4d1e 	bne	r2,zero,24c28 <__alt_data_end+0xfffe4c28>
   25af4:	d8c02017 	ldw	r3,128(sp)
   25af8:	df002787 	ldb	fp,158(sp)
   25afc:	da000404 	addi	r8,sp,16
   25b00:	003d5a06 	br	2506c <__alt_data_end+0xfffe506c>
   25b04:	9080040c 	andi	r2,r18,16
   25b08:	10005c26 	beq	r2,zero,25c7c <___svfprintf_internal_r+0x13e8>
   25b0c:	d9402d17 	ldw	r5,180(sp)
   25b10:	d8c02917 	ldw	r3,164(sp)
   25b14:	d8002785 	stb	zero,158(sp)
   25b18:	28800104 	addi	r2,r5,4
   25b1c:	2d000017 	ldw	r20,0(r5)
   25b20:	002d883a 	mov	r22,zero
   25b24:	18005e16 	blt	r3,zero,25ca0 <___svfprintf_internal_r+0x140c>
   25b28:	00ffdfc4 	movi	r3,-129
   25b2c:	d8802d15 	stw	r2,180(sp)
   25b30:	90e4703a 	and	r18,r18,r3
   25b34:	0039883a 	mov	fp,zero
   25b38:	a03dfe26 	beq	r20,zero,25334 <__alt_data_end+0xfffe5334>
   25b3c:	00800244 	movi	r2,9
   25b40:	153cb336 	bltu	r2,r20,24e10 <__alt_data_end+0xfffe4e10>
   25b44:	a5000c04 	addi	r20,r20,48
   25b48:	dc001dc4 	addi	r16,sp,119
   25b4c:	dd001dc5 	stb	r20,119(sp)
   25b50:	d8c02817 	ldw	r3,160(sp)
   25b54:	1c07c83a 	sub	r3,r3,r16
   25b58:	d8c02e15 	stw	r3,184(sp)
   25b5c:	003cf506 	br	24f34 <__alt_data_end+0xfffe4f34>
   25b60:	d8803317 	ldw	r2,204(sp)
   25b64:	143fffc4 	addi	r16,r2,-1
   25b68:	043f560e 	bge	zero,r16,258c4 <__alt_data_end+0xfffe58c4>
   25b6c:	07000404 	movi	fp,16
   25b70:	e403530e 	bge	fp,r16,268c0 <___svfprintf_internal_r+0x202c>
   25b74:	014000f4 	movhi	r5,3
   25b78:	29554484 	addi	r5,r5,21778
   25b7c:	d9402b15 	stw	r5,172(sp)
   25b80:	01c001c4 	movi	r7,7
   25b84:	dd002c17 	ldw	r20,176(sp)
   25b88:	00000306 	br	25b98 <___svfprintf_internal_r+0x1304>
   25b8c:	843ffc04 	addi	r16,r16,-16
   25b90:	b5800204 	addi	r22,r22,8
   25b94:	e400130e 	bge	fp,r16,25be4 <___svfprintf_internal_r+0x1350>
   25b98:	18c00404 	addi	r3,r3,16
   25b9c:	8c400044 	addi	r17,r17,1
   25ba0:	b5400015 	stw	r21,0(r22)
   25ba4:	b7000115 	stw	fp,4(r22)
   25ba8:	d8c02015 	stw	r3,128(sp)
   25bac:	dc401f15 	stw	r17,124(sp)
   25bb0:	3c7ff60e 	bge	r7,r17,25b8c <__alt_data_end+0xfffe5b8c>
   25bb4:	d9801e04 	addi	r6,sp,120
   25bb8:	a00b883a 	mov	r5,r20
   25bbc:	9809883a 	mov	r4,r19
   25bc0:	d9c03d15 	stw	r7,244(sp)
   25bc4:	002d6c80 	call	2d6c8 <__ssprint_r>
   25bc8:	d9c03d17 	ldw	r7,244(sp)
   25bcc:	103c161e 	bne	r2,zero,24c28 <__alt_data_end+0xfffe4c28>
   25bd0:	843ffc04 	addi	r16,r16,-16
   25bd4:	d8c02017 	ldw	r3,128(sp)
   25bd8:	dc401f17 	ldw	r17,124(sp)
   25bdc:	dd800404 	addi	r22,sp,16
   25be0:	e43fed16 	blt	fp,r16,25b98 <__alt_data_end+0xfffe5b98>
   25be4:	d8802b17 	ldw	r2,172(sp)
   25be8:	1c07883a 	add	r3,r3,r16
   25bec:	8c400044 	addi	r17,r17,1
   25bf0:	b0800015 	stw	r2,0(r22)
   25bf4:	b4000115 	stw	r16,4(r22)
   25bf8:	d8c02015 	stw	r3,128(sp)
   25bfc:	dc401f15 	stw	r17,124(sp)
   25c00:	008001c4 	movi	r2,7
   25c04:	147f2e0e 	bge	r2,r17,258c0 <__alt_data_end+0xfffe58c0>
   25c08:	d9402c17 	ldw	r5,176(sp)
   25c0c:	d9801e04 	addi	r6,sp,120
   25c10:	9809883a 	mov	r4,r19
   25c14:	002d6c80 	call	2d6c8 <__ssprint_r>
   25c18:	103c031e 	bne	r2,zero,24c28 <__alt_data_end+0xfffe4c28>
   25c1c:	d8c02017 	ldw	r3,128(sp)
   25c20:	dc401f17 	ldw	r17,124(sp)
   25c24:	dd800404 	addi	r22,sp,16
   25c28:	003f2606 	br	258c4 <__alt_data_end+0xfffe58c4>
   25c2c:	9080040c 	andi	r2,r18,16
   25c30:	1000c326 	beq	r2,zero,25f40 <___svfprintf_internal_r+0x16ac>
   25c34:	d8802d17 	ldw	r2,180(sp)
   25c38:	15000017 	ldw	r20,0(r2)
   25c3c:	10800104 	addi	r2,r2,4
   25c40:	d8802d15 	stw	r2,180(sp)
   25c44:	a02dd7fa 	srai	r22,r20,31
   25c48:	b005883a 	mov	r2,r22
   25c4c:	103c680e 	bge	r2,zero,24df0 <__alt_data_end+0xfffe4df0>
   25c50:	0529c83a 	sub	r20,zero,r20
   25c54:	a004c03a 	cmpne	r2,r20,zero
   25c58:	05adc83a 	sub	r22,zero,r22
   25c5c:	b0adc83a 	sub	r22,r22,r2
   25c60:	d8802917 	ldw	r2,164(sp)
   25c64:	07000b44 	movi	fp,45
   25c68:	df002785 	stb	fp,158(sp)
   25c6c:	10022e16 	blt	r2,zero,26528 <___svfprintf_internal_r+0x1c94>
   25c70:	00bfdfc4 	movi	r2,-129
   25c74:	90a4703a 	and	r18,r18,r2
   25c78:	003c6406 	br	24e0c <__alt_data_end+0xfffe4e0c>
   25c7c:	9080100c 	andi	r2,r18,64
   25c80:	d8002785 	stb	zero,158(sp)
   25c84:	10012526 	beq	r2,zero,2611c <___svfprintf_internal_r+0x1888>
   25c88:	d9002d17 	ldw	r4,180(sp)
   25c8c:	d9402917 	ldw	r5,164(sp)
   25c90:	002d883a 	mov	r22,zero
   25c94:	20800104 	addi	r2,r4,4
   25c98:	2500000b 	ldhu	r20,0(r4)
   25c9c:	283fa20e 	bge	r5,zero,25b28 <__alt_data_end+0xfffe5b28>
   25ca0:	d8802d15 	stw	r2,180(sp)
   25ca4:	0039883a 	mov	fp,zero
   25ca8:	a584b03a 	or	r2,r20,r22
   25cac:	103c571e 	bne	r2,zero,24e0c <__alt_data_end+0xfffe4e0c>
   25cb0:	00800044 	movi	r2,1
   25cb4:	003e5006 	br	255f8 <__alt_data_end+0xfffe55f8>
   25cb8:	d9402c17 	ldw	r5,176(sp)
   25cbc:	d9801e04 	addi	r6,sp,120
   25cc0:	9809883a 	mov	r4,r19
   25cc4:	002d6c80 	call	2d6c8 <__ssprint_r>
   25cc8:	103bd71e 	bne	r2,zero,24c28 <__alt_data_end+0xfffe4c28>
   25ccc:	d8c02017 	ldw	r3,128(sp)
   25cd0:	da000404 	addi	r8,sp,16
   25cd4:	d9003217 	ldw	r4,200(sp)
   25cd8:	d8802617 	ldw	r2,152(sp)
   25cdc:	d9403317 	ldw	r5,204(sp)
   25ce0:	8123883a 	add	r17,r16,r4
   25ce4:	11400216 	blt	r2,r5,25cf0 <___svfprintf_internal_r+0x145c>
   25ce8:	9100004c 	andi	r4,r18,1
   25cec:	20000d26 	beq	r4,zero,25d24 <___svfprintf_internal_r+0x1490>
   25cf0:	d9003817 	ldw	r4,224(sp)
   25cf4:	d9403417 	ldw	r5,208(sp)
   25cf8:	1907883a 	add	r3,r3,r4
   25cfc:	d9001f17 	ldw	r4,124(sp)
   25d00:	41400015 	stw	r5,0(r8)
   25d04:	d9403817 	ldw	r5,224(sp)
   25d08:	21000044 	addi	r4,r4,1
   25d0c:	d8c02015 	stw	r3,128(sp)
   25d10:	41400115 	stw	r5,4(r8)
   25d14:	d9001f15 	stw	r4,124(sp)
   25d18:	014001c4 	movi	r5,7
   25d1c:	2901dc16 	blt	r5,r4,26490 <___svfprintf_internal_r+0x1bfc>
   25d20:	42000204 	addi	r8,r8,8
   25d24:	d9003317 	ldw	r4,204(sp)
   25d28:	8121883a 	add	r16,r16,r4
   25d2c:	2085c83a 	sub	r2,r4,r2
   25d30:	8461c83a 	sub	r16,r16,r17
   25d34:	1400010e 	bge	r2,r16,25d3c <___svfprintf_internal_r+0x14a8>
   25d38:	1021883a 	mov	r16,r2
   25d3c:	04000a0e 	bge	zero,r16,25d68 <___svfprintf_internal_r+0x14d4>
   25d40:	d9001f17 	ldw	r4,124(sp)
   25d44:	1c07883a 	add	r3,r3,r16
   25d48:	44400015 	stw	r17,0(r8)
   25d4c:	21000044 	addi	r4,r4,1
   25d50:	44000115 	stw	r16,4(r8)
   25d54:	d8c02015 	stw	r3,128(sp)
   25d58:	d9001f15 	stw	r4,124(sp)
   25d5c:	014001c4 	movi	r5,7
   25d60:	2901e616 	blt	r5,r4,264fc <___svfprintf_internal_r+0x1c68>
   25d64:	42000204 	addi	r8,r8,8
   25d68:	8001f616 	blt	r16,zero,26544 <___svfprintf_internal_r+0x1cb0>
   25d6c:	1421c83a 	sub	r16,r2,r16
   25d70:	043d1c0e 	bge	zero,r16,251e4 <__alt_data_end+0xfffe51e4>
   25d74:	04400404 	movi	r17,16
   25d78:	d8801f17 	ldw	r2,124(sp)
   25d7c:	8c3edd0e 	bge	r17,r16,258f4 <__alt_data_end+0xfffe58f4>
   25d80:	014000f4 	movhi	r5,3
   25d84:	29554484 	addi	r5,r5,21778
   25d88:	d9402b15 	stw	r5,172(sp)
   25d8c:	058001c4 	movi	r22,7
   25d90:	dd002c17 	ldw	r20,176(sp)
   25d94:	00000306 	br	25da4 <___svfprintf_internal_r+0x1510>
   25d98:	42000204 	addi	r8,r8,8
   25d9c:	843ffc04 	addi	r16,r16,-16
   25da0:	8c3ed70e 	bge	r17,r16,25900 <__alt_data_end+0xfffe5900>
   25da4:	18c00404 	addi	r3,r3,16
   25da8:	10800044 	addi	r2,r2,1
   25dac:	45400015 	stw	r21,0(r8)
   25db0:	44400115 	stw	r17,4(r8)
   25db4:	d8c02015 	stw	r3,128(sp)
   25db8:	d8801f15 	stw	r2,124(sp)
   25dbc:	b0bff60e 	bge	r22,r2,25d98 <__alt_data_end+0xfffe5d98>
   25dc0:	d9801e04 	addi	r6,sp,120
   25dc4:	a00b883a 	mov	r5,r20
   25dc8:	9809883a 	mov	r4,r19
   25dcc:	002d6c80 	call	2d6c8 <__ssprint_r>
   25dd0:	103b951e 	bne	r2,zero,24c28 <__alt_data_end+0xfffe4c28>
   25dd4:	d8c02017 	ldw	r3,128(sp)
   25dd8:	d8801f17 	ldw	r2,124(sp)
   25ddc:	da000404 	addi	r8,sp,16
   25de0:	003fee06 	br	25d9c <__alt_data_end+0xfffe5d9c>
   25de4:	9088703a 	and	r4,r18,r2
   25de8:	203e8d1e 	bne	r4,zero,25820 <__alt_data_end+0xfffe5820>
   25dec:	dc401f17 	ldw	r17,124(sp)
   25df0:	40800115 	stw	r2,4(r8)
   25df4:	44000015 	stw	r16,0(r8)
   25df8:	8c400044 	addi	r17,r17,1
   25dfc:	d8c02015 	stw	r3,128(sp)
   25e00:	dc401f15 	stw	r17,124(sp)
   25e04:	008001c4 	movi	r2,7
   25e08:	147f7f16 	blt	r2,r17,25c08 <__alt_data_end+0xfffe5c08>
   25e0c:	45800204 	addi	r22,r8,8
   25e10:	003eac06 	br	258c4 <__alt_data_end+0xfffe58c4>
   25e14:	d9402c17 	ldw	r5,176(sp)
   25e18:	d9801e04 	addi	r6,sp,120
   25e1c:	9809883a 	mov	r4,r19
   25e20:	002d6c80 	call	2d6c8 <__ssprint_r>
   25e24:	103b801e 	bne	r2,zero,24c28 <__alt_data_end+0xfffe4c28>
   25e28:	d8c02017 	ldw	r3,128(sp)
   25e2c:	dc401f17 	ldw	r17,124(sp)
   25e30:	da000404 	addi	r8,sp,16
   25e34:	003e8406 	br	25848 <__alt_data_end+0xfffe5848>
   25e38:	d9402c17 	ldw	r5,176(sp)
   25e3c:	d9801e04 	addi	r6,sp,120
   25e40:	9809883a 	mov	r4,r19
   25e44:	002d6c80 	call	2d6c8 <__ssprint_r>
   25e48:	103b771e 	bne	r2,zero,24c28 <__alt_data_end+0xfffe4c28>
   25e4c:	d8c02017 	ldw	r3,128(sp)
   25e50:	dc401f17 	ldw	r17,124(sp)
   25e54:	dd800404 	addi	r22,sp,16
   25e58:	003e8606 	br	25874 <__alt_data_end+0xfffe5874>
   25e5c:	0029883a 	mov	r20,zero
   25e60:	a5000c04 	addi	r20,r20,48
   25e64:	dc001dc4 	addi	r16,sp,119
   25e68:	dd001dc5 	stb	r20,119(sp)
   25e6c:	003f3806 	br	25b50 <__alt_data_end+0xfffe5b50>
   25e70:	d9402c17 	ldw	r5,176(sp)
   25e74:	d9801e04 	addi	r6,sp,120
   25e78:	9809883a 	mov	r4,r19
   25e7c:	002d6c80 	call	2d6c8 <__ssprint_r>
   25e80:	103b691e 	bne	r2,zero,24c28 <__alt_data_end+0xfffe4c28>
   25e84:	d8c02017 	ldw	r3,128(sp)
   25e88:	da000404 	addi	r8,sp,16
   25e8c:	003c9506 	br	250e4 <__alt_data_end+0xfffe50e4>
   25e90:	d9003617 	ldw	r4,216(sp)
   25e94:	d9403717 	ldw	r5,220(sp)
   25e98:	da003e15 	stw	r8,248(sp)
   25e9c:	002d5780 	call	2d578 <__fpclassifyd>
   25ea0:	da003e17 	ldw	r8,248(sp)
   25ea4:	1000bd1e 	bne	r2,zero,2619c <___svfprintf_internal_r+0x1908>
   25ea8:	008011c4 	movi	r2,71
   25eac:	14411e0e 	bge	r2,r17,26328 <___svfprintf_internal_r+0x1a94>
   25eb0:	040000f4 	movhi	r16,3
   25eb4:	84153704 	addi	r16,r16,21724
   25eb8:	00c000c4 	movi	r3,3
   25ebc:	00bfdfc4 	movi	r2,-129
   25ec0:	d8c02a15 	stw	r3,168(sp)
   25ec4:	90a4703a 	and	r18,r18,r2
   25ec8:	df002783 	ldbu	fp,158(sp)
   25ecc:	d8c02e15 	stw	r3,184(sp)
   25ed0:	d8002915 	stw	zero,164(sp)
   25ed4:	d8003215 	stw	zero,200(sp)
   25ed8:	003c1c06 	br	24f4c <__alt_data_end+0xfffe4f4c>
   25edc:	9080100c 	andi	r2,r18,64
   25ee0:	d8002785 	stb	zero,158(sp)
   25ee4:	10009426 	beq	r2,zero,26138 <___svfprintf_internal_r+0x18a4>
   25ee8:	d8c02d17 	ldw	r3,180(sp)
   25eec:	d9002917 	ldw	r4,164(sp)
   25ef0:	002d883a 	mov	r22,zero
   25ef4:	18800104 	addi	r2,r3,4
   25ef8:	1d00000b 	ldhu	r20,0(r3)
   25efc:	203ec10e 	bge	r4,zero,25a04 <__alt_data_end+0xfffe5a04>
   25f00:	a586b03a 	or	r3,r20,r22
   25f04:	d8802d15 	stw	r2,180(sp)
   25f08:	183ec21e 	bne	r3,zero,25a14 <__alt_data_end+0xfffe5a14>
   25f0c:	0039883a 	mov	fp,zero
   25f10:	0005883a 	mov	r2,zero
   25f14:	003db806 	br	255f8 <__alt_data_end+0xfffe55f8>
   25f18:	d8802d17 	ldw	r2,180(sp)
   25f1c:	d8c02d17 	ldw	r3,180(sp)
   25f20:	d9002d17 	ldw	r4,180(sp)
   25f24:	10800017 	ldw	r2,0(r2)
   25f28:	18c00117 	ldw	r3,4(r3)
   25f2c:	21000204 	addi	r4,r4,8
   25f30:	d8803615 	stw	r2,216(sp)
   25f34:	d8c03715 	stw	r3,220(sp)
   25f38:	d9002d15 	stw	r4,180(sp)
   25f3c:	003b8206 	br	24d48 <__alt_data_end+0xfffe4d48>
   25f40:	9080100c 	andi	r2,r18,64
   25f44:	10010726 	beq	r2,zero,26364 <___svfprintf_internal_r+0x1ad0>
   25f48:	d8c02d17 	ldw	r3,180(sp)
   25f4c:	1d00000f 	ldh	r20,0(r3)
   25f50:	18c00104 	addi	r3,r3,4
   25f54:	d8c02d15 	stw	r3,180(sp)
   25f58:	a02dd7fa 	srai	r22,r20,31
   25f5c:	b005883a 	mov	r2,r22
   25f60:	003ba206 	br	24dec <__alt_data_end+0xfffe4dec>
   25f64:	9080100c 	andi	r2,r18,64
   25f68:	10010526 	beq	r2,zero,26380 <___svfprintf_internal_r+0x1aec>
   25f6c:	d9002d17 	ldw	r4,180(sp)
   25f70:	002d883a 	mov	r22,zero
   25f74:	2500000b 	ldhu	r20,0(r4)
   25f78:	21000104 	addi	r4,r4,4
   25f7c:	d9002d15 	stw	r4,180(sp)
   25f80:	003cfe06 	br	2537c <__alt_data_end+0xfffe537c>
   25f84:	bc400007 	ldb	r17,0(r23)
   25f88:	003a9606 	br	249e4 <__alt_data_end+0xfffe49e4>
   25f8c:	9080040c 	andi	r2,r18,16
   25f90:	10010126 	beq	r2,zero,26398 <___svfprintf_internal_r+0x1b04>
   25f94:	d9402d17 	ldw	r5,180(sp)
   25f98:	d8c02f17 	ldw	r3,188(sp)
   25f9c:	28800017 	ldw	r2,0(r5)
   25fa0:	29400104 	addi	r5,r5,4
   25fa4:	d9402d15 	stw	r5,180(sp)
   25fa8:	10c00015 	stw	r3,0(r2)
   25fac:	003a6406 	br	24940 <__alt_data_end+0xfffe4940>
   25fb0:	d9002917 	ldw	r4,164(sp)
   25fb4:	d8002785 	stb	zero,158(sp)
   25fb8:	203d8d16 	blt	r4,zero,255f0 <__alt_data_end+0xfffe55f0>
   25fbc:	00bfdfc4 	movi	r2,-129
   25fc0:	90a4703a 	and	r18,r18,r2
   25fc4:	003b0506 	br	24bdc <__alt_data_end+0xfffe4bdc>
   25fc8:	014000f4 	movhi	r5,3
   25fcc:	29554484 	addi	r5,r5,21778
   25fd0:	d9402b15 	stw	r5,172(sp)
   25fd4:	d9402b17 	ldw	r5,172(sp)
   25fd8:	1c47883a 	add	r3,r3,r17
   25fdc:	10800044 	addi	r2,r2,1
   25fe0:	41400015 	stw	r5,0(r8)
   25fe4:	44400115 	stw	r17,4(r8)
   25fe8:	d8c02015 	stw	r3,128(sp)
   25fec:	d8801f15 	stw	r2,124(sp)
   25ff0:	010001c4 	movi	r4,7
   25ff4:	20bf3016 	blt	r4,r2,25cb8 <__alt_data_end+0xfffe5cb8>
   25ff8:	42000204 	addi	r8,r8,8
   25ffc:	003f3506 	br	25cd4 <__alt_data_end+0xfffe5cd4>
   26000:	010000f4 	movhi	r4,3
   26004:	21154484 	addi	r4,r4,21778
   26008:	d9002b15 	stw	r4,172(sp)
   2600c:	003c5e06 	br	25188 <__alt_data_end+0xfffe5188>
   26010:	d9402c17 	ldw	r5,176(sp)
   26014:	d9801e04 	addi	r6,sp,120
   26018:	9809883a 	mov	r4,r19
   2601c:	002d6c80 	call	2d6c8 <__ssprint_r>
   26020:	103b011e 	bne	r2,zero,24c28 <__alt_data_end+0xfffe4c28>
   26024:	d8c02017 	ldw	r3,128(sp)
   26028:	da000404 	addi	r8,sp,16
   2602c:	003d9306 	br	2567c <__alt_data_end+0xfffe567c>
   26030:	d8801f17 	ldw	r2,124(sp)
   26034:	014000f4 	movhi	r5,3
   26038:	01000044 	movi	r4,1
   2603c:	18c00044 	addi	r3,r3,1
   26040:	10800044 	addi	r2,r2,1
   26044:	29554404 	addi	r5,r5,21776
   26048:	41000115 	stw	r4,4(r8)
   2604c:	41400015 	stw	r5,0(r8)
   26050:	d8c02015 	stw	r3,128(sp)
   26054:	d8801f15 	stw	r2,124(sp)
   26058:	010001c4 	movi	r4,7
   2605c:	2080b516 	blt	r4,r2,26334 <___svfprintf_internal_r+0x1aa0>
   26060:	42000204 	addi	r8,r8,8
   26064:	8800041e 	bne	r17,zero,26078 <___svfprintf_internal_r+0x17e4>
   26068:	d8803317 	ldw	r2,204(sp)
   2606c:	1000021e 	bne	r2,zero,26078 <___svfprintf_internal_r+0x17e4>
   26070:	9080004c 	andi	r2,r18,1
   26074:	103c5b26 	beq	r2,zero,251e4 <__alt_data_end+0xfffe51e4>
   26078:	d9003817 	ldw	r4,224(sp)
   2607c:	d8801f17 	ldw	r2,124(sp)
   26080:	d9403417 	ldw	r5,208(sp)
   26084:	20c7883a 	add	r3,r4,r3
   26088:	10800044 	addi	r2,r2,1
   2608c:	41000115 	stw	r4,4(r8)
   26090:	41400015 	stw	r5,0(r8)
   26094:	d8c02015 	stw	r3,128(sp)
   26098:	d8801f15 	stw	r2,124(sp)
   2609c:	010001c4 	movi	r4,7
   260a0:	20818016 	blt	r4,r2,266a4 <___svfprintf_internal_r+0x1e10>
   260a4:	42000204 	addi	r8,r8,8
   260a8:	0463c83a 	sub	r17,zero,r17
   260ac:	0440cb0e 	bge	zero,r17,263dc <___svfprintf_internal_r+0x1b48>
   260b0:	05800404 	movi	r22,16
   260b4:	b440e80e 	bge	r22,r17,26458 <___svfprintf_internal_r+0x1bc4>
   260b8:	014000f4 	movhi	r5,3
   260bc:	29554484 	addi	r5,r5,21778
   260c0:	d9402b15 	stw	r5,172(sp)
   260c4:	070001c4 	movi	fp,7
   260c8:	dd002c17 	ldw	r20,176(sp)
   260cc:	00000306 	br	260dc <___svfprintf_internal_r+0x1848>
   260d0:	42000204 	addi	r8,r8,8
   260d4:	8c7ffc04 	addi	r17,r17,-16
   260d8:	b440e20e 	bge	r22,r17,26464 <___svfprintf_internal_r+0x1bd0>
   260dc:	18c00404 	addi	r3,r3,16
   260e0:	10800044 	addi	r2,r2,1
   260e4:	45400015 	stw	r21,0(r8)
   260e8:	45800115 	stw	r22,4(r8)
   260ec:	d8c02015 	stw	r3,128(sp)
   260f0:	d8801f15 	stw	r2,124(sp)
   260f4:	e0bff60e 	bge	fp,r2,260d0 <__alt_data_end+0xfffe60d0>
   260f8:	d9801e04 	addi	r6,sp,120
   260fc:	a00b883a 	mov	r5,r20
   26100:	9809883a 	mov	r4,r19
   26104:	002d6c80 	call	2d6c8 <__ssprint_r>
   26108:	103ac71e 	bne	r2,zero,24c28 <__alt_data_end+0xfffe4c28>
   2610c:	d8c02017 	ldw	r3,128(sp)
   26110:	d8801f17 	ldw	r2,124(sp)
   26114:	da000404 	addi	r8,sp,16
   26118:	003fee06 	br	260d4 <__alt_data_end+0xfffe60d4>
   2611c:	d8c02d17 	ldw	r3,180(sp)
   26120:	d9002917 	ldw	r4,164(sp)
   26124:	002d883a 	mov	r22,zero
   26128:	18800104 	addi	r2,r3,4
   2612c:	1d000017 	ldw	r20,0(r3)
   26130:	203e7d0e 	bge	r4,zero,25b28 <__alt_data_end+0xfffe5b28>
   26134:	003eda06 	br	25ca0 <__alt_data_end+0xfffe5ca0>
   26138:	d9402d17 	ldw	r5,180(sp)
   2613c:	d8c02917 	ldw	r3,164(sp)
   26140:	002d883a 	mov	r22,zero
   26144:	28800104 	addi	r2,r5,4
   26148:	2d000017 	ldw	r20,0(r5)
   2614c:	183e2d0e 	bge	r3,zero,25a04 <__alt_data_end+0xfffe5a04>
   26150:	003f6b06 	br	25f00 <__alt_data_end+0xfffe5f00>
   26154:	d8c02d15 	stw	r3,180(sp)
   26158:	0039883a 	mov	fp,zero
   2615c:	003ed206 	br	25ca8 <__alt_data_end+0xfffe5ca8>
   26160:	bc400043 	ldbu	r17,1(r23)
   26164:	94800814 	ori	r18,r18,32
   26168:	bdc00044 	addi	r23,r23,1
   2616c:	8c403fcc 	andi	r17,r17,255
   26170:	8c40201c 	xori	r17,r17,128
   26174:	8c7fe004 	addi	r17,r17,-128
   26178:	003a1a06 	br	249e4 <__alt_data_end+0xfffe49e4>
   2617c:	d9402c17 	ldw	r5,176(sp)
   26180:	d9801e04 	addi	r6,sp,120
   26184:	9809883a 	mov	r4,r19
   26188:	002d6c80 	call	2d6c8 <__ssprint_r>
   2618c:	103aa61e 	bne	r2,zero,24c28 <__alt_data_end+0xfffe4c28>
   26190:	d8c02017 	ldw	r3,128(sp)
   26194:	da000404 	addi	r8,sp,16
   26198:	003d4a06 	br	256c4 <__alt_data_end+0xfffe56c4>
   2619c:	d9002917 	ldw	r4,164(sp)
   261a0:	05bff7c4 	movi	r22,-33
   261a4:	00bfffc4 	movi	r2,-1
   261a8:	8dac703a 	and	r22,r17,r22
   261ac:	20806a26 	beq	r4,r2,26358 <___svfprintf_internal_r+0x1ac4>
   261b0:	008011c4 	movi	r2,71
   261b4:	b0813726 	beq	r22,r2,26694 <___svfprintf_internal_r+0x1e00>
   261b8:	d9003717 	ldw	r4,220(sp)
   261bc:	90c04014 	ori	r3,r18,256
   261c0:	d8c02b15 	stw	r3,172(sp)
   261c4:	20015d16 	blt	r4,zero,2673c <___svfprintf_internal_r+0x1ea8>
   261c8:	dd003717 	ldw	r20,220(sp)
   261cc:	d8002a05 	stb	zero,168(sp)
   261d0:	00801984 	movi	r2,102
   261d4:	88814026 	beq	r17,r2,266d8 <___svfprintf_internal_r+0x1e44>
   261d8:	00801184 	movi	r2,70
   261dc:	88817126 	beq	r17,r2,267a4 <___svfprintf_internal_r+0x1f10>
   261e0:	00801144 	movi	r2,69
   261e4:	b0816226 	beq	r22,r2,26770 <___svfprintf_internal_r+0x1edc>
   261e8:	d8c02917 	ldw	r3,164(sp)
   261ec:	d8802104 	addi	r2,sp,132
   261f0:	d8800315 	stw	r2,12(sp)
   261f4:	d9403617 	ldw	r5,216(sp)
   261f8:	d8802504 	addi	r2,sp,148
   261fc:	d8800215 	stw	r2,8(sp)
   26200:	d8802604 	addi	r2,sp,152
   26204:	d8c00015 	stw	r3,0(sp)
   26208:	d8800115 	stw	r2,4(sp)
   2620c:	01c00084 	movi	r7,2
   26210:	a00d883a 	mov	r6,r20
   26214:	9809883a 	mov	r4,r19
   26218:	d8c03d15 	stw	r3,244(sp)
   2621c:	da003e15 	stw	r8,248(sp)
   26220:	00291440 	call	29144 <_dtoa_r>
   26224:	1021883a 	mov	r16,r2
   26228:	008019c4 	movi	r2,103
   2622c:	d8c03d17 	ldw	r3,244(sp)
   26230:	da003e17 	ldw	r8,248(sp)
   26234:	8880e726 	beq	r17,r2,265d4 <___svfprintf_internal_r+0x1d40>
   26238:	008011c4 	movi	r2,71
   2623c:	8880d426 	beq	r17,r2,26590 <___svfprintf_internal_r+0x1cfc>
   26240:	80f9883a 	add	fp,r16,r3
   26244:	d9003617 	ldw	r4,216(sp)
   26248:	000d883a 	mov	r6,zero
   2624c:	000f883a 	mov	r7,zero
   26250:	a00b883a 	mov	r5,r20
   26254:	da003e15 	stw	r8,248(sp)
   26258:	00324700 	call	32470 <__eqdf2>
   2625c:	da003e17 	ldw	r8,248(sp)
   26260:	1000e426 	beq	r2,zero,265f4 <___svfprintf_internal_r+0x1d60>
   26264:	d8802117 	ldw	r2,132(sp)
   26268:	1700062e 	bgeu	r2,fp,26284 <___svfprintf_internal_r+0x19f0>
   2626c:	01000c04 	movi	r4,48
   26270:	10c00044 	addi	r3,r2,1
   26274:	d8c02115 	stw	r3,132(sp)
   26278:	11000005 	stb	r4,0(r2)
   2627c:	d8802117 	ldw	r2,132(sp)
   26280:	173ffb36 	bltu	r2,fp,26270 <__alt_data_end+0xfffe6270>
   26284:	1405c83a 	sub	r2,r2,r16
   26288:	d8803315 	stw	r2,204(sp)
   2628c:	008011c4 	movi	r2,71
   26290:	b080c526 	beq	r22,r2,265a8 <___svfprintf_internal_r+0x1d14>
   26294:	00801944 	movi	r2,101
   26298:	1441d90e 	bge	r2,r17,26a00 <___svfprintf_internal_r+0x216c>
   2629c:	d8c02617 	ldw	r3,152(sp)
   262a0:	00801984 	movi	r2,102
   262a4:	d8c03215 	stw	r3,200(sp)
   262a8:	88813426 	beq	r17,r2,2677c <___svfprintf_internal_r+0x1ee8>
   262ac:	d8c03217 	ldw	r3,200(sp)
   262b0:	d9003317 	ldw	r4,204(sp)
   262b4:	19012516 	blt	r3,r4,2674c <___svfprintf_internal_r+0x1eb8>
   262b8:	9480004c 	andi	r18,r18,1
   262bc:	9001841e 	bne	r18,zero,268d0 <___svfprintf_internal_r+0x203c>
   262c0:	1805883a 	mov	r2,r3
   262c4:	1801cc16 	blt	r3,zero,269f8 <___svfprintf_internal_r+0x2164>
   262c8:	d8c03217 	ldw	r3,200(sp)
   262cc:	044019c4 	movi	r17,103
   262d0:	d8c02e15 	stw	r3,184(sp)
   262d4:	df002a07 	ldb	fp,168(sp)
   262d8:	e000a61e 	bne	fp,zero,26574 <___svfprintf_internal_r+0x1ce0>
   262dc:	df002783 	ldbu	fp,158(sp)
   262e0:	d8802a15 	stw	r2,168(sp)
   262e4:	dc802b17 	ldw	r18,172(sp)
   262e8:	d8002915 	stw	zero,164(sp)
   262ec:	003b1706 	br	24f4c <__alt_data_end+0xfffe4f4c>
   262f0:	040000f4 	movhi	r16,3
   262f4:	84153404 	addi	r16,r16,21712
   262f8:	003aa606 	br	24d94 <__alt_data_end+0xfffe4d94>
   262fc:	d9003917 	ldw	r4,228(sp)
   26300:	04001004 	movi	r16,64
   26304:	800b883a 	mov	r5,r16
   26308:	00237440 	call	23744 <_malloc_r>
   2630c:	d9002c17 	ldw	r4,176(sp)
   26310:	20800015 	stw	r2,0(r4)
   26314:	20800415 	stw	r2,16(r4)
   26318:	1001cb26 	beq	r2,zero,26a48 <___svfprintf_internal_r+0x21b4>
   2631c:	d8802c17 	ldw	r2,176(sp)
   26320:	14000515 	stw	r16,20(r2)
   26324:	00397606 	br	24900 <__alt_data_end+0xfffe4900>
   26328:	040000f4 	movhi	r16,3
   2632c:	84153604 	addi	r16,r16,21720
   26330:	003ee106 	br	25eb8 <__alt_data_end+0xfffe5eb8>
   26334:	d9402c17 	ldw	r5,176(sp)
   26338:	d9801e04 	addi	r6,sp,120
   2633c:	9809883a 	mov	r4,r19
   26340:	002d6c80 	call	2d6c8 <__ssprint_r>
   26344:	103a381e 	bne	r2,zero,24c28 <__alt_data_end+0xfffe4c28>
   26348:	dc402617 	ldw	r17,152(sp)
   2634c:	d8c02017 	ldw	r3,128(sp)
   26350:	da000404 	addi	r8,sp,16
   26354:	003f4306 	br	26064 <__alt_data_end+0xfffe6064>
   26358:	01400184 	movi	r5,6
   2635c:	d9402915 	stw	r5,164(sp)
   26360:	003f9506 	br	261b8 <__alt_data_end+0xfffe61b8>
   26364:	d9002d17 	ldw	r4,180(sp)
   26368:	25000017 	ldw	r20,0(r4)
   2636c:	21000104 	addi	r4,r4,4
   26370:	d9002d15 	stw	r4,180(sp)
   26374:	a02dd7fa 	srai	r22,r20,31
   26378:	b005883a 	mov	r2,r22
   2637c:	003a9b06 	br	24dec <__alt_data_end+0xfffe4dec>
   26380:	d9402d17 	ldw	r5,180(sp)
   26384:	002d883a 	mov	r22,zero
   26388:	2d000017 	ldw	r20,0(r5)
   2638c:	29400104 	addi	r5,r5,4
   26390:	d9402d15 	stw	r5,180(sp)
   26394:	003bf906 	br	2537c <__alt_data_end+0xfffe537c>
   26398:	9480100c 	andi	r18,r18,64
   2639c:	90006e26 	beq	r18,zero,26558 <___svfprintf_internal_r+0x1cc4>
   263a0:	d9002d17 	ldw	r4,180(sp)
   263a4:	d9402f17 	ldw	r5,188(sp)
   263a8:	20800017 	ldw	r2,0(r4)
   263ac:	21000104 	addi	r4,r4,4
   263b0:	d9002d15 	stw	r4,180(sp)
   263b4:	1140000d 	sth	r5,0(r2)
   263b8:	00396106 	br	24940 <__alt_data_end+0xfffe4940>
   263bc:	d9402c17 	ldw	r5,176(sp)
   263c0:	d9801e04 	addi	r6,sp,120
   263c4:	9809883a 	mov	r4,r19
   263c8:	002d6c80 	call	2d6c8 <__ssprint_r>
   263cc:	103a161e 	bne	r2,zero,24c28 <__alt_data_end+0xfffe4c28>
   263d0:	d8c02017 	ldw	r3,128(sp)
   263d4:	d8801f17 	ldw	r2,124(sp)
   263d8:	da000404 	addi	r8,sp,16
   263dc:	d9403317 	ldw	r5,204(sp)
   263e0:	10800044 	addi	r2,r2,1
   263e4:	44000015 	stw	r16,0(r8)
   263e8:	28c7883a 	add	r3,r5,r3
   263ec:	003b7706 	br	251cc <__alt_data_end+0xfffe51cc>
   263f0:	8009883a 	mov	r4,r16
   263f4:	da003e15 	stw	r8,248(sp)
   263f8:	00247fc0 	call	247fc <strlen>
   263fc:	d8802e15 	stw	r2,184(sp)
   26400:	da003e17 	ldw	r8,248(sp)
   26404:	103c280e 	bge	r2,zero,254a8 <__alt_data_end+0xfffe54a8>
   26408:	0005883a 	mov	r2,zero
   2640c:	003c2606 	br	254a8 <__alt_data_end+0xfffe54a8>
   26410:	00bfffc4 	movi	r2,-1
   26414:	003a0906 	br	24c3c <__alt_data_end+0xfffe4c3c>
   26418:	010000f4 	movhi	r4,3
   2641c:	21154884 	addi	r4,r4,21794
   26420:	d9003515 	stw	r4,212(sp)
   26424:	003b0606 	br	25040 <__alt_data_end+0xfffe5040>
   26428:	013fffc4 	movi	r4,-1
   2642c:	003a2706 	br	24ccc <__alt_data_end+0xfffe4ccc>
   26430:	d9402c17 	ldw	r5,176(sp)
   26434:	d9801e04 	addi	r6,sp,120
   26438:	9809883a 	mov	r4,r19
   2643c:	002d6c80 	call	2d6c8 <__ssprint_r>
   26440:	1039f91e 	bne	r2,zero,24c28 <__alt_data_end+0xfffe4c28>
   26444:	d8c02017 	ldw	r3,128(sp)
   26448:	da000404 	addi	r8,sp,16
   2644c:	003d8406 	br	25a60 <__alt_data_end+0xfffe5a60>
   26450:	0023883a 	mov	r17,zero
   26454:	003d8306 	br	25a64 <__alt_data_end+0xfffe5a64>
   26458:	010000f4 	movhi	r4,3
   2645c:	21154484 	addi	r4,r4,21778
   26460:	d9002b15 	stw	r4,172(sp)
   26464:	d9002b17 	ldw	r4,172(sp)
   26468:	1c47883a 	add	r3,r3,r17
   2646c:	10800044 	addi	r2,r2,1
   26470:	41000015 	stw	r4,0(r8)
   26474:	44400115 	stw	r17,4(r8)
   26478:	d8c02015 	stw	r3,128(sp)
   2647c:	d8801f15 	stw	r2,124(sp)
   26480:	010001c4 	movi	r4,7
   26484:	20bfcd16 	blt	r4,r2,263bc <__alt_data_end+0xfffe63bc>
   26488:	42000204 	addi	r8,r8,8
   2648c:	003fd306 	br	263dc <__alt_data_end+0xfffe63dc>
   26490:	d9402c17 	ldw	r5,176(sp)
   26494:	d9801e04 	addi	r6,sp,120
   26498:	9809883a 	mov	r4,r19
   2649c:	002d6c80 	call	2d6c8 <__ssprint_r>
   264a0:	1039e11e 	bne	r2,zero,24c28 <__alt_data_end+0xfffe4c28>
   264a4:	d8802617 	ldw	r2,152(sp)
   264a8:	d8c02017 	ldw	r3,128(sp)
   264ac:	da000404 	addi	r8,sp,16
   264b0:	003e1c06 	br	25d24 <__alt_data_end+0xfffe5d24>
   264b4:	d8802917 	ldw	r2,164(sp)
   264b8:	00c00184 	movi	r3,6
   264bc:	1880012e 	bgeu	r3,r2,264c4 <___svfprintf_internal_r+0x1c30>
   264c0:	1805883a 	mov	r2,r3
   264c4:	d8802e15 	stw	r2,184(sp)
   264c8:	1000f316 	blt	r2,zero,26898 <___svfprintf_internal_r+0x2004>
   264cc:	040000f4 	movhi	r16,3
   264d0:	d8802a15 	stw	r2,168(sp)
   264d4:	dd002d15 	stw	r20,180(sp)
   264d8:	d8002915 	stw	zero,164(sp)
   264dc:	d8003215 	stw	zero,200(sp)
   264e0:	84154204 	addi	r16,r16,21768
   264e4:	0039883a 	mov	fp,zero
   264e8:	003a9f06 	br	24f68 <__alt_data_end+0xfffe4f68>
   264ec:	010000f4 	movhi	r4,3
   264f0:	21154884 	addi	r4,r4,21794
   264f4:	d9003515 	stw	r4,212(sp)
   264f8:	003b5f06 	br	25278 <__alt_data_end+0xfffe5278>
   264fc:	d9402c17 	ldw	r5,176(sp)
   26500:	d9801e04 	addi	r6,sp,120
   26504:	9809883a 	mov	r4,r19
   26508:	002d6c80 	call	2d6c8 <__ssprint_r>
   2650c:	1039c61e 	bne	r2,zero,24c28 <__alt_data_end+0xfffe4c28>
   26510:	d8802617 	ldw	r2,152(sp)
   26514:	d9403317 	ldw	r5,204(sp)
   26518:	d8c02017 	ldw	r3,128(sp)
   2651c:	da000404 	addi	r8,sp,16
   26520:	2885c83a 	sub	r2,r5,r2
   26524:	003e1006 	br	25d68 <__alt_data_end+0xfffe5d68>
   26528:	00800044 	movi	r2,1
   2652c:	10803fcc 	andi	r2,r2,255
   26530:	00c00044 	movi	r3,1
   26534:	10fa3526 	beq	r2,r3,24e0c <__alt_data_end+0xfffe4e0c>
   26538:	00c00084 	movi	r3,2
   2653c:	10fb9e26 	beq	r2,r3,253b8 <__alt_data_end+0xfffe53b8>
   26540:	003a6406 	br	24ed4 <__alt_data_end+0xfffe4ed4>
   26544:	0021883a 	mov	r16,zero
   26548:	003e0806 	br	25d6c <__alt_data_end+0xfffe5d6c>
   2654c:	07000b44 	movi	fp,45
   26550:	df002785 	stb	fp,158(sp)
   26554:	003a0b06 	br	24d84 <__alt_data_end+0xfffe4d84>
   26558:	d8c02d17 	ldw	r3,180(sp)
   2655c:	d9002f17 	ldw	r4,188(sp)
   26560:	18800017 	ldw	r2,0(r3)
   26564:	18c00104 	addi	r3,r3,4
   26568:	d8c02d15 	stw	r3,180(sp)
   2656c:	11000015 	stw	r4,0(r2)
   26570:	0038f306 	br	24940 <__alt_data_end+0xfffe4940>
   26574:	00c00b44 	movi	r3,45
   26578:	d8c02785 	stb	r3,158(sp)
   2657c:	d8802a15 	stw	r2,168(sp)
   26580:	dc802b17 	ldw	r18,172(sp)
   26584:	d8002915 	stw	zero,164(sp)
   26588:	07000b44 	movi	fp,45
   2658c:	003a7306 	br	24f5c <__alt_data_end+0xfffe4f5c>
   26590:	9080004c 	andi	r2,r18,1
   26594:	1000941e 	bne	r2,zero,267e8 <___svfprintf_internal_r+0x1f54>
   26598:	d8802117 	ldw	r2,132(sp)
   2659c:	1405c83a 	sub	r2,r2,r16
   265a0:	d8803315 	stw	r2,204(sp)
   265a4:	b441161e 	bne	r22,r17,26a00 <___svfprintf_internal_r+0x216c>
   265a8:	dd802617 	ldw	r22,152(sp)
   265ac:	00bfff44 	movi	r2,-3
   265b0:	b0801a16 	blt	r22,r2,2661c <___svfprintf_internal_r+0x1d88>
   265b4:	d9402917 	ldw	r5,164(sp)
   265b8:	2d801816 	blt	r5,r22,2661c <___svfprintf_internal_r+0x1d88>
   265bc:	dd803215 	stw	r22,200(sp)
   265c0:	003f3a06 	br	262ac <__alt_data_end+0xfffe62ac>
   265c4:	1025883a 	mov	r18,r2
   265c8:	0039883a 	mov	fp,zero
   265cc:	00800084 	movi	r2,2
   265d0:	003fd606 	br	2652c <__alt_data_end+0xfffe652c>
   265d4:	9080004c 	andi	r2,r18,1
   265d8:	103f191e 	bne	r2,zero,26240 <__alt_data_end+0xfffe6240>
   265dc:	d8802117 	ldw	r2,132(sp)
   265e0:	003f2806 	br	26284 <__alt_data_end+0xfffe6284>
   265e4:	010000f4 	movhi	r4,3
   265e8:	21154484 	addi	r4,r4,21778
   265ec:	d9002b15 	stw	r4,172(sp)
   265f0:	003c7c06 	br	257e4 <__alt_data_end+0xfffe57e4>
   265f4:	e005883a 	mov	r2,fp
   265f8:	003f2206 	br	26284 <__alt_data_end+0xfffe6284>
   265fc:	d9402917 	ldw	r5,164(sp)
   26600:	df002783 	ldbu	fp,158(sp)
   26604:	dd002d15 	stw	r20,180(sp)
   26608:	d9402a15 	stw	r5,168(sp)
   2660c:	d9402e15 	stw	r5,184(sp)
   26610:	d8002915 	stw	zero,164(sp)
   26614:	d8003215 	stw	zero,200(sp)
   26618:	003a4c06 	br	24f4c <__alt_data_end+0xfffe4f4c>
   2661c:	8c7fff84 	addi	r17,r17,-2
   26620:	b5bfffc4 	addi	r22,r22,-1
   26624:	dd802615 	stw	r22,152(sp)
   26628:	dc4022c5 	stb	r17,139(sp)
   2662c:	b000c316 	blt	r22,zero,2693c <___svfprintf_internal_r+0x20a8>
   26630:	00800ac4 	movi	r2,43
   26634:	d8802305 	stb	r2,140(sp)
   26638:	00800244 	movi	r2,9
   2663c:	15806e16 	blt	r2,r22,267f8 <___svfprintf_internal_r+0x1f64>
   26640:	00800c04 	movi	r2,48
   26644:	b5800c04 	addi	r22,r22,48
   26648:	d8802345 	stb	r2,141(sp)
   2664c:	dd802385 	stb	r22,142(sp)
   26650:	d88023c4 	addi	r2,sp,143
   26654:	df0022c4 	addi	fp,sp,139
   26658:	d8c03317 	ldw	r3,204(sp)
   2665c:	1739c83a 	sub	fp,r2,fp
   26660:	d9003317 	ldw	r4,204(sp)
   26664:	e0c7883a 	add	r3,fp,r3
   26668:	df003b15 	stw	fp,236(sp)
   2666c:	d8c02e15 	stw	r3,184(sp)
   26670:	00800044 	movi	r2,1
   26674:	1100b70e 	bge	r2,r4,26954 <___svfprintf_internal_r+0x20c0>
   26678:	d8c02e17 	ldw	r3,184(sp)
   2667c:	18c00044 	addi	r3,r3,1
   26680:	d8c02e15 	stw	r3,184(sp)
   26684:	1805883a 	mov	r2,r3
   26688:	1800b016 	blt	r3,zero,2694c <___svfprintf_internal_r+0x20b8>
   2668c:	d8003215 	stw	zero,200(sp)
   26690:	003f1006 	br	262d4 <__alt_data_end+0xfffe62d4>
   26694:	d8802917 	ldw	r2,164(sp)
   26698:	103ec71e 	bne	r2,zero,261b8 <__alt_data_end+0xfffe61b8>
   2669c:	dc002915 	stw	r16,164(sp)
   266a0:	003ec506 	br	261b8 <__alt_data_end+0xfffe61b8>
   266a4:	d9402c17 	ldw	r5,176(sp)
   266a8:	d9801e04 	addi	r6,sp,120
   266ac:	9809883a 	mov	r4,r19
   266b0:	002d6c80 	call	2d6c8 <__ssprint_r>
   266b4:	10395c1e 	bne	r2,zero,24c28 <__alt_data_end+0xfffe4c28>
   266b8:	dc402617 	ldw	r17,152(sp)
   266bc:	d8c02017 	ldw	r3,128(sp)
   266c0:	d8801f17 	ldw	r2,124(sp)
   266c4:	da000404 	addi	r8,sp,16
   266c8:	003e7706 	br	260a8 <__alt_data_end+0xfffe60a8>
   266cc:	582f883a 	mov	r23,r11
   266d0:	d8002915 	stw	zero,164(sp)
   266d4:	0038c406 	br	249e8 <__alt_data_end+0xfffe49e8>
   266d8:	d8c02917 	ldw	r3,164(sp)
   266dc:	d8802104 	addi	r2,sp,132
   266e0:	d8800315 	stw	r2,12(sp)
   266e4:	d9403617 	ldw	r5,216(sp)
   266e8:	d8802504 	addi	r2,sp,148
   266ec:	d8800215 	stw	r2,8(sp)
   266f0:	d8802604 	addi	r2,sp,152
   266f4:	d8c00015 	stw	r3,0(sp)
   266f8:	9809883a 	mov	r4,r19
   266fc:	d8800115 	stw	r2,4(sp)
   26700:	01c000c4 	movi	r7,3
   26704:	a00d883a 	mov	r6,r20
   26708:	da003e15 	stw	r8,248(sp)
   2670c:	00291440 	call	29144 <_dtoa_r>
   26710:	d9002917 	ldw	r4,164(sp)
   26714:	da003e17 	ldw	r8,248(sp)
   26718:	1021883a 	mov	r16,r2
   2671c:	1139883a 	add	fp,r2,r4
   26720:	2007883a 	mov	r3,r4
   26724:	81000007 	ldb	r4,0(r16)
   26728:	00800c04 	movi	r2,48
   2672c:	20806f26 	beq	r4,r2,268ec <___svfprintf_internal_r+0x2058>
   26730:	d8c02617 	ldw	r3,152(sp)
   26734:	e0f9883a 	add	fp,fp,r3
   26738:	003ec206 	br	26244 <__alt_data_end+0xfffe6244>
   2673c:	00c00b44 	movi	r3,45
   26740:	2520003c 	xorhi	r20,r4,32768
   26744:	d8c02a05 	stb	r3,168(sp)
   26748:	003ea106 	br	261d0 <__alt_data_end+0xfffe61d0>
   2674c:	d8c03217 	ldw	r3,200(sp)
   26750:	00c0890e 	bge	zero,r3,26978 <___svfprintf_internal_r+0x20e4>
   26754:	00800044 	movi	r2,1
   26758:	d9003317 	ldw	r4,204(sp)
   2675c:	1105883a 	add	r2,r2,r4
   26760:	d8802e15 	stw	r2,184(sp)
   26764:	10005f16 	blt	r2,zero,268e4 <___svfprintf_internal_r+0x2050>
   26768:	044019c4 	movi	r17,103
   2676c:	003ed906 	br	262d4 <__alt_data_end+0xfffe62d4>
   26770:	d9002917 	ldw	r4,164(sp)
   26774:	20c00044 	addi	r3,r4,1
   26778:	003e9c06 	br	261ec <__alt_data_end+0xfffe61ec>
   2677c:	d9002917 	ldw	r4,164(sp)
   26780:	00c0680e 	bge	zero,r3,26924 <___svfprintf_internal_r+0x2090>
   26784:	2000461e 	bne	r4,zero,268a0 <___svfprintf_internal_r+0x200c>
   26788:	9480004c 	andi	r18,r18,1
   2678c:	9000441e 	bne	r18,zero,268a0 <___svfprintf_internal_r+0x200c>
   26790:	1805883a 	mov	r2,r3
   26794:	1800a016 	blt	r3,zero,26a18 <___svfprintf_internal_r+0x2184>
   26798:	d8c03217 	ldw	r3,200(sp)
   2679c:	d8c02e15 	stw	r3,184(sp)
   267a0:	003ecc06 	br	262d4 <__alt_data_end+0xfffe62d4>
   267a4:	d9402917 	ldw	r5,164(sp)
   267a8:	d8802104 	addi	r2,sp,132
   267ac:	d8800315 	stw	r2,12(sp)
   267b0:	d9400015 	stw	r5,0(sp)
   267b4:	d8802504 	addi	r2,sp,148
   267b8:	d9403617 	ldw	r5,216(sp)
   267bc:	d8800215 	stw	r2,8(sp)
   267c0:	d8802604 	addi	r2,sp,152
   267c4:	d8800115 	stw	r2,4(sp)
   267c8:	01c000c4 	movi	r7,3
   267cc:	a00d883a 	mov	r6,r20
   267d0:	9809883a 	mov	r4,r19
   267d4:	da003e15 	stw	r8,248(sp)
   267d8:	00291440 	call	29144 <_dtoa_r>
   267dc:	d8c02917 	ldw	r3,164(sp)
   267e0:	da003e17 	ldw	r8,248(sp)
   267e4:	1021883a 	mov	r16,r2
   267e8:	00801184 	movi	r2,70
   267ec:	80f9883a 	add	fp,r16,r3
   267f0:	88bfcc26 	beq	r17,r2,26724 <__alt_data_end+0xfffe6724>
   267f4:	003e9306 	br	26244 <__alt_data_end+0xfffe6244>
   267f8:	df0022c4 	addi	fp,sp,139
   267fc:	dc002915 	stw	r16,164(sp)
   26800:	9829883a 	mov	r20,r19
   26804:	e021883a 	mov	r16,fp
   26808:	4027883a 	mov	r19,r8
   2680c:	b009883a 	mov	r4,r22
   26810:	01400284 	movi	r5,10
   26814:	0022d500 	call	22d50 <__modsi3>
   26818:	10800c04 	addi	r2,r2,48
   2681c:	843fffc4 	addi	r16,r16,-1
   26820:	b009883a 	mov	r4,r22
   26824:	01400284 	movi	r5,10
   26828:	80800005 	stb	r2,0(r16)
   2682c:	0022ccc0 	call	22ccc <__divsi3>
   26830:	102d883a 	mov	r22,r2
   26834:	00800244 	movi	r2,9
   26838:	15bff416 	blt	r2,r22,2680c <__alt_data_end+0xfffe680c>
   2683c:	9811883a 	mov	r8,r19
   26840:	b0800c04 	addi	r2,r22,48
   26844:	a027883a 	mov	r19,r20
   26848:	8029883a 	mov	r20,r16
   2684c:	a17fffc4 	addi	r5,r20,-1
   26850:	a0bfffc5 	stb	r2,-1(r20)
   26854:	dc002917 	ldw	r16,164(sp)
   26858:	2f00752e 	bgeu	r5,fp,26a30 <___svfprintf_internal_r+0x219c>
   2685c:	d9c02384 	addi	r7,sp,142
   26860:	3d0fc83a 	sub	r7,r7,r20
   26864:	d9002344 	addi	r4,sp,141
   26868:	e1cf883a 	add	r7,fp,r7
   2686c:	00000106 	br	26874 <___svfprintf_internal_r+0x1fe0>
   26870:	28800003 	ldbu	r2,0(r5)
   26874:	20800005 	stb	r2,0(r4)
   26878:	21000044 	addi	r4,r4,1
   2687c:	29400044 	addi	r5,r5,1
   26880:	21fffb1e 	bne	r4,r7,26870 <__alt_data_end+0xfffe6870>
   26884:	d8802304 	addi	r2,sp,140
   26888:	1505c83a 	sub	r2,r2,r20
   2688c:	d8c02344 	addi	r3,sp,141
   26890:	1885883a 	add	r2,r3,r2
   26894:	003f7006 	br	26658 <__alt_data_end+0xfffe6658>
   26898:	0005883a 	mov	r2,zero
   2689c:	003f0b06 	br	264cc <__alt_data_end+0xfffe64cc>
   268a0:	d9002917 	ldw	r4,164(sp)
   268a4:	d8c03217 	ldw	r3,200(sp)
   268a8:	20800044 	addi	r2,r4,1
   268ac:	1885883a 	add	r2,r3,r2
   268b0:	d8802e15 	stw	r2,184(sp)
   268b4:	103e870e 	bge	r2,zero,262d4 <__alt_data_end+0xfffe62d4>
   268b8:	0005883a 	mov	r2,zero
   268bc:	003e8506 	br	262d4 <__alt_data_end+0xfffe62d4>
   268c0:	010000f4 	movhi	r4,3
   268c4:	21154484 	addi	r4,r4,21778
   268c8:	d9002b15 	stw	r4,172(sp)
   268cc:	003cc506 	br	25be4 <__alt_data_end+0xfffe5be4>
   268d0:	d8c03217 	ldw	r3,200(sp)
   268d4:	18c00044 	addi	r3,r3,1
   268d8:	d8c02e15 	stw	r3,184(sp)
   268dc:	1805883a 	mov	r2,r3
   268e0:	183fa10e 	bge	r3,zero,26768 <__alt_data_end+0xfffe6768>
   268e4:	0005883a 	mov	r2,zero
   268e8:	003f9f06 	br	26768 <__alt_data_end+0xfffe6768>
   268ec:	d9003617 	ldw	r4,216(sp)
   268f0:	000d883a 	mov	r6,zero
   268f4:	000f883a 	mov	r7,zero
   268f8:	a00b883a 	mov	r5,r20
   268fc:	d8c03d15 	stw	r3,244(sp)
   26900:	da003e15 	stw	r8,248(sp)
   26904:	00324700 	call	32470 <__eqdf2>
   26908:	d8c03d17 	ldw	r3,244(sp)
   2690c:	da003e17 	ldw	r8,248(sp)
   26910:	103f8726 	beq	r2,zero,26730 <__alt_data_end+0xfffe6730>
   26914:	00800044 	movi	r2,1
   26918:	10c7c83a 	sub	r3,r2,r3
   2691c:	d8c02615 	stw	r3,152(sp)
   26920:	003f8406 	br	26734 <__alt_data_end+0xfffe6734>
   26924:	20000e1e 	bne	r4,zero,26960 <___svfprintf_internal_r+0x20cc>
   26928:	9480004c 	andi	r18,r18,1
   2692c:	90000c1e 	bne	r18,zero,26960 <___svfprintf_internal_r+0x20cc>
   26930:	00800044 	movi	r2,1
   26934:	d8802e15 	stw	r2,184(sp)
   26938:	003e6606 	br	262d4 <__alt_data_end+0xfffe62d4>
   2693c:	00800b44 	movi	r2,45
   26940:	05adc83a 	sub	r22,zero,r22
   26944:	d8802305 	stb	r2,140(sp)
   26948:	003f3b06 	br	26638 <__alt_data_end+0xfffe6638>
   2694c:	0005883a 	mov	r2,zero
   26950:	003f4e06 	br	2668c <__alt_data_end+0xfffe668c>
   26954:	90a4703a 	and	r18,r18,r2
   26958:	903f4a26 	beq	r18,zero,26684 <__alt_data_end+0xfffe6684>
   2695c:	003f4606 	br	26678 <__alt_data_end+0xfffe6678>
   26960:	d8c02917 	ldw	r3,164(sp)
   26964:	18c00084 	addi	r3,r3,2
   26968:	d8c02e15 	stw	r3,184(sp)
   2696c:	1805883a 	mov	r2,r3
   26970:	183e580e 	bge	r3,zero,262d4 <__alt_data_end+0xfffe62d4>
   26974:	003fd006 	br	268b8 <__alt_data_end+0xfffe68b8>
   26978:	00800084 	movi	r2,2
   2697c:	10c5c83a 	sub	r2,r2,r3
   26980:	003f7506 	br	26758 <__alt_data_end+0xfffe6758>
   26984:	d8802d17 	ldw	r2,180(sp)
   26988:	d9002d17 	ldw	r4,180(sp)
   2698c:	bc400043 	ldbu	r17,1(r23)
   26990:	10800017 	ldw	r2,0(r2)
   26994:	582f883a 	mov	r23,r11
   26998:	d8802915 	stw	r2,164(sp)
   2699c:	20800104 	addi	r2,r4,4
   269a0:	d9002917 	ldw	r4,164(sp)
   269a4:	d8802d15 	stw	r2,180(sp)
   269a8:	203df00e 	bge	r4,zero,2616c <__alt_data_end+0xfffe616c>
   269ac:	8c403fcc 	andi	r17,r17,255
   269b0:	00bfffc4 	movi	r2,-1
   269b4:	8c40201c 	xori	r17,r17,128
   269b8:	d8802915 	stw	r2,164(sp)
   269bc:	8c7fe004 	addi	r17,r17,-128
   269c0:	00380806 	br	249e4 <__alt_data_end+0xfffe49e4>
   269c4:	9080004c 	andi	r2,r18,1
   269c8:	0039883a 	mov	fp,zero
   269cc:	10000726 	beq	r2,zero,269ec <___svfprintf_internal_r+0x2158>
   269d0:	d8c02817 	ldw	r3,160(sp)
   269d4:	dc001dc4 	addi	r16,sp,119
   269d8:	00800c04 	movi	r2,48
   269dc:	1c07c83a 	sub	r3,r3,r16
   269e0:	d8801dc5 	stb	r2,119(sp)
   269e4:	d8c02e15 	stw	r3,184(sp)
   269e8:	00395206 	br	24f34 <__alt_data_end+0xfffe4f34>
   269ec:	d8002e15 	stw	zero,184(sp)
   269f0:	dc001e04 	addi	r16,sp,120
   269f4:	00394f06 	br	24f34 <__alt_data_end+0xfffe4f34>
   269f8:	0005883a 	mov	r2,zero
   269fc:	003e3206 	br	262c8 <__alt_data_end+0xfffe62c8>
   26a00:	dd802617 	ldw	r22,152(sp)
   26a04:	003f0606 	br	26620 <__alt_data_end+0xfffe6620>
   26a08:	d9c02785 	stb	r7,158(sp)
   26a0c:	003a5106 	br	25354 <__alt_data_end+0xfffe5354>
   26a10:	d9c02785 	stb	r7,158(sp)
   26a14:	003a3706 	br	252f4 <__alt_data_end+0xfffe52f4>
   26a18:	0005883a 	mov	r2,zero
   26a1c:	003f5e06 	br	26798 <__alt_data_end+0xfffe6798>
   26a20:	d9c02785 	stb	r7,158(sp)
   26a24:	00391706 	br	24e84 <__alt_data_end+0xfffe4e84>
   26a28:	d9c02785 	stb	r7,158(sp)
   26a2c:	0038e606 	br	24dc8 <__alt_data_end+0xfffe4dc8>
   26a30:	d8802344 	addi	r2,sp,141
   26a34:	003f0806 	br	26658 <__alt_data_end+0xfffe6658>
   26a38:	d9c02785 	stb	r7,158(sp)
   26a3c:	0038b706 	br	24d1c <__alt_data_end+0xfffe4d1c>
   26a40:	d9c02785 	stb	r7,158(sp)
   26a44:	003adc06 	br	255b8 <__alt_data_end+0xfffe55b8>
   26a48:	d9403917 	ldw	r5,228(sp)
   26a4c:	00800304 	movi	r2,12
   26a50:	28800015 	stw	r2,0(r5)
   26a54:	00bfffc4 	movi	r2,-1
   26a58:	00387806 	br	24c3c <__alt_data_end+0xfffe4c3c>
   26a5c:	d9c02785 	stb	r7,158(sp)
   26a60:	003abf06 	br	25560 <__alt_data_end+0xfffe5560>
   26a64:	d9c02785 	stb	r7,158(sp)
   26a68:	003a9b06 	br	254d8 <__alt_data_end+0xfffe54d8>

00026a6c <___vfprintf_internal_r>:
   26a6c:	deffb804 	addi	sp,sp,-288
   26a70:	dfc04715 	stw	ra,284(sp)
   26a74:	ddc04515 	stw	r23,276(sp)
   26a78:	dd404315 	stw	r21,268(sp)
   26a7c:	d9002c15 	stw	r4,176(sp)
   26a80:	282f883a 	mov	r23,r5
   26a84:	302b883a 	mov	r21,r6
   26a88:	d9c02d15 	stw	r7,180(sp)
   26a8c:	df004615 	stw	fp,280(sp)
   26a90:	dd804415 	stw	r22,272(sp)
   26a94:	dd004215 	stw	r20,264(sp)
   26a98:	dcc04115 	stw	r19,260(sp)
   26a9c:	dc804015 	stw	r18,256(sp)
   26aa0:	dc403f15 	stw	r17,252(sp)
   26aa4:	dc003e15 	stw	r16,248(sp)
   26aa8:	002ba380 	call	2ba38 <_localeconv_r>
   26aac:	10800017 	ldw	r2,0(r2)
   26ab0:	1009883a 	mov	r4,r2
   26ab4:	d8803415 	stw	r2,208(sp)
   26ab8:	00247fc0 	call	247fc <strlen>
   26abc:	d8803715 	stw	r2,220(sp)
   26ac0:	d8802c17 	ldw	r2,176(sp)
   26ac4:	10000226 	beq	r2,zero,26ad0 <___vfprintf_internal_r+0x64>
   26ac8:	10800e17 	ldw	r2,56(r2)
   26acc:	1000f926 	beq	r2,zero,26eb4 <___vfprintf_internal_r+0x448>
   26ad0:	b880030b 	ldhu	r2,12(r23)
   26ad4:	10c8000c 	andi	r3,r2,8192
   26ad8:	1800061e 	bne	r3,zero,26af4 <___vfprintf_internal_r+0x88>
   26adc:	b9001917 	ldw	r4,100(r23)
   26ae0:	00f7ffc4 	movi	r3,-8193
   26ae4:	10880014 	ori	r2,r2,8192
   26ae8:	20c6703a 	and	r3,r4,r3
   26aec:	b880030d 	sth	r2,12(r23)
   26af0:	b8c01915 	stw	r3,100(r23)
   26af4:	10c0020c 	andi	r3,r2,8
   26af8:	1800c126 	beq	r3,zero,26e00 <___vfprintf_internal_r+0x394>
   26afc:	b8c00417 	ldw	r3,16(r23)
   26b00:	1800bf26 	beq	r3,zero,26e00 <___vfprintf_internal_r+0x394>
   26b04:	1080068c 	andi	r2,r2,26
   26b08:	00c00284 	movi	r3,10
   26b0c:	10c0c426 	beq	r2,r3,26e20 <___vfprintf_internal_r+0x3b4>
   26b10:	d8c00404 	addi	r3,sp,16
   26b14:	050000f4 	movhi	r20,3
   26b18:	d9001e04 	addi	r4,sp,120
   26b1c:	a5154c84 	addi	r20,r20,21810
   26b20:	d8c01e15 	stw	r3,120(sp)
   26b24:	d8002015 	stw	zero,128(sp)
   26b28:	d8001f15 	stw	zero,124(sp)
   26b2c:	d8003315 	stw	zero,204(sp)
   26b30:	d8003615 	stw	zero,216(sp)
   26b34:	d8003815 	stw	zero,224(sp)
   26b38:	1811883a 	mov	r8,r3
   26b3c:	d8003915 	stw	zero,228(sp)
   26b40:	d8003a15 	stw	zero,232(sp)
   26b44:	d8002f15 	stw	zero,188(sp)
   26b48:	d9002815 	stw	r4,160(sp)
   26b4c:	a8800007 	ldb	r2,0(r21)
   26b50:	10027b26 	beq	r2,zero,27540 <___vfprintf_internal_r+0xad4>
   26b54:	00c00944 	movi	r3,37
   26b58:	a821883a 	mov	r16,r21
   26b5c:	10c0021e 	bne	r2,r3,26b68 <___vfprintf_internal_r+0xfc>
   26b60:	00001406 	br	26bb4 <___vfprintf_internal_r+0x148>
   26b64:	10c00326 	beq	r2,r3,26b74 <___vfprintf_internal_r+0x108>
   26b68:	84000044 	addi	r16,r16,1
   26b6c:	80800007 	ldb	r2,0(r16)
   26b70:	103ffc1e 	bne	r2,zero,26b64 <__alt_data_end+0xfffe6b64>
   26b74:	8563c83a 	sub	r17,r16,r21
   26b78:	88000e26 	beq	r17,zero,26bb4 <___vfprintf_internal_r+0x148>
   26b7c:	d8c02017 	ldw	r3,128(sp)
   26b80:	d8801f17 	ldw	r2,124(sp)
   26b84:	45400015 	stw	r21,0(r8)
   26b88:	1c47883a 	add	r3,r3,r17
   26b8c:	10800044 	addi	r2,r2,1
   26b90:	d8c02015 	stw	r3,128(sp)
   26b94:	44400115 	stw	r17,4(r8)
   26b98:	d8801f15 	stw	r2,124(sp)
   26b9c:	00c001c4 	movi	r3,7
   26ba0:	1880a716 	blt	r3,r2,26e40 <___vfprintf_internal_r+0x3d4>
   26ba4:	42000204 	addi	r8,r8,8
   26ba8:	d9402f17 	ldw	r5,188(sp)
   26bac:	2c4b883a 	add	r5,r5,r17
   26bb0:	d9402f15 	stw	r5,188(sp)
   26bb4:	80800007 	ldb	r2,0(r16)
   26bb8:	1000a826 	beq	r2,zero,26e5c <___vfprintf_internal_r+0x3f0>
   26bbc:	84400047 	ldb	r17,1(r16)
   26bc0:	00bfffc4 	movi	r2,-1
   26bc4:	85400044 	addi	r21,r16,1
   26bc8:	d8002785 	stb	zero,158(sp)
   26bcc:	0007883a 	mov	r3,zero
   26bd0:	000f883a 	mov	r7,zero
   26bd4:	d8802915 	stw	r2,164(sp)
   26bd8:	d8003115 	stw	zero,196(sp)
   26bdc:	0025883a 	mov	r18,zero
   26be0:	01401604 	movi	r5,88
   26be4:	01800244 	movi	r6,9
   26be8:	02800a84 	movi	r10,42
   26bec:	02401b04 	movi	r9,108
   26bf0:	ad400044 	addi	r21,r21,1
   26bf4:	88bff804 	addi	r2,r17,-32
   26bf8:	28830436 	bltu	r5,r2,2780c <___vfprintf_internal_r+0xda0>
   26bfc:	100490ba 	slli	r2,r2,2
   26c00:	010000b4 	movhi	r4,2
   26c04:	211b0504 	addi	r4,r4,27668
   26c08:	1105883a 	add	r2,r2,r4
   26c0c:	10800017 	ldw	r2,0(r2)
   26c10:	1000683a 	jmp	r2
   26c14:	0002772c 	andhi	zero,zero,2524
   26c18:	0002780c 	andi	zero,zero,2528
   26c1c:	0002780c 	andi	zero,zero,2528
   26c20:	0002774c 	andi	zero,zero,2525
   26c24:	0002780c 	andi	zero,zero,2528
   26c28:	0002780c 	andi	zero,zero,2528
   26c2c:	0002780c 	andi	zero,zero,2528
   26c30:	0002780c 	andi	zero,zero,2528
   26c34:	0002780c 	andi	zero,zero,2528
   26c38:	0002780c 	andi	zero,zero,2528
   26c3c:	00026ec0 	call	26ec <__alt_mem_onchip_memory2_0-0x1d914>
   26c40:	00027668 	cmpgeui	zero,zero,2521
   26c44:	0002780c 	andi	zero,zero,2528
   26c48:	00026d88 	cmpgei	zero,zero,2486
   26c4c:	00026ee8 	cmpgeui	zero,zero,2491
   26c50:	0002780c 	andi	zero,zero,2528
   26c54:	00026f28 	cmpgeui	zero,zero,2492
   26c58:	00026f34 	movhi	zero,2492
   26c5c:	00026f34 	movhi	zero,2492
   26c60:	00026f34 	movhi	zero,2492
   26c64:	00026f34 	movhi	zero,2492
   26c68:	00026f34 	movhi	zero,2492
   26c6c:	00026f34 	movhi	zero,2492
   26c70:	00026f34 	movhi	zero,2492
   26c74:	00026f34 	movhi	zero,2492
   26c78:	00026f34 	movhi	zero,2492
   26c7c:	0002780c 	andi	zero,zero,2528
   26c80:	0002780c 	andi	zero,zero,2528
   26c84:	0002780c 	andi	zero,zero,2528
   26c88:	0002780c 	andi	zero,zero,2528
   26c8c:	0002780c 	andi	zero,zero,2528
   26c90:	0002780c 	andi	zero,zero,2528
   26c94:	0002780c 	andi	zero,zero,2528
   26c98:	0002780c 	andi	zero,zero,2528
   26c9c:	0002780c 	andi	zero,zero,2528
   26ca0:	0002780c 	andi	zero,zero,2528
   26ca4:	00026f68 	cmpgeui	zero,zero,2493
   26ca8:	00027024 	muli	zero,zero,2496
   26cac:	0002780c 	andi	zero,zero,2528
   26cb0:	00027024 	muli	zero,zero,2496
   26cb4:	0002780c 	andi	zero,zero,2528
   26cb8:	0002780c 	andi	zero,zero,2528
   26cbc:	0002780c 	andi	zero,zero,2528
   26cc0:	0002780c 	andi	zero,zero,2528
   26cc4:	000270c4 	movi	zero,2499
   26cc8:	0002780c 	andi	zero,zero,2528
   26ccc:	0002780c 	andi	zero,zero,2528
   26cd0:	000270d0 	cmplti	zero,zero,2499
   26cd4:	0002780c 	andi	zero,zero,2528
   26cd8:	0002780c 	andi	zero,zero,2528
   26cdc:	0002780c 	andi	zero,zero,2528
   26ce0:	0002780c 	andi	zero,zero,2528
   26ce4:	0002780c 	andi	zero,zero,2528
   26ce8:	00027548 	cmpgei	zero,zero,2517
   26cec:	0002780c 	andi	zero,zero,2528
   26cf0:	0002780c 	andi	zero,zero,2528
   26cf4:	000275a8 	cmpgeui	zero,zero,2518
   26cf8:	0002780c 	andi	zero,zero,2528
   26cfc:	0002780c 	andi	zero,zero,2528
   26d00:	0002780c 	andi	zero,zero,2528
   26d04:	0002780c 	andi	zero,zero,2528
   26d08:	0002780c 	andi	zero,zero,2528
   26d0c:	0002780c 	andi	zero,zero,2528
   26d10:	0002780c 	andi	zero,zero,2528
   26d14:	0002780c 	andi	zero,zero,2528
   26d18:	0002780c 	andi	zero,zero,2528
   26d1c:	0002780c 	andi	zero,zero,2528
   26d20:	000277b8 	rdprs	zero,zero,2526
   26d24:	00027758 	cmpnei	zero,zero,2525
   26d28:	00027024 	muli	zero,zero,2496
   26d2c:	00027024 	muli	zero,zero,2496
   26d30:	00027024 	muli	zero,zero,2496
   26d34:	00027768 	cmpgeui	zero,zero,2525
   26d38:	00027758 	cmpnei	zero,zero,2525
   26d3c:	0002780c 	andi	zero,zero,2528
   26d40:	0002780c 	andi	zero,zero,2528
   26d44:	00027774 	movhi	zero,2525
   26d48:	0002780c 	andi	zero,zero,2528
   26d4c:	00027784 	movi	zero,2526
   26d50:	00027658 	cmpnei	zero,zero,2521
   26d54:	00026d94 	movui	zero,2486
   26d58:	00027678 	rdprs	zero,zero,2521
   26d5c:	0002780c 	andi	zero,zero,2528
   26d60:	00027684 	movi	zero,2522
   26d64:	0002780c 	andi	zero,zero,2528
   26d68:	000276e0 	cmpeqi	zero,zero,2523
   26d6c:	0002780c 	andi	zero,zero,2528
   26d70:	0002780c 	andi	zero,zero,2528
   26d74:	000276f0 	cmpltui	zero,zero,2523
   26d78:	d9003117 	ldw	r4,196(sp)
   26d7c:	d8802d15 	stw	r2,180(sp)
   26d80:	0109c83a 	sub	r4,zero,r4
   26d84:	d9003115 	stw	r4,196(sp)
   26d88:	94800114 	ori	r18,r18,4
   26d8c:	ac400007 	ldb	r17,0(r21)
   26d90:	003f9706 	br	26bf0 <__alt_data_end+0xfffe6bf0>
   26d94:	00800c04 	movi	r2,48
   26d98:	d9002d17 	ldw	r4,180(sp)
   26d9c:	d9402917 	ldw	r5,164(sp)
   26da0:	d8802705 	stb	r2,156(sp)
   26da4:	00801e04 	movi	r2,120
   26da8:	d8802745 	stb	r2,157(sp)
   26dac:	d8002785 	stb	zero,158(sp)
   26db0:	20c00104 	addi	r3,r4,4
   26db4:	24c00017 	ldw	r19,0(r4)
   26db8:	002d883a 	mov	r22,zero
   26dbc:	90800094 	ori	r2,r18,2
   26dc0:	28029a16 	blt	r5,zero,2782c <___vfprintf_internal_r+0xdc0>
   26dc4:	00bfdfc4 	movi	r2,-129
   26dc8:	90a4703a 	and	r18,r18,r2
   26dcc:	d8c02d15 	stw	r3,180(sp)
   26dd0:	94800094 	ori	r18,r18,2
   26dd4:	9802871e 	bne	r19,zero,277f4 <___vfprintf_internal_r+0xd88>
   26dd8:	008000f4 	movhi	r2,3
   26ddc:	10953d04 	addi	r2,r2,21748
   26de0:	d8803915 	stw	r2,228(sp)
   26de4:	04401e04 	movi	r17,120
   26de8:	d8802917 	ldw	r2,164(sp)
   26dec:	0039883a 	mov	fp,zero
   26df0:	1001e926 	beq	r2,zero,27598 <___vfprintf_internal_r+0xb2c>
   26df4:	0027883a 	mov	r19,zero
   26df8:	002d883a 	mov	r22,zero
   26dfc:	00020506 	br	27614 <___vfprintf_internal_r+0xba8>
   26e00:	d9002c17 	ldw	r4,176(sp)
   26e04:	b80b883a 	mov	r5,r23
   26e08:	0028d9c0 	call	28d9c <__swsetup_r>
   26e0c:	1005ac1e 	bne	r2,zero,284c0 <___vfprintf_internal_r+0x1a54>
   26e10:	b880030b 	ldhu	r2,12(r23)
   26e14:	00c00284 	movi	r3,10
   26e18:	1080068c 	andi	r2,r2,26
   26e1c:	10ff3c1e 	bne	r2,r3,26b10 <__alt_data_end+0xfffe6b10>
   26e20:	b880038f 	ldh	r2,14(r23)
   26e24:	103f3a16 	blt	r2,zero,26b10 <__alt_data_end+0xfffe6b10>
   26e28:	d9c02d17 	ldw	r7,180(sp)
   26e2c:	d9002c17 	ldw	r4,176(sp)
   26e30:	a80d883a 	mov	r6,r21
   26e34:	b80b883a 	mov	r5,r23
   26e38:	0028c800 	call	28c80 <__sbprintf>
   26e3c:	00001106 	br	26e84 <___vfprintf_internal_r+0x418>
   26e40:	d9002c17 	ldw	r4,176(sp)
   26e44:	d9801e04 	addi	r6,sp,120
   26e48:	b80b883a 	mov	r5,r23
   26e4c:	002ebd00 	call	2ebd0 <__sprint_r>
   26e50:	1000081e 	bne	r2,zero,26e74 <___vfprintf_internal_r+0x408>
   26e54:	da000404 	addi	r8,sp,16
   26e58:	003f5306 	br	26ba8 <__alt_data_end+0xfffe6ba8>
   26e5c:	d8802017 	ldw	r2,128(sp)
   26e60:	10000426 	beq	r2,zero,26e74 <___vfprintf_internal_r+0x408>
   26e64:	d9002c17 	ldw	r4,176(sp)
   26e68:	d9801e04 	addi	r6,sp,120
   26e6c:	b80b883a 	mov	r5,r23
   26e70:	002ebd00 	call	2ebd0 <__sprint_r>
   26e74:	b880030b 	ldhu	r2,12(r23)
   26e78:	1080100c 	andi	r2,r2,64
   26e7c:	1005901e 	bne	r2,zero,284c0 <___vfprintf_internal_r+0x1a54>
   26e80:	d8802f17 	ldw	r2,188(sp)
   26e84:	dfc04717 	ldw	ra,284(sp)
   26e88:	df004617 	ldw	fp,280(sp)
   26e8c:	ddc04517 	ldw	r23,276(sp)
   26e90:	dd804417 	ldw	r22,272(sp)
   26e94:	dd404317 	ldw	r21,268(sp)
   26e98:	dd004217 	ldw	r20,264(sp)
   26e9c:	dcc04117 	ldw	r19,260(sp)
   26ea0:	dc804017 	ldw	r18,256(sp)
   26ea4:	dc403f17 	ldw	r17,252(sp)
   26ea8:	dc003e17 	ldw	r16,248(sp)
   26eac:	dec04804 	addi	sp,sp,288
   26eb0:	f800283a 	ret
   26eb4:	d9002c17 	ldw	r4,176(sp)
   26eb8:	002adc40 	call	2adc4 <__sinit>
   26ebc:	003f0406 	br	26ad0 <__alt_data_end+0xfffe6ad0>
   26ec0:	d8802d17 	ldw	r2,180(sp)
   26ec4:	d9002d17 	ldw	r4,180(sp)
   26ec8:	10800017 	ldw	r2,0(r2)
   26ecc:	d8803115 	stw	r2,196(sp)
   26ed0:	20800104 	addi	r2,r4,4
   26ed4:	d9003117 	ldw	r4,196(sp)
   26ed8:	203fa716 	blt	r4,zero,26d78 <__alt_data_end+0xfffe6d78>
   26edc:	d8802d15 	stw	r2,180(sp)
   26ee0:	ac400007 	ldb	r17,0(r21)
   26ee4:	003f4206 	br	26bf0 <__alt_data_end+0xfffe6bf0>
   26ee8:	ac400007 	ldb	r17,0(r21)
   26eec:	aac00044 	addi	r11,r21,1
   26ef0:	8a872826 	beq	r17,r10,28b94 <___vfprintf_internal_r+0x2128>
   26ef4:	88bff404 	addi	r2,r17,-48
   26ef8:	0009883a 	mov	r4,zero
   26efc:	30867d36 	bltu	r6,r2,288f4 <___vfprintf_internal_r+0x1e88>
   26f00:	5c400007 	ldb	r17,0(r11)
   26f04:	210002a4 	muli	r4,r4,10
   26f08:	5d400044 	addi	r21,r11,1
   26f0c:	a817883a 	mov	r11,r21
   26f10:	2089883a 	add	r4,r4,r2
   26f14:	88bff404 	addi	r2,r17,-48
   26f18:	30bff92e 	bgeu	r6,r2,26f00 <__alt_data_end+0xfffe6f00>
   26f1c:	2005c916 	blt	r4,zero,28644 <___vfprintf_internal_r+0x1bd8>
   26f20:	d9002915 	stw	r4,164(sp)
   26f24:	003f3306 	br	26bf4 <__alt_data_end+0xfffe6bf4>
   26f28:	94802014 	ori	r18,r18,128
   26f2c:	ac400007 	ldb	r17,0(r21)
   26f30:	003f2f06 	br	26bf0 <__alt_data_end+0xfffe6bf0>
   26f34:	a809883a 	mov	r4,r21
   26f38:	d8003115 	stw	zero,196(sp)
   26f3c:	88bff404 	addi	r2,r17,-48
   26f40:	0017883a 	mov	r11,zero
   26f44:	24400007 	ldb	r17,0(r4)
   26f48:	5ac002a4 	muli	r11,r11,10
   26f4c:	ad400044 	addi	r21,r21,1
   26f50:	a809883a 	mov	r4,r21
   26f54:	12d7883a 	add	r11,r2,r11
   26f58:	88bff404 	addi	r2,r17,-48
   26f5c:	30bff92e 	bgeu	r6,r2,26f44 <__alt_data_end+0xfffe6f44>
   26f60:	dac03115 	stw	r11,196(sp)
   26f64:	003f2306 	br	26bf4 <__alt_data_end+0xfffe6bf4>
   26f68:	18c03fcc 	andi	r3,r3,255
   26f6c:	18072b1e 	bne	r3,zero,28c1c <___vfprintf_internal_r+0x21b0>
   26f70:	94800414 	ori	r18,r18,16
   26f74:	9080080c 	andi	r2,r18,32
   26f78:	10037b26 	beq	r2,zero,27d68 <___vfprintf_internal_r+0x12fc>
   26f7c:	d9402d17 	ldw	r5,180(sp)
   26f80:	28800117 	ldw	r2,4(r5)
   26f84:	2cc00017 	ldw	r19,0(r5)
   26f88:	29400204 	addi	r5,r5,8
   26f8c:	d9402d15 	stw	r5,180(sp)
   26f90:	102d883a 	mov	r22,r2
   26f94:	10044b16 	blt	r2,zero,280c4 <___vfprintf_internal_r+0x1658>
   26f98:	d9402917 	ldw	r5,164(sp)
   26f9c:	df002783 	ldbu	fp,158(sp)
   26fa0:	2803bc16 	blt	r5,zero,27e94 <___vfprintf_internal_r+0x1428>
   26fa4:	00ffdfc4 	movi	r3,-129
   26fa8:	9d84b03a 	or	r2,r19,r22
   26fac:	90e4703a 	and	r18,r18,r3
   26fb0:	10017726 	beq	r2,zero,27590 <___vfprintf_internal_r+0xb24>
   26fb4:	b0038326 	beq	r22,zero,27dc4 <___vfprintf_internal_r+0x1358>
   26fb8:	dc402a15 	stw	r17,168(sp)
   26fbc:	dc001e04 	addi	r16,sp,120
   26fc0:	b023883a 	mov	r17,r22
   26fc4:	402d883a 	mov	r22,r8
   26fc8:	9809883a 	mov	r4,r19
   26fcc:	880b883a 	mov	r5,r17
   26fd0:	01800284 	movi	r6,10
   26fd4:	000f883a 	mov	r7,zero
   26fd8:	0030da40 	call	30da4 <__umoddi3>
   26fdc:	10800c04 	addi	r2,r2,48
   26fe0:	843fffc4 	addi	r16,r16,-1
   26fe4:	9809883a 	mov	r4,r19
   26fe8:	880b883a 	mov	r5,r17
   26fec:	80800005 	stb	r2,0(r16)
   26ff0:	01800284 	movi	r6,10
   26ff4:	000f883a 	mov	r7,zero
   26ff8:	003082c0 	call	3082c <__udivdi3>
   26ffc:	1027883a 	mov	r19,r2
   27000:	10c4b03a 	or	r2,r2,r3
   27004:	1823883a 	mov	r17,r3
   27008:	103fef1e 	bne	r2,zero,26fc8 <__alt_data_end+0xfffe6fc8>
   2700c:	d8c02817 	ldw	r3,160(sp)
   27010:	dc402a17 	ldw	r17,168(sp)
   27014:	b011883a 	mov	r8,r22
   27018:	1c07c83a 	sub	r3,r3,r16
   2701c:	d8c02e15 	stw	r3,184(sp)
   27020:	00005906 	br	27188 <___vfprintf_internal_r+0x71c>
   27024:	18c03fcc 	andi	r3,r3,255
   27028:	1806fa1e 	bne	r3,zero,28c14 <___vfprintf_internal_r+0x21a8>
   2702c:	9080020c 	andi	r2,r18,8
   27030:	10048a26 	beq	r2,zero,2825c <___vfprintf_internal_r+0x17f0>
   27034:	d8c02d17 	ldw	r3,180(sp)
   27038:	d9002d17 	ldw	r4,180(sp)
   2703c:	d9402d17 	ldw	r5,180(sp)
   27040:	18c00017 	ldw	r3,0(r3)
   27044:	21000117 	ldw	r4,4(r4)
   27048:	29400204 	addi	r5,r5,8
   2704c:	d8c03615 	stw	r3,216(sp)
   27050:	d9003815 	stw	r4,224(sp)
   27054:	d9402d15 	stw	r5,180(sp)
   27058:	d9003617 	ldw	r4,216(sp)
   2705c:	d9403817 	ldw	r5,224(sp)
   27060:	da003d15 	stw	r8,244(sp)
   27064:	04000044 	movi	r16,1
   27068:	002d5780 	call	2d578 <__fpclassifyd>
   2706c:	da003d17 	ldw	r8,244(sp)
   27070:	14041f1e 	bne	r2,r16,280f0 <___vfprintf_internal_r+0x1684>
   27074:	d9003617 	ldw	r4,216(sp)
   27078:	d9403817 	ldw	r5,224(sp)
   2707c:	000d883a 	mov	r6,zero
   27080:	000f883a 	mov	r7,zero
   27084:	00325d40 	call	325d4 <__ledf2>
   27088:	da003d17 	ldw	r8,244(sp)
   2708c:	1005be16 	blt	r2,zero,28788 <___vfprintf_internal_r+0x1d1c>
   27090:	df002783 	ldbu	fp,158(sp)
   27094:	008011c4 	movi	r2,71
   27098:	1445330e 	bge	r2,r17,28568 <___vfprintf_internal_r+0x1afc>
   2709c:	040000f4 	movhi	r16,3
   270a0:	84153504 	addi	r16,r16,21716
   270a4:	00c000c4 	movi	r3,3
   270a8:	00bfdfc4 	movi	r2,-129
   270ac:	d8c02a15 	stw	r3,168(sp)
   270b0:	90a4703a 	and	r18,r18,r2
   270b4:	d8c02e15 	stw	r3,184(sp)
   270b8:	d8002915 	stw	zero,164(sp)
   270bc:	d8003215 	stw	zero,200(sp)
   270c0:	00003706 	br	271a0 <___vfprintf_internal_r+0x734>
   270c4:	94800214 	ori	r18,r18,8
   270c8:	ac400007 	ldb	r17,0(r21)
   270cc:	003ec806 	br	26bf0 <__alt_data_end+0xfffe6bf0>
   270d0:	18c03fcc 	andi	r3,r3,255
   270d4:	1806db1e 	bne	r3,zero,28c44 <___vfprintf_internal_r+0x21d8>
   270d8:	94800414 	ori	r18,r18,16
   270dc:	9080080c 	andi	r2,r18,32
   270e0:	1002d826 	beq	r2,zero,27c44 <___vfprintf_internal_r+0x11d8>
   270e4:	d9402d17 	ldw	r5,180(sp)
   270e8:	d8c02917 	ldw	r3,164(sp)
   270ec:	d8002785 	stb	zero,158(sp)
   270f0:	28800204 	addi	r2,r5,8
   270f4:	2cc00017 	ldw	r19,0(r5)
   270f8:	2d800117 	ldw	r22,4(r5)
   270fc:	18048f16 	blt	r3,zero,2833c <___vfprintf_internal_r+0x18d0>
   27100:	013fdfc4 	movi	r4,-129
   27104:	9d86b03a 	or	r3,r19,r22
   27108:	d8802d15 	stw	r2,180(sp)
   2710c:	9124703a 	and	r18,r18,r4
   27110:	1802d91e 	bne	r3,zero,27c78 <___vfprintf_internal_r+0x120c>
   27114:	d8c02917 	ldw	r3,164(sp)
   27118:	0039883a 	mov	fp,zero
   2711c:	1805c326 	beq	r3,zero,2882c <___vfprintf_internal_r+0x1dc0>
   27120:	0027883a 	mov	r19,zero
   27124:	002d883a 	mov	r22,zero
   27128:	dc001e04 	addi	r16,sp,120
   2712c:	9806d0fa 	srli	r3,r19,3
   27130:	b008977a 	slli	r4,r22,29
   27134:	b02cd0fa 	srli	r22,r22,3
   27138:	9cc001cc 	andi	r19,r19,7
   2713c:	98800c04 	addi	r2,r19,48
   27140:	843fffc4 	addi	r16,r16,-1
   27144:	20e6b03a 	or	r19,r4,r3
   27148:	80800005 	stb	r2,0(r16)
   2714c:	9d86b03a 	or	r3,r19,r22
   27150:	183ff61e 	bne	r3,zero,2712c <__alt_data_end+0xfffe712c>
   27154:	90c0004c 	andi	r3,r18,1
   27158:	18013b26 	beq	r3,zero,27648 <___vfprintf_internal_r+0xbdc>
   2715c:	10803fcc 	andi	r2,r2,255
   27160:	1080201c 	xori	r2,r2,128
   27164:	10bfe004 	addi	r2,r2,-128
   27168:	00c00c04 	movi	r3,48
   2716c:	10c13626 	beq	r2,r3,27648 <___vfprintf_internal_r+0xbdc>
   27170:	80ffffc5 	stb	r3,-1(r16)
   27174:	d8c02817 	ldw	r3,160(sp)
   27178:	80bfffc4 	addi	r2,r16,-1
   2717c:	1021883a 	mov	r16,r2
   27180:	1887c83a 	sub	r3,r3,r2
   27184:	d8c02e15 	stw	r3,184(sp)
   27188:	d8802e17 	ldw	r2,184(sp)
   2718c:	d9002917 	ldw	r4,164(sp)
   27190:	1100010e 	bge	r2,r4,27198 <___vfprintf_internal_r+0x72c>
   27194:	2005883a 	mov	r2,r4
   27198:	d8802a15 	stw	r2,168(sp)
   2719c:	d8003215 	stw	zero,200(sp)
   271a0:	e7003fcc 	andi	fp,fp,255
   271a4:	e700201c 	xori	fp,fp,128
   271a8:	e73fe004 	addi	fp,fp,-128
   271ac:	e0000326 	beq	fp,zero,271bc <___vfprintf_internal_r+0x750>
   271b0:	d8c02a17 	ldw	r3,168(sp)
   271b4:	18c00044 	addi	r3,r3,1
   271b8:	d8c02a15 	stw	r3,168(sp)
   271bc:	90c0008c 	andi	r3,r18,2
   271c0:	d8c02b15 	stw	r3,172(sp)
   271c4:	18000326 	beq	r3,zero,271d4 <___vfprintf_internal_r+0x768>
   271c8:	d8c02a17 	ldw	r3,168(sp)
   271cc:	18c00084 	addi	r3,r3,2
   271d0:	d8c02a15 	stw	r3,168(sp)
   271d4:	90c0210c 	andi	r3,r18,132
   271d8:	d8c03015 	stw	r3,192(sp)
   271dc:	1801a31e 	bne	r3,zero,2786c <___vfprintf_internal_r+0xe00>
   271e0:	d9003117 	ldw	r4,196(sp)
   271e4:	d8c02a17 	ldw	r3,168(sp)
   271e8:	20e7c83a 	sub	r19,r4,r3
   271ec:	04c19f0e 	bge	zero,r19,2786c <___vfprintf_internal_r+0xe00>
   271f0:	02400404 	movi	r9,16
   271f4:	d8c02017 	ldw	r3,128(sp)
   271f8:	d8801f17 	ldw	r2,124(sp)
   271fc:	4cc50d0e 	bge	r9,r19,28634 <___vfprintf_internal_r+0x1bc8>
   27200:	014000f4 	movhi	r5,3
   27204:	29555084 	addi	r5,r5,21826
   27208:	dc403b15 	stw	r17,236(sp)
   2720c:	d9403515 	stw	r5,212(sp)
   27210:	9823883a 	mov	r17,r19
   27214:	482d883a 	mov	r22,r9
   27218:	9027883a 	mov	r19,r18
   2721c:	070001c4 	movi	fp,7
   27220:	8025883a 	mov	r18,r16
   27224:	dc002c17 	ldw	r16,176(sp)
   27228:	00000306 	br	27238 <___vfprintf_internal_r+0x7cc>
   2722c:	8c7ffc04 	addi	r17,r17,-16
   27230:	42000204 	addi	r8,r8,8
   27234:	b440130e 	bge	r22,r17,27284 <___vfprintf_internal_r+0x818>
   27238:	010000f4 	movhi	r4,3
   2723c:	18c00404 	addi	r3,r3,16
   27240:	10800044 	addi	r2,r2,1
   27244:	21155084 	addi	r4,r4,21826
   27248:	41000015 	stw	r4,0(r8)
   2724c:	45800115 	stw	r22,4(r8)
   27250:	d8c02015 	stw	r3,128(sp)
   27254:	d8801f15 	stw	r2,124(sp)
   27258:	e0bff40e 	bge	fp,r2,2722c <__alt_data_end+0xfffe722c>
   2725c:	d9801e04 	addi	r6,sp,120
   27260:	b80b883a 	mov	r5,r23
   27264:	8009883a 	mov	r4,r16
   27268:	002ebd00 	call	2ebd0 <__sprint_r>
   2726c:	103f011e 	bne	r2,zero,26e74 <__alt_data_end+0xfffe6e74>
   27270:	8c7ffc04 	addi	r17,r17,-16
   27274:	d8c02017 	ldw	r3,128(sp)
   27278:	d8801f17 	ldw	r2,124(sp)
   2727c:	da000404 	addi	r8,sp,16
   27280:	b47fed16 	blt	r22,r17,27238 <__alt_data_end+0xfffe7238>
   27284:	9021883a 	mov	r16,r18
   27288:	9825883a 	mov	r18,r19
   2728c:	8827883a 	mov	r19,r17
   27290:	dc403b17 	ldw	r17,236(sp)
   27294:	d9403517 	ldw	r5,212(sp)
   27298:	98c7883a 	add	r3,r19,r3
   2729c:	10800044 	addi	r2,r2,1
   272a0:	41400015 	stw	r5,0(r8)
   272a4:	44c00115 	stw	r19,4(r8)
   272a8:	d8c02015 	stw	r3,128(sp)
   272ac:	d8801f15 	stw	r2,124(sp)
   272b0:	010001c4 	movi	r4,7
   272b4:	2082a316 	blt	r4,r2,27d44 <___vfprintf_internal_r+0x12d8>
   272b8:	df002787 	ldb	fp,158(sp)
   272bc:	42000204 	addi	r8,r8,8
   272c0:	e0000c26 	beq	fp,zero,272f4 <___vfprintf_internal_r+0x888>
   272c4:	d8801f17 	ldw	r2,124(sp)
   272c8:	d9002784 	addi	r4,sp,158
   272cc:	18c00044 	addi	r3,r3,1
   272d0:	10800044 	addi	r2,r2,1
   272d4:	41000015 	stw	r4,0(r8)
   272d8:	01000044 	movi	r4,1
   272dc:	41000115 	stw	r4,4(r8)
   272e0:	d8c02015 	stw	r3,128(sp)
   272e4:	d8801f15 	stw	r2,124(sp)
   272e8:	010001c4 	movi	r4,7
   272ec:	20823c16 	blt	r4,r2,27be0 <___vfprintf_internal_r+0x1174>
   272f0:	42000204 	addi	r8,r8,8
   272f4:	d8802b17 	ldw	r2,172(sp)
   272f8:	10000c26 	beq	r2,zero,2732c <___vfprintf_internal_r+0x8c0>
   272fc:	d8801f17 	ldw	r2,124(sp)
   27300:	d9002704 	addi	r4,sp,156
   27304:	18c00084 	addi	r3,r3,2
   27308:	10800044 	addi	r2,r2,1
   2730c:	41000015 	stw	r4,0(r8)
   27310:	01000084 	movi	r4,2
   27314:	41000115 	stw	r4,4(r8)
   27318:	d8c02015 	stw	r3,128(sp)
   2731c:	d8801f15 	stw	r2,124(sp)
   27320:	010001c4 	movi	r4,7
   27324:	20823616 	blt	r4,r2,27c00 <___vfprintf_internal_r+0x1194>
   27328:	42000204 	addi	r8,r8,8
   2732c:	d9003017 	ldw	r4,192(sp)
   27330:	00802004 	movi	r2,128
   27334:	20819926 	beq	r4,r2,2799c <___vfprintf_internal_r+0xf30>
   27338:	d9402917 	ldw	r5,164(sp)
   2733c:	d8802e17 	ldw	r2,184(sp)
   27340:	28adc83a 	sub	r22,r5,r2
   27344:	0580310e 	bge	zero,r22,2740c <___vfprintf_internal_r+0x9a0>
   27348:	07000404 	movi	fp,16
   2734c:	d8801f17 	ldw	r2,124(sp)
   27350:	e584140e 	bge	fp,r22,283a4 <___vfprintf_internal_r+0x1938>
   27354:	014000f4 	movhi	r5,3
   27358:	29554c84 	addi	r5,r5,21810
   2735c:	dc402915 	stw	r17,164(sp)
   27360:	d9402b15 	stw	r5,172(sp)
   27364:	b023883a 	mov	r17,r22
   27368:	04c001c4 	movi	r19,7
   2736c:	a82d883a 	mov	r22,r21
   27370:	902b883a 	mov	r21,r18
   27374:	8025883a 	mov	r18,r16
   27378:	dc002c17 	ldw	r16,176(sp)
   2737c:	00000306 	br	2738c <___vfprintf_internal_r+0x920>
   27380:	8c7ffc04 	addi	r17,r17,-16
   27384:	42000204 	addi	r8,r8,8
   27388:	e440110e 	bge	fp,r17,273d0 <___vfprintf_internal_r+0x964>
   2738c:	18c00404 	addi	r3,r3,16
   27390:	10800044 	addi	r2,r2,1
   27394:	45000015 	stw	r20,0(r8)
   27398:	47000115 	stw	fp,4(r8)
   2739c:	d8c02015 	stw	r3,128(sp)
   273a0:	d8801f15 	stw	r2,124(sp)
   273a4:	98bff60e 	bge	r19,r2,27380 <__alt_data_end+0xfffe7380>
   273a8:	d9801e04 	addi	r6,sp,120
   273ac:	b80b883a 	mov	r5,r23
   273b0:	8009883a 	mov	r4,r16
   273b4:	002ebd00 	call	2ebd0 <__sprint_r>
   273b8:	103eae1e 	bne	r2,zero,26e74 <__alt_data_end+0xfffe6e74>
   273bc:	8c7ffc04 	addi	r17,r17,-16
   273c0:	d8c02017 	ldw	r3,128(sp)
   273c4:	d8801f17 	ldw	r2,124(sp)
   273c8:	da000404 	addi	r8,sp,16
   273cc:	e47fef16 	blt	fp,r17,2738c <__alt_data_end+0xfffe738c>
   273d0:	9021883a 	mov	r16,r18
   273d4:	a825883a 	mov	r18,r21
   273d8:	b02b883a 	mov	r21,r22
   273dc:	882d883a 	mov	r22,r17
   273e0:	dc402917 	ldw	r17,164(sp)
   273e4:	d9002b17 	ldw	r4,172(sp)
   273e8:	1d87883a 	add	r3,r3,r22
   273ec:	10800044 	addi	r2,r2,1
   273f0:	41000015 	stw	r4,0(r8)
   273f4:	45800115 	stw	r22,4(r8)
   273f8:	d8c02015 	stw	r3,128(sp)
   273fc:	d8801f15 	stw	r2,124(sp)
   27400:	010001c4 	movi	r4,7
   27404:	2081ee16 	blt	r4,r2,27bc0 <___vfprintf_internal_r+0x1154>
   27408:	42000204 	addi	r8,r8,8
   2740c:	9080400c 	andi	r2,r18,256
   27410:	1001181e 	bne	r2,zero,27874 <___vfprintf_internal_r+0xe08>
   27414:	d9402e17 	ldw	r5,184(sp)
   27418:	d8801f17 	ldw	r2,124(sp)
   2741c:	44000015 	stw	r16,0(r8)
   27420:	1947883a 	add	r3,r3,r5
   27424:	10800044 	addi	r2,r2,1
   27428:	41400115 	stw	r5,4(r8)
   2742c:	d8c02015 	stw	r3,128(sp)
   27430:	d8801f15 	stw	r2,124(sp)
   27434:	010001c4 	movi	r4,7
   27438:	2081d316 	blt	r4,r2,27b88 <___vfprintf_internal_r+0x111c>
   2743c:	42000204 	addi	r8,r8,8
   27440:	9480010c 	andi	r18,r18,4
   27444:	90003226 	beq	r18,zero,27510 <___vfprintf_internal_r+0xaa4>
   27448:	d9403117 	ldw	r5,196(sp)
   2744c:	d8802a17 	ldw	r2,168(sp)
   27450:	28a1c83a 	sub	r16,r5,r2
   27454:	04002e0e 	bge	zero,r16,27510 <___vfprintf_internal_r+0xaa4>
   27458:	04400404 	movi	r17,16
   2745c:	d8801f17 	ldw	r2,124(sp)
   27460:	8c04a20e 	bge	r17,r16,286ec <___vfprintf_internal_r+0x1c80>
   27464:	014000f4 	movhi	r5,3
   27468:	29555084 	addi	r5,r5,21826
   2746c:	d9403515 	stw	r5,212(sp)
   27470:	048001c4 	movi	r18,7
   27474:	dcc02c17 	ldw	r19,176(sp)
   27478:	00000306 	br	27488 <___vfprintf_internal_r+0xa1c>
   2747c:	843ffc04 	addi	r16,r16,-16
   27480:	42000204 	addi	r8,r8,8
   27484:	8c00130e 	bge	r17,r16,274d4 <___vfprintf_internal_r+0xa68>
   27488:	010000f4 	movhi	r4,3
   2748c:	18c00404 	addi	r3,r3,16
   27490:	10800044 	addi	r2,r2,1
   27494:	21155084 	addi	r4,r4,21826
   27498:	41000015 	stw	r4,0(r8)
   2749c:	44400115 	stw	r17,4(r8)
   274a0:	d8c02015 	stw	r3,128(sp)
   274a4:	d8801f15 	stw	r2,124(sp)
   274a8:	90bff40e 	bge	r18,r2,2747c <__alt_data_end+0xfffe747c>
   274ac:	d9801e04 	addi	r6,sp,120
   274b0:	b80b883a 	mov	r5,r23
   274b4:	9809883a 	mov	r4,r19
   274b8:	002ebd00 	call	2ebd0 <__sprint_r>
   274bc:	103e6d1e 	bne	r2,zero,26e74 <__alt_data_end+0xfffe6e74>
   274c0:	843ffc04 	addi	r16,r16,-16
   274c4:	d8c02017 	ldw	r3,128(sp)
   274c8:	d8801f17 	ldw	r2,124(sp)
   274cc:	da000404 	addi	r8,sp,16
   274d0:	8c3fed16 	blt	r17,r16,27488 <__alt_data_end+0xfffe7488>
   274d4:	d9403517 	ldw	r5,212(sp)
   274d8:	1c07883a 	add	r3,r3,r16
   274dc:	10800044 	addi	r2,r2,1
   274e0:	41400015 	stw	r5,0(r8)
   274e4:	44000115 	stw	r16,4(r8)
   274e8:	d8c02015 	stw	r3,128(sp)
   274ec:	d8801f15 	stw	r2,124(sp)
   274f0:	010001c4 	movi	r4,7
   274f4:	2080060e 	bge	r4,r2,27510 <___vfprintf_internal_r+0xaa4>
   274f8:	d9002c17 	ldw	r4,176(sp)
   274fc:	d9801e04 	addi	r6,sp,120
   27500:	b80b883a 	mov	r5,r23
   27504:	002ebd00 	call	2ebd0 <__sprint_r>
   27508:	103e5a1e 	bne	r2,zero,26e74 <__alt_data_end+0xfffe6e74>
   2750c:	d8c02017 	ldw	r3,128(sp)
   27510:	d8803117 	ldw	r2,196(sp)
   27514:	d9002a17 	ldw	r4,168(sp)
   27518:	1100010e 	bge	r2,r4,27520 <___vfprintf_internal_r+0xab4>
   2751c:	2005883a 	mov	r2,r4
   27520:	d9402f17 	ldw	r5,188(sp)
   27524:	288b883a 	add	r5,r5,r2
   27528:	d9402f15 	stw	r5,188(sp)
   2752c:	18019e1e 	bne	r3,zero,27ba8 <___vfprintf_internal_r+0x113c>
   27530:	a8800007 	ldb	r2,0(r21)
   27534:	d8001f15 	stw	zero,124(sp)
   27538:	da000404 	addi	r8,sp,16
   2753c:	103d851e 	bne	r2,zero,26b54 <__alt_data_end+0xfffe6b54>
   27540:	a821883a 	mov	r16,r21
   27544:	003d9b06 	br	26bb4 <__alt_data_end+0xfffe6bb4>
   27548:	18c03fcc 	andi	r3,r3,255
   2754c:	1805c11e 	bne	r3,zero,28c54 <___vfprintf_internal_r+0x21e8>
   27550:	94800414 	ori	r18,r18,16
   27554:	9080080c 	andi	r2,r18,32
   27558:	10020c26 	beq	r2,zero,27d8c <___vfprintf_internal_r+0x1320>
   2755c:	d8802d17 	ldw	r2,180(sp)
   27560:	d9002917 	ldw	r4,164(sp)
   27564:	d8002785 	stb	zero,158(sp)
   27568:	10c00204 	addi	r3,r2,8
   2756c:	14c00017 	ldw	r19,0(r2)
   27570:	15800117 	ldw	r22,4(r2)
   27574:	20040f16 	blt	r4,zero,285b4 <___vfprintf_internal_r+0x1b48>
   27578:	013fdfc4 	movi	r4,-129
   2757c:	9d84b03a 	or	r2,r19,r22
   27580:	d8c02d15 	stw	r3,180(sp)
   27584:	9124703a 	and	r18,r18,r4
   27588:	0039883a 	mov	fp,zero
   2758c:	103e891e 	bne	r2,zero,26fb4 <__alt_data_end+0xfffe6fb4>
   27590:	d9002917 	ldw	r4,164(sp)
   27594:	2002c11e 	bne	r4,zero,2809c <___vfprintf_internal_r+0x1630>
   27598:	d8002915 	stw	zero,164(sp)
   2759c:	d8002e15 	stw	zero,184(sp)
   275a0:	dc001e04 	addi	r16,sp,120
   275a4:	003ef806 	br	27188 <__alt_data_end+0xfffe7188>
   275a8:	18c03fcc 	andi	r3,r3,255
   275ac:	18059d1e 	bne	r3,zero,28c24 <___vfprintf_internal_r+0x21b8>
   275b0:	014000f4 	movhi	r5,3
   275b4:	29553804 	addi	r5,r5,21728
   275b8:	d9403915 	stw	r5,228(sp)
   275bc:	9080080c 	andi	r2,r18,32
   275c0:	10005226 	beq	r2,zero,2770c <___vfprintf_internal_r+0xca0>
   275c4:	d8802d17 	ldw	r2,180(sp)
   275c8:	14c00017 	ldw	r19,0(r2)
   275cc:	15800117 	ldw	r22,4(r2)
   275d0:	10800204 	addi	r2,r2,8
   275d4:	d8802d15 	stw	r2,180(sp)
   275d8:	9080004c 	andi	r2,r18,1
   275dc:	10019026 	beq	r2,zero,27c20 <___vfprintf_internal_r+0x11b4>
   275e0:	9d84b03a 	or	r2,r19,r22
   275e4:	10036926 	beq	r2,zero,2838c <___vfprintf_internal_r+0x1920>
   275e8:	d8c02917 	ldw	r3,164(sp)
   275ec:	00800c04 	movi	r2,48
   275f0:	d8802705 	stb	r2,156(sp)
   275f4:	dc402745 	stb	r17,157(sp)
   275f8:	d8002785 	stb	zero,158(sp)
   275fc:	90800094 	ori	r2,r18,2
   27600:	18045d16 	blt	r3,zero,28778 <___vfprintf_internal_r+0x1d0c>
   27604:	00bfdfc4 	movi	r2,-129
   27608:	90a4703a 	and	r18,r18,r2
   2760c:	94800094 	ori	r18,r18,2
   27610:	0039883a 	mov	fp,zero
   27614:	d9003917 	ldw	r4,228(sp)
   27618:	dc001e04 	addi	r16,sp,120
   2761c:	988003cc 	andi	r2,r19,15
   27620:	b006973a 	slli	r3,r22,28
   27624:	2085883a 	add	r2,r4,r2
   27628:	9826d13a 	srli	r19,r19,4
   2762c:	10800003 	ldbu	r2,0(r2)
   27630:	b02cd13a 	srli	r22,r22,4
   27634:	843fffc4 	addi	r16,r16,-1
   27638:	1ce6b03a 	or	r19,r3,r19
   2763c:	80800005 	stb	r2,0(r16)
   27640:	9d84b03a 	or	r2,r19,r22
   27644:	103ff51e 	bne	r2,zero,2761c <__alt_data_end+0xfffe761c>
   27648:	d8c02817 	ldw	r3,160(sp)
   2764c:	1c07c83a 	sub	r3,r3,r16
   27650:	d8c02e15 	stw	r3,184(sp)
   27654:	003ecc06 	br	27188 <__alt_data_end+0xfffe7188>
   27658:	18c03fcc 	andi	r3,r3,255
   2765c:	183e9f26 	beq	r3,zero,270dc <__alt_data_end+0xfffe70dc>
   27660:	d9c02785 	stb	r7,158(sp)
   27664:	003e9d06 	br	270dc <__alt_data_end+0xfffe70dc>
   27668:	00c00044 	movi	r3,1
   2766c:	01c00ac4 	movi	r7,43
   27670:	ac400007 	ldb	r17,0(r21)
   27674:	003d5e06 	br	26bf0 <__alt_data_end+0xfffe6bf0>
   27678:	94800814 	ori	r18,r18,32
   2767c:	ac400007 	ldb	r17,0(r21)
   27680:	003d5b06 	br	26bf0 <__alt_data_end+0xfffe6bf0>
   27684:	d8c02d17 	ldw	r3,180(sp)
   27688:	d8002785 	stb	zero,158(sp)
   2768c:	1c000017 	ldw	r16,0(r3)
   27690:	1cc00104 	addi	r19,r3,4
   27694:	80041926 	beq	r16,zero,286fc <___vfprintf_internal_r+0x1c90>
   27698:	d9002917 	ldw	r4,164(sp)
   2769c:	2003d016 	blt	r4,zero,285e0 <___vfprintf_internal_r+0x1b74>
   276a0:	200d883a 	mov	r6,r4
   276a4:	000b883a 	mov	r5,zero
   276a8:	8009883a 	mov	r4,r16
   276ac:	da003d15 	stw	r8,244(sp)
   276b0:	002bac80 	call	2bac8 <memchr>
   276b4:	da003d17 	ldw	r8,244(sp)
   276b8:	10045426 	beq	r2,zero,2880c <___vfprintf_internal_r+0x1da0>
   276bc:	1405c83a 	sub	r2,r2,r16
   276c0:	d8802e15 	stw	r2,184(sp)
   276c4:	1003cc16 	blt	r2,zero,285f8 <___vfprintf_internal_r+0x1b8c>
   276c8:	df002783 	ldbu	fp,158(sp)
   276cc:	d8802a15 	stw	r2,168(sp)
   276d0:	dcc02d15 	stw	r19,180(sp)
   276d4:	d8002915 	stw	zero,164(sp)
   276d8:	d8003215 	stw	zero,200(sp)
   276dc:	003eb006 	br	271a0 <__alt_data_end+0xfffe71a0>
   276e0:	18c03fcc 	andi	r3,r3,255
   276e4:	183f9b26 	beq	r3,zero,27554 <__alt_data_end+0xfffe7554>
   276e8:	d9c02785 	stb	r7,158(sp)
   276ec:	003f9906 	br	27554 <__alt_data_end+0xfffe7554>
   276f0:	18c03fcc 	andi	r3,r3,255
   276f4:	1805551e 	bne	r3,zero,28c4c <___vfprintf_internal_r+0x21e0>
   276f8:	014000f4 	movhi	r5,3
   276fc:	29553d04 	addi	r5,r5,21748
   27700:	d9403915 	stw	r5,228(sp)
   27704:	9080080c 	andi	r2,r18,32
   27708:	103fae1e 	bne	r2,zero,275c4 <__alt_data_end+0xfffe75c4>
   2770c:	9080040c 	andi	r2,r18,16
   27710:	1002de26 	beq	r2,zero,2828c <___vfprintf_internal_r+0x1820>
   27714:	d8c02d17 	ldw	r3,180(sp)
   27718:	002d883a 	mov	r22,zero
   2771c:	1cc00017 	ldw	r19,0(r3)
   27720:	18c00104 	addi	r3,r3,4
   27724:	d8c02d15 	stw	r3,180(sp)
   27728:	003fab06 	br	275d8 <__alt_data_end+0xfffe75d8>
   2772c:	38803fcc 	andi	r2,r7,255
   27730:	1080201c 	xori	r2,r2,128
   27734:	10bfe004 	addi	r2,r2,-128
   27738:	1002d21e 	bne	r2,zero,28284 <___vfprintf_internal_r+0x1818>
   2773c:	00c00044 	movi	r3,1
   27740:	01c00804 	movi	r7,32
   27744:	ac400007 	ldb	r17,0(r21)
   27748:	003d2906 	br	26bf0 <__alt_data_end+0xfffe6bf0>
   2774c:	94800054 	ori	r18,r18,1
   27750:	ac400007 	ldb	r17,0(r21)
   27754:	003d2606 	br	26bf0 <__alt_data_end+0xfffe6bf0>
   27758:	18c03fcc 	andi	r3,r3,255
   2775c:	183e0526 	beq	r3,zero,26f74 <__alt_data_end+0xfffe6f74>
   27760:	d9c02785 	stb	r7,158(sp)
   27764:	003e0306 	br	26f74 <__alt_data_end+0xfffe6f74>
   27768:	94801014 	ori	r18,r18,64
   2776c:	ac400007 	ldb	r17,0(r21)
   27770:	003d1f06 	br	26bf0 <__alt_data_end+0xfffe6bf0>
   27774:	ac400007 	ldb	r17,0(r21)
   27778:	8a438726 	beq	r17,r9,28598 <___vfprintf_internal_r+0x1b2c>
   2777c:	94800414 	ori	r18,r18,16
   27780:	003d1b06 	br	26bf0 <__alt_data_end+0xfffe6bf0>
   27784:	18c03fcc 	andi	r3,r3,255
   27788:	1805341e 	bne	r3,zero,28c5c <___vfprintf_internal_r+0x21f0>
   2778c:	9080080c 	andi	r2,r18,32
   27790:	1002cd26 	beq	r2,zero,282c8 <___vfprintf_internal_r+0x185c>
   27794:	d9402d17 	ldw	r5,180(sp)
   27798:	d9002f17 	ldw	r4,188(sp)
   2779c:	28800017 	ldw	r2,0(r5)
   277a0:	2007d7fa 	srai	r3,r4,31
   277a4:	29400104 	addi	r5,r5,4
   277a8:	d9402d15 	stw	r5,180(sp)
   277ac:	11000015 	stw	r4,0(r2)
   277b0:	10c00115 	stw	r3,4(r2)
   277b4:	003ce506 	br	26b4c <__alt_data_end+0xfffe6b4c>
   277b8:	d8c02d17 	ldw	r3,180(sp)
   277bc:	d9002d17 	ldw	r4,180(sp)
   277c0:	d8002785 	stb	zero,158(sp)
   277c4:	18800017 	ldw	r2,0(r3)
   277c8:	21000104 	addi	r4,r4,4
   277cc:	00c00044 	movi	r3,1
   277d0:	d8c02a15 	stw	r3,168(sp)
   277d4:	d8801405 	stb	r2,80(sp)
   277d8:	d9002d15 	stw	r4,180(sp)
   277dc:	d8c02e15 	stw	r3,184(sp)
   277e0:	d8002915 	stw	zero,164(sp)
   277e4:	d8003215 	stw	zero,200(sp)
   277e8:	dc001404 	addi	r16,sp,80
   277ec:	0039883a 	mov	fp,zero
   277f0:	003e7206 	br	271bc <__alt_data_end+0xfffe71bc>
   277f4:	010000f4 	movhi	r4,3
   277f8:	21153d04 	addi	r4,r4,21748
   277fc:	0039883a 	mov	fp,zero
   27800:	d9003915 	stw	r4,228(sp)
   27804:	04401e04 	movi	r17,120
   27808:	003f8206 	br	27614 <__alt_data_end+0xfffe7614>
   2780c:	18c03fcc 	andi	r3,r3,255
   27810:	1805061e 	bne	r3,zero,28c2c <___vfprintf_internal_r+0x21c0>
   27814:	883d9126 	beq	r17,zero,26e5c <__alt_data_end+0xfffe6e5c>
   27818:	00c00044 	movi	r3,1
   2781c:	d8c02a15 	stw	r3,168(sp)
   27820:	dc401405 	stb	r17,80(sp)
   27824:	d8002785 	stb	zero,158(sp)
   27828:	003fec06 	br	277dc <__alt_data_end+0xfffe77dc>
   2782c:	014000f4 	movhi	r5,3
   27830:	29553d04 	addi	r5,r5,21748
   27834:	d9403915 	stw	r5,228(sp)
   27838:	d8c02d15 	stw	r3,180(sp)
   2783c:	1025883a 	mov	r18,r2
   27840:	04401e04 	movi	r17,120
   27844:	9d84b03a 	or	r2,r19,r22
   27848:	1000fc1e 	bne	r2,zero,27c3c <___vfprintf_internal_r+0x11d0>
   2784c:	0039883a 	mov	fp,zero
   27850:	00800084 	movi	r2,2
   27854:	10803fcc 	andi	r2,r2,255
   27858:	00c00044 	movi	r3,1
   2785c:	10c20f26 	beq	r2,r3,2809c <___vfprintf_internal_r+0x1630>
   27860:	00c00084 	movi	r3,2
   27864:	10fd6326 	beq	r2,r3,26df4 <__alt_data_end+0xfffe6df4>
   27868:	003e2d06 	br	27120 <__alt_data_end+0xfffe7120>
   2786c:	d8c02017 	ldw	r3,128(sp)
   27870:	003e9306 	br	272c0 <__alt_data_end+0xfffe72c0>
   27874:	00801944 	movi	r2,101
   27878:	14407e0e 	bge	r2,r17,27a74 <___vfprintf_internal_r+0x1008>
   2787c:	d9003617 	ldw	r4,216(sp)
   27880:	d9403817 	ldw	r5,224(sp)
   27884:	000d883a 	mov	r6,zero
   27888:	000f883a 	mov	r7,zero
   2788c:	d8c03c15 	stw	r3,240(sp)
   27890:	da003d15 	stw	r8,244(sp)
   27894:	00324700 	call	32470 <__eqdf2>
   27898:	d8c03c17 	ldw	r3,240(sp)
   2789c:	da003d17 	ldw	r8,244(sp)
   278a0:	1000f71e 	bne	r2,zero,27c80 <___vfprintf_internal_r+0x1214>
   278a4:	d8801f17 	ldw	r2,124(sp)
   278a8:	010000f4 	movhi	r4,3
   278ac:	21154404 	addi	r4,r4,21776
   278b0:	18c00044 	addi	r3,r3,1
   278b4:	10800044 	addi	r2,r2,1
   278b8:	41000015 	stw	r4,0(r8)
   278bc:	01000044 	movi	r4,1
   278c0:	41000115 	stw	r4,4(r8)
   278c4:	d8c02015 	stw	r3,128(sp)
   278c8:	d8801f15 	stw	r2,124(sp)
   278cc:	010001c4 	movi	r4,7
   278d0:	2082b816 	blt	r4,r2,283b4 <___vfprintf_internal_r+0x1948>
   278d4:	42000204 	addi	r8,r8,8
   278d8:	d8802617 	ldw	r2,152(sp)
   278dc:	d9403317 	ldw	r5,204(sp)
   278e0:	11400216 	blt	r2,r5,278ec <___vfprintf_internal_r+0xe80>
   278e4:	9080004c 	andi	r2,r18,1
   278e8:	103ed526 	beq	r2,zero,27440 <__alt_data_end+0xfffe7440>
   278ec:	d8803717 	ldw	r2,220(sp)
   278f0:	d9003417 	ldw	r4,208(sp)
   278f4:	d9403717 	ldw	r5,220(sp)
   278f8:	1887883a 	add	r3,r3,r2
   278fc:	d8801f17 	ldw	r2,124(sp)
   27900:	41000015 	stw	r4,0(r8)
   27904:	41400115 	stw	r5,4(r8)
   27908:	10800044 	addi	r2,r2,1
   2790c:	d8c02015 	stw	r3,128(sp)
   27910:	d8801f15 	stw	r2,124(sp)
   27914:	010001c4 	movi	r4,7
   27918:	20832916 	blt	r4,r2,285c0 <___vfprintf_internal_r+0x1b54>
   2791c:	42000204 	addi	r8,r8,8
   27920:	d8803317 	ldw	r2,204(sp)
   27924:	143fffc4 	addi	r16,r2,-1
   27928:	043ec50e 	bge	zero,r16,27440 <__alt_data_end+0xfffe7440>
   2792c:	04400404 	movi	r17,16
   27930:	d8801f17 	ldw	r2,124(sp)
   27934:	8c00880e 	bge	r17,r16,27b58 <___vfprintf_internal_r+0x10ec>
   27938:	014000f4 	movhi	r5,3
   2793c:	29554c84 	addi	r5,r5,21810
   27940:	d9402b15 	stw	r5,172(sp)
   27944:	058001c4 	movi	r22,7
   27948:	dcc02c17 	ldw	r19,176(sp)
   2794c:	00000306 	br	2795c <___vfprintf_internal_r+0xef0>
   27950:	42000204 	addi	r8,r8,8
   27954:	843ffc04 	addi	r16,r16,-16
   27958:	8c00820e 	bge	r17,r16,27b64 <___vfprintf_internal_r+0x10f8>
   2795c:	18c00404 	addi	r3,r3,16
   27960:	10800044 	addi	r2,r2,1
   27964:	45000015 	stw	r20,0(r8)
   27968:	44400115 	stw	r17,4(r8)
   2796c:	d8c02015 	stw	r3,128(sp)
   27970:	d8801f15 	stw	r2,124(sp)
   27974:	b0bff60e 	bge	r22,r2,27950 <__alt_data_end+0xfffe7950>
   27978:	d9801e04 	addi	r6,sp,120
   2797c:	b80b883a 	mov	r5,r23
   27980:	9809883a 	mov	r4,r19
   27984:	002ebd00 	call	2ebd0 <__sprint_r>
   27988:	103d3a1e 	bne	r2,zero,26e74 <__alt_data_end+0xfffe6e74>
   2798c:	d8c02017 	ldw	r3,128(sp)
   27990:	d8801f17 	ldw	r2,124(sp)
   27994:	da000404 	addi	r8,sp,16
   27998:	003fee06 	br	27954 <__alt_data_end+0xfffe7954>
   2799c:	d9403117 	ldw	r5,196(sp)
   279a0:	d8802a17 	ldw	r2,168(sp)
   279a4:	28adc83a 	sub	r22,r5,r2
   279a8:	05be630e 	bge	zero,r22,27338 <__alt_data_end+0xfffe7338>
   279ac:	07000404 	movi	fp,16
   279b0:	d8801f17 	ldw	r2,124(sp)
   279b4:	e5838f0e 	bge	fp,r22,287f4 <___vfprintf_internal_r+0x1d88>
   279b8:	014000f4 	movhi	r5,3
   279bc:	29554c84 	addi	r5,r5,21810
   279c0:	dc403015 	stw	r17,192(sp)
   279c4:	d9402b15 	stw	r5,172(sp)
   279c8:	b023883a 	mov	r17,r22
   279cc:	04c001c4 	movi	r19,7
   279d0:	a82d883a 	mov	r22,r21
   279d4:	902b883a 	mov	r21,r18
   279d8:	8025883a 	mov	r18,r16
   279dc:	dc002c17 	ldw	r16,176(sp)
   279e0:	00000306 	br	279f0 <___vfprintf_internal_r+0xf84>
   279e4:	8c7ffc04 	addi	r17,r17,-16
   279e8:	42000204 	addi	r8,r8,8
   279ec:	e440110e 	bge	fp,r17,27a34 <___vfprintf_internal_r+0xfc8>
   279f0:	18c00404 	addi	r3,r3,16
   279f4:	10800044 	addi	r2,r2,1
   279f8:	45000015 	stw	r20,0(r8)
   279fc:	47000115 	stw	fp,4(r8)
   27a00:	d8c02015 	stw	r3,128(sp)
   27a04:	d8801f15 	stw	r2,124(sp)
   27a08:	98bff60e 	bge	r19,r2,279e4 <__alt_data_end+0xfffe79e4>
   27a0c:	d9801e04 	addi	r6,sp,120
   27a10:	b80b883a 	mov	r5,r23
   27a14:	8009883a 	mov	r4,r16
   27a18:	002ebd00 	call	2ebd0 <__sprint_r>
   27a1c:	103d151e 	bne	r2,zero,26e74 <__alt_data_end+0xfffe6e74>
   27a20:	8c7ffc04 	addi	r17,r17,-16
   27a24:	d8c02017 	ldw	r3,128(sp)
   27a28:	d8801f17 	ldw	r2,124(sp)
   27a2c:	da000404 	addi	r8,sp,16
   27a30:	e47fef16 	blt	fp,r17,279f0 <__alt_data_end+0xfffe79f0>
   27a34:	9021883a 	mov	r16,r18
   27a38:	a825883a 	mov	r18,r21
   27a3c:	b02b883a 	mov	r21,r22
   27a40:	882d883a 	mov	r22,r17
   27a44:	dc403017 	ldw	r17,192(sp)
   27a48:	d9002b17 	ldw	r4,172(sp)
   27a4c:	1d87883a 	add	r3,r3,r22
   27a50:	10800044 	addi	r2,r2,1
   27a54:	41000015 	stw	r4,0(r8)
   27a58:	45800115 	stw	r22,4(r8)
   27a5c:	d8c02015 	stw	r3,128(sp)
   27a60:	d8801f15 	stw	r2,124(sp)
   27a64:	010001c4 	movi	r4,7
   27a68:	20818e16 	blt	r4,r2,280a4 <___vfprintf_internal_r+0x1638>
   27a6c:	42000204 	addi	r8,r8,8
   27a70:	003e3106 	br	27338 <__alt_data_end+0xfffe7338>
   27a74:	d9403317 	ldw	r5,204(sp)
   27a78:	00800044 	movi	r2,1
   27a7c:	18c00044 	addi	r3,r3,1
   27a80:	1141530e 	bge	r2,r5,27fd0 <___vfprintf_internal_r+0x1564>
   27a84:	dc401f17 	ldw	r17,124(sp)
   27a88:	00800044 	movi	r2,1
   27a8c:	40800115 	stw	r2,4(r8)
   27a90:	8c400044 	addi	r17,r17,1
   27a94:	44000015 	stw	r16,0(r8)
   27a98:	d8c02015 	stw	r3,128(sp)
   27a9c:	dc401f15 	stw	r17,124(sp)
   27aa0:	008001c4 	movi	r2,7
   27aa4:	14416b16 	blt	r2,r17,28054 <___vfprintf_internal_r+0x15e8>
   27aa8:	42000204 	addi	r8,r8,8
   27aac:	d8803717 	ldw	r2,220(sp)
   27ab0:	d9003417 	ldw	r4,208(sp)
   27ab4:	8c400044 	addi	r17,r17,1
   27ab8:	10c7883a 	add	r3,r2,r3
   27abc:	40800115 	stw	r2,4(r8)
   27ac0:	41000015 	stw	r4,0(r8)
   27ac4:	d8c02015 	stw	r3,128(sp)
   27ac8:	dc401f15 	stw	r17,124(sp)
   27acc:	008001c4 	movi	r2,7
   27ad0:	14416916 	blt	r2,r17,28078 <___vfprintf_internal_r+0x160c>
   27ad4:	45800204 	addi	r22,r8,8
   27ad8:	d9003617 	ldw	r4,216(sp)
   27adc:	d9403817 	ldw	r5,224(sp)
   27ae0:	000d883a 	mov	r6,zero
   27ae4:	000f883a 	mov	r7,zero
   27ae8:	d8c03c15 	stw	r3,240(sp)
   27aec:	00324700 	call	32470 <__eqdf2>
   27af0:	d8c03c17 	ldw	r3,240(sp)
   27af4:	1000bc26 	beq	r2,zero,27de8 <___vfprintf_internal_r+0x137c>
   27af8:	d9403317 	ldw	r5,204(sp)
   27afc:	84000044 	addi	r16,r16,1
   27b00:	8c400044 	addi	r17,r17,1
   27b04:	28bfffc4 	addi	r2,r5,-1
   27b08:	1887883a 	add	r3,r3,r2
   27b0c:	b0800115 	stw	r2,4(r22)
   27b10:	b4000015 	stw	r16,0(r22)
   27b14:	d8c02015 	stw	r3,128(sp)
   27b18:	dc401f15 	stw	r17,124(sp)
   27b1c:	008001c4 	movi	r2,7
   27b20:	14414316 	blt	r2,r17,28030 <___vfprintf_internal_r+0x15c4>
   27b24:	b5800204 	addi	r22,r22,8
   27b28:	d9003a17 	ldw	r4,232(sp)
   27b2c:	df0022c4 	addi	fp,sp,139
   27b30:	8c400044 	addi	r17,r17,1
   27b34:	20c7883a 	add	r3,r4,r3
   27b38:	b7000015 	stw	fp,0(r22)
   27b3c:	b1000115 	stw	r4,4(r22)
   27b40:	d8c02015 	stw	r3,128(sp)
   27b44:	dc401f15 	stw	r17,124(sp)
   27b48:	008001c4 	movi	r2,7
   27b4c:	14400e16 	blt	r2,r17,27b88 <___vfprintf_internal_r+0x111c>
   27b50:	b2000204 	addi	r8,r22,8
   27b54:	003e3a06 	br	27440 <__alt_data_end+0xfffe7440>
   27b58:	010000f4 	movhi	r4,3
   27b5c:	21154c84 	addi	r4,r4,21810
   27b60:	d9002b15 	stw	r4,172(sp)
   27b64:	d9002b17 	ldw	r4,172(sp)
   27b68:	1c07883a 	add	r3,r3,r16
   27b6c:	44000115 	stw	r16,4(r8)
   27b70:	41000015 	stw	r4,0(r8)
   27b74:	10800044 	addi	r2,r2,1
   27b78:	d8c02015 	stw	r3,128(sp)
   27b7c:	d8801f15 	stw	r2,124(sp)
   27b80:	010001c4 	movi	r4,7
   27b84:	20be2d0e 	bge	r4,r2,2743c <__alt_data_end+0xfffe743c>
   27b88:	d9002c17 	ldw	r4,176(sp)
   27b8c:	d9801e04 	addi	r6,sp,120
   27b90:	b80b883a 	mov	r5,r23
   27b94:	002ebd00 	call	2ebd0 <__sprint_r>
   27b98:	103cb61e 	bne	r2,zero,26e74 <__alt_data_end+0xfffe6e74>
   27b9c:	d8c02017 	ldw	r3,128(sp)
   27ba0:	da000404 	addi	r8,sp,16
   27ba4:	003e2606 	br	27440 <__alt_data_end+0xfffe7440>
   27ba8:	d9002c17 	ldw	r4,176(sp)
   27bac:	d9801e04 	addi	r6,sp,120
   27bb0:	b80b883a 	mov	r5,r23
   27bb4:	002ebd00 	call	2ebd0 <__sprint_r>
   27bb8:	103e5d26 	beq	r2,zero,27530 <__alt_data_end+0xfffe7530>
   27bbc:	003cad06 	br	26e74 <__alt_data_end+0xfffe6e74>
   27bc0:	d9002c17 	ldw	r4,176(sp)
   27bc4:	d9801e04 	addi	r6,sp,120
   27bc8:	b80b883a 	mov	r5,r23
   27bcc:	002ebd00 	call	2ebd0 <__sprint_r>
   27bd0:	103ca81e 	bne	r2,zero,26e74 <__alt_data_end+0xfffe6e74>
   27bd4:	d8c02017 	ldw	r3,128(sp)
   27bd8:	da000404 	addi	r8,sp,16
   27bdc:	003e0b06 	br	2740c <__alt_data_end+0xfffe740c>
   27be0:	d9002c17 	ldw	r4,176(sp)
   27be4:	d9801e04 	addi	r6,sp,120
   27be8:	b80b883a 	mov	r5,r23
   27bec:	002ebd00 	call	2ebd0 <__sprint_r>
   27bf0:	103ca01e 	bne	r2,zero,26e74 <__alt_data_end+0xfffe6e74>
   27bf4:	d8c02017 	ldw	r3,128(sp)
   27bf8:	da000404 	addi	r8,sp,16
   27bfc:	003dbd06 	br	272f4 <__alt_data_end+0xfffe72f4>
   27c00:	d9002c17 	ldw	r4,176(sp)
   27c04:	d9801e04 	addi	r6,sp,120
   27c08:	b80b883a 	mov	r5,r23
   27c0c:	002ebd00 	call	2ebd0 <__sprint_r>
   27c10:	103c981e 	bne	r2,zero,26e74 <__alt_data_end+0xfffe6e74>
   27c14:	d8c02017 	ldw	r3,128(sp)
   27c18:	da000404 	addi	r8,sp,16
   27c1c:	003dc306 	br	2732c <__alt_data_end+0xfffe732c>
   27c20:	d8802917 	ldw	r2,164(sp)
   27c24:	d8002785 	stb	zero,158(sp)
   27c28:	103f0616 	blt	r2,zero,27844 <__alt_data_end+0xfffe7844>
   27c2c:	00ffdfc4 	movi	r3,-129
   27c30:	9d84b03a 	or	r2,r19,r22
   27c34:	90e4703a 	and	r18,r18,r3
   27c38:	103c6b26 	beq	r2,zero,26de8 <__alt_data_end+0xfffe6de8>
   27c3c:	0039883a 	mov	fp,zero
   27c40:	003e7406 	br	27614 <__alt_data_end+0xfffe7614>
   27c44:	9080040c 	andi	r2,r18,16
   27c48:	1001b326 	beq	r2,zero,28318 <___vfprintf_internal_r+0x18ac>
   27c4c:	d9002d17 	ldw	r4,180(sp)
   27c50:	d9402917 	ldw	r5,164(sp)
   27c54:	d8002785 	stb	zero,158(sp)
   27c58:	20800104 	addi	r2,r4,4
   27c5c:	24c00017 	ldw	r19,0(r4)
   27c60:	002d883a 	mov	r22,zero
   27c64:	2801b516 	blt	r5,zero,2833c <___vfprintf_internal_r+0x18d0>
   27c68:	00ffdfc4 	movi	r3,-129
   27c6c:	d8802d15 	stw	r2,180(sp)
   27c70:	90e4703a 	and	r18,r18,r3
   27c74:	983d2726 	beq	r19,zero,27114 <__alt_data_end+0xfffe7114>
   27c78:	0039883a 	mov	fp,zero
   27c7c:	003d2a06 	br	27128 <__alt_data_end+0xfffe7128>
   27c80:	dc402617 	ldw	r17,152(sp)
   27c84:	0441d30e 	bge	zero,r17,283d4 <___vfprintf_internal_r+0x1968>
   27c88:	dc403217 	ldw	r17,200(sp)
   27c8c:	d8803317 	ldw	r2,204(sp)
   27c90:	1440010e 	bge	r2,r17,27c98 <___vfprintf_internal_r+0x122c>
   27c94:	1023883a 	mov	r17,r2
   27c98:	04400a0e 	bge	zero,r17,27cc4 <___vfprintf_internal_r+0x1258>
   27c9c:	d8801f17 	ldw	r2,124(sp)
   27ca0:	1c47883a 	add	r3,r3,r17
   27ca4:	44000015 	stw	r16,0(r8)
   27ca8:	10800044 	addi	r2,r2,1
   27cac:	44400115 	stw	r17,4(r8)
   27cb0:	d8c02015 	stw	r3,128(sp)
   27cb4:	d8801f15 	stw	r2,124(sp)
   27cb8:	010001c4 	movi	r4,7
   27cbc:	20826516 	blt	r4,r2,28654 <___vfprintf_internal_r+0x1be8>
   27cc0:	42000204 	addi	r8,r8,8
   27cc4:	88026116 	blt	r17,zero,2864c <___vfprintf_internal_r+0x1be0>
   27cc8:	d9003217 	ldw	r4,200(sp)
   27ccc:	2463c83a 	sub	r17,r4,r17
   27cd0:	04407b0e 	bge	zero,r17,27ec0 <___vfprintf_internal_r+0x1454>
   27cd4:	05800404 	movi	r22,16
   27cd8:	d8801f17 	ldw	r2,124(sp)
   27cdc:	b4419d0e 	bge	r22,r17,28354 <___vfprintf_internal_r+0x18e8>
   27ce0:	010000f4 	movhi	r4,3
   27ce4:	21154c84 	addi	r4,r4,21810
   27ce8:	d9002b15 	stw	r4,172(sp)
   27cec:	070001c4 	movi	fp,7
   27cf0:	dcc02c17 	ldw	r19,176(sp)
   27cf4:	00000306 	br	27d04 <___vfprintf_internal_r+0x1298>
   27cf8:	42000204 	addi	r8,r8,8
   27cfc:	8c7ffc04 	addi	r17,r17,-16
   27d00:	b441970e 	bge	r22,r17,28360 <___vfprintf_internal_r+0x18f4>
   27d04:	18c00404 	addi	r3,r3,16
   27d08:	10800044 	addi	r2,r2,1
   27d0c:	45000015 	stw	r20,0(r8)
   27d10:	45800115 	stw	r22,4(r8)
   27d14:	d8c02015 	stw	r3,128(sp)
   27d18:	d8801f15 	stw	r2,124(sp)
   27d1c:	e0bff60e 	bge	fp,r2,27cf8 <__alt_data_end+0xfffe7cf8>
   27d20:	d9801e04 	addi	r6,sp,120
   27d24:	b80b883a 	mov	r5,r23
   27d28:	9809883a 	mov	r4,r19
   27d2c:	002ebd00 	call	2ebd0 <__sprint_r>
   27d30:	103c501e 	bne	r2,zero,26e74 <__alt_data_end+0xfffe6e74>
   27d34:	d8c02017 	ldw	r3,128(sp)
   27d38:	d8801f17 	ldw	r2,124(sp)
   27d3c:	da000404 	addi	r8,sp,16
   27d40:	003fee06 	br	27cfc <__alt_data_end+0xfffe7cfc>
   27d44:	d9002c17 	ldw	r4,176(sp)
   27d48:	d9801e04 	addi	r6,sp,120
   27d4c:	b80b883a 	mov	r5,r23
   27d50:	002ebd00 	call	2ebd0 <__sprint_r>
   27d54:	103c471e 	bne	r2,zero,26e74 <__alt_data_end+0xfffe6e74>
   27d58:	d8c02017 	ldw	r3,128(sp)
   27d5c:	df002787 	ldb	fp,158(sp)
   27d60:	da000404 	addi	r8,sp,16
   27d64:	003d5606 	br	272c0 <__alt_data_end+0xfffe72c0>
   27d68:	9080040c 	andi	r2,r18,16
   27d6c:	10016126 	beq	r2,zero,282f4 <___vfprintf_internal_r+0x1888>
   27d70:	d8802d17 	ldw	r2,180(sp)
   27d74:	14c00017 	ldw	r19,0(r2)
   27d78:	10800104 	addi	r2,r2,4
   27d7c:	d8802d15 	stw	r2,180(sp)
   27d80:	982dd7fa 	srai	r22,r19,31
   27d84:	b005883a 	mov	r2,r22
   27d88:	003c8206 	br	26f94 <__alt_data_end+0xfffe6f94>
   27d8c:	9080040c 	andi	r2,r18,16
   27d90:	10003526 	beq	r2,zero,27e68 <___vfprintf_internal_r+0x13fc>
   27d94:	d9402d17 	ldw	r5,180(sp)
   27d98:	d8c02917 	ldw	r3,164(sp)
   27d9c:	d8002785 	stb	zero,158(sp)
   27da0:	28800104 	addi	r2,r5,4
   27da4:	2cc00017 	ldw	r19,0(r5)
   27da8:	002d883a 	mov	r22,zero
   27dac:	18003716 	blt	r3,zero,27e8c <___vfprintf_internal_r+0x1420>
   27db0:	00ffdfc4 	movi	r3,-129
   27db4:	d8802d15 	stw	r2,180(sp)
   27db8:	90e4703a 	and	r18,r18,r3
   27dbc:	0039883a 	mov	fp,zero
   27dc0:	983df326 	beq	r19,zero,27590 <__alt_data_end+0xfffe7590>
   27dc4:	00800244 	movi	r2,9
   27dc8:	14fc7b36 	bltu	r2,r19,26fb8 <__alt_data_end+0xfffe6fb8>
   27dcc:	d8c02817 	ldw	r3,160(sp)
   27dd0:	dc001dc4 	addi	r16,sp,119
   27dd4:	9cc00c04 	addi	r19,r19,48
   27dd8:	1c07c83a 	sub	r3,r3,r16
   27ddc:	dcc01dc5 	stb	r19,119(sp)
   27de0:	d8c02e15 	stw	r3,184(sp)
   27de4:	003ce806 	br	27188 <__alt_data_end+0xfffe7188>
   27de8:	d8803317 	ldw	r2,204(sp)
   27dec:	143fffc4 	addi	r16,r2,-1
   27df0:	043f4d0e 	bge	zero,r16,27b28 <__alt_data_end+0xfffe7b28>
   27df4:	07000404 	movi	fp,16
   27df8:	e400810e 	bge	fp,r16,28000 <___vfprintf_internal_r+0x1594>
   27dfc:	014000f4 	movhi	r5,3
   27e00:	29554c84 	addi	r5,r5,21810
   27e04:	d9402b15 	stw	r5,172(sp)
   27e08:	01c001c4 	movi	r7,7
   27e0c:	dcc02c17 	ldw	r19,176(sp)
   27e10:	00000306 	br	27e20 <___vfprintf_internal_r+0x13b4>
   27e14:	b5800204 	addi	r22,r22,8
   27e18:	843ffc04 	addi	r16,r16,-16
   27e1c:	e4007b0e 	bge	fp,r16,2800c <___vfprintf_internal_r+0x15a0>
   27e20:	18c00404 	addi	r3,r3,16
   27e24:	8c400044 	addi	r17,r17,1
   27e28:	b5000015 	stw	r20,0(r22)
   27e2c:	b7000115 	stw	fp,4(r22)
   27e30:	d8c02015 	stw	r3,128(sp)
   27e34:	dc401f15 	stw	r17,124(sp)
   27e38:	3c7ff60e 	bge	r7,r17,27e14 <__alt_data_end+0xfffe7e14>
   27e3c:	d9801e04 	addi	r6,sp,120
   27e40:	b80b883a 	mov	r5,r23
   27e44:	9809883a 	mov	r4,r19
   27e48:	d9c03c15 	stw	r7,240(sp)
   27e4c:	002ebd00 	call	2ebd0 <__sprint_r>
   27e50:	d9c03c17 	ldw	r7,240(sp)
   27e54:	103c071e 	bne	r2,zero,26e74 <__alt_data_end+0xfffe6e74>
   27e58:	d8c02017 	ldw	r3,128(sp)
   27e5c:	dc401f17 	ldw	r17,124(sp)
   27e60:	dd800404 	addi	r22,sp,16
   27e64:	003fec06 	br	27e18 <__alt_data_end+0xfffe7e18>
   27e68:	9080100c 	andi	r2,r18,64
   27e6c:	d8002785 	stb	zero,158(sp)
   27e70:	10010e26 	beq	r2,zero,282ac <___vfprintf_internal_r+0x1840>
   27e74:	d9002d17 	ldw	r4,180(sp)
   27e78:	d9402917 	ldw	r5,164(sp)
   27e7c:	002d883a 	mov	r22,zero
   27e80:	20800104 	addi	r2,r4,4
   27e84:	24c0000b 	ldhu	r19,0(r4)
   27e88:	283fc90e 	bge	r5,zero,27db0 <__alt_data_end+0xfffe7db0>
   27e8c:	d8802d15 	stw	r2,180(sp)
   27e90:	0039883a 	mov	fp,zero
   27e94:	9d84b03a 	or	r2,r19,r22
   27e98:	103c461e 	bne	r2,zero,26fb4 <__alt_data_end+0xfffe6fb4>
   27e9c:	00800044 	movi	r2,1
   27ea0:	003e6c06 	br	27854 <__alt_data_end+0xfffe7854>
   27ea4:	d9002c17 	ldw	r4,176(sp)
   27ea8:	d9801e04 	addi	r6,sp,120
   27eac:	b80b883a 	mov	r5,r23
   27eb0:	002ebd00 	call	2ebd0 <__sprint_r>
   27eb4:	103bef1e 	bne	r2,zero,26e74 <__alt_data_end+0xfffe6e74>
   27eb8:	d8c02017 	ldw	r3,128(sp)
   27ebc:	da000404 	addi	r8,sp,16
   27ec0:	d9003217 	ldw	r4,200(sp)
   27ec4:	d8802617 	ldw	r2,152(sp)
   27ec8:	d9403317 	ldw	r5,204(sp)
   27ecc:	8123883a 	add	r17,r16,r4
   27ed0:	11400216 	blt	r2,r5,27edc <___vfprintf_internal_r+0x1470>
   27ed4:	9100004c 	andi	r4,r18,1
   27ed8:	20000d26 	beq	r4,zero,27f10 <___vfprintf_internal_r+0x14a4>
   27edc:	d9003717 	ldw	r4,220(sp)
   27ee0:	d9403417 	ldw	r5,208(sp)
   27ee4:	1907883a 	add	r3,r3,r4
   27ee8:	d9001f17 	ldw	r4,124(sp)
   27eec:	41400015 	stw	r5,0(r8)
   27ef0:	d9403717 	ldw	r5,220(sp)
   27ef4:	21000044 	addi	r4,r4,1
   27ef8:	d8c02015 	stw	r3,128(sp)
   27efc:	41400115 	stw	r5,4(r8)
   27f00:	d9001f15 	stw	r4,124(sp)
   27f04:	014001c4 	movi	r5,7
   27f08:	2901e816 	blt	r5,r4,286ac <___vfprintf_internal_r+0x1c40>
   27f0c:	42000204 	addi	r8,r8,8
   27f10:	d9003317 	ldw	r4,204(sp)
   27f14:	8121883a 	add	r16,r16,r4
   27f18:	2085c83a 	sub	r2,r4,r2
   27f1c:	8461c83a 	sub	r16,r16,r17
   27f20:	1400010e 	bge	r2,r16,27f28 <___vfprintf_internal_r+0x14bc>
   27f24:	1021883a 	mov	r16,r2
   27f28:	04000a0e 	bge	zero,r16,27f54 <___vfprintf_internal_r+0x14e8>
   27f2c:	d9001f17 	ldw	r4,124(sp)
   27f30:	1c07883a 	add	r3,r3,r16
   27f34:	44400015 	stw	r17,0(r8)
   27f38:	21000044 	addi	r4,r4,1
   27f3c:	44000115 	stw	r16,4(r8)
   27f40:	d8c02015 	stw	r3,128(sp)
   27f44:	d9001f15 	stw	r4,124(sp)
   27f48:	014001c4 	movi	r5,7
   27f4c:	2901fb16 	blt	r5,r4,2873c <___vfprintf_internal_r+0x1cd0>
   27f50:	42000204 	addi	r8,r8,8
   27f54:	8001f716 	blt	r16,zero,28734 <___vfprintf_internal_r+0x1cc8>
   27f58:	1421c83a 	sub	r16,r2,r16
   27f5c:	043d380e 	bge	zero,r16,27440 <__alt_data_end+0xfffe7440>
   27f60:	04400404 	movi	r17,16
   27f64:	d8801f17 	ldw	r2,124(sp)
   27f68:	8c3efb0e 	bge	r17,r16,27b58 <__alt_data_end+0xfffe7b58>
   27f6c:	014000f4 	movhi	r5,3
   27f70:	29554c84 	addi	r5,r5,21810
   27f74:	d9402b15 	stw	r5,172(sp)
   27f78:	058001c4 	movi	r22,7
   27f7c:	dcc02c17 	ldw	r19,176(sp)
   27f80:	00000306 	br	27f90 <___vfprintf_internal_r+0x1524>
   27f84:	42000204 	addi	r8,r8,8
   27f88:	843ffc04 	addi	r16,r16,-16
   27f8c:	8c3ef50e 	bge	r17,r16,27b64 <__alt_data_end+0xfffe7b64>
   27f90:	18c00404 	addi	r3,r3,16
   27f94:	10800044 	addi	r2,r2,1
   27f98:	45000015 	stw	r20,0(r8)
   27f9c:	44400115 	stw	r17,4(r8)
   27fa0:	d8c02015 	stw	r3,128(sp)
   27fa4:	d8801f15 	stw	r2,124(sp)
   27fa8:	b0bff60e 	bge	r22,r2,27f84 <__alt_data_end+0xfffe7f84>
   27fac:	d9801e04 	addi	r6,sp,120
   27fb0:	b80b883a 	mov	r5,r23
   27fb4:	9809883a 	mov	r4,r19
   27fb8:	002ebd00 	call	2ebd0 <__sprint_r>
   27fbc:	103bad1e 	bne	r2,zero,26e74 <__alt_data_end+0xfffe6e74>
   27fc0:	d8c02017 	ldw	r3,128(sp)
   27fc4:	d8801f17 	ldw	r2,124(sp)
   27fc8:	da000404 	addi	r8,sp,16
   27fcc:	003fee06 	br	27f88 <__alt_data_end+0xfffe7f88>
   27fd0:	9088703a 	and	r4,r18,r2
   27fd4:	203eab1e 	bne	r4,zero,27a84 <__alt_data_end+0xfffe7a84>
   27fd8:	dc401f17 	ldw	r17,124(sp)
   27fdc:	40800115 	stw	r2,4(r8)
   27fe0:	44000015 	stw	r16,0(r8)
   27fe4:	8c400044 	addi	r17,r17,1
   27fe8:	d8c02015 	stw	r3,128(sp)
   27fec:	dc401f15 	stw	r17,124(sp)
   27ff0:	008001c4 	movi	r2,7
   27ff4:	14400e16 	blt	r2,r17,28030 <___vfprintf_internal_r+0x15c4>
   27ff8:	45800204 	addi	r22,r8,8
   27ffc:	003eca06 	br	27b28 <__alt_data_end+0xfffe7b28>
   28000:	010000f4 	movhi	r4,3
   28004:	21154c84 	addi	r4,r4,21810
   28008:	d9002b15 	stw	r4,172(sp)
   2800c:	d8802b17 	ldw	r2,172(sp)
   28010:	1c07883a 	add	r3,r3,r16
   28014:	8c400044 	addi	r17,r17,1
   28018:	b0800015 	stw	r2,0(r22)
   2801c:	b4000115 	stw	r16,4(r22)
   28020:	d8c02015 	stw	r3,128(sp)
   28024:	dc401f15 	stw	r17,124(sp)
   28028:	008001c4 	movi	r2,7
   2802c:	147ebd0e 	bge	r2,r17,27b24 <__alt_data_end+0xfffe7b24>
   28030:	d9002c17 	ldw	r4,176(sp)
   28034:	d9801e04 	addi	r6,sp,120
   28038:	b80b883a 	mov	r5,r23
   2803c:	002ebd00 	call	2ebd0 <__sprint_r>
   28040:	103b8c1e 	bne	r2,zero,26e74 <__alt_data_end+0xfffe6e74>
   28044:	d8c02017 	ldw	r3,128(sp)
   28048:	dc401f17 	ldw	r17,124(sp)
   2804c:	dd800404 	addi	r22,sp,16
   28050:	003eb506 	br	27b28 <__alt_data_end+0xfffe7b28>
   28054:	d9002c17 	ldw	r4,176(sp)
   28058:	d9801e04 	addi	r6,sp,120
   2805c:	b80b883a 	mov	r5,r23
   28060:	002ebd00 	call	2ebd0 <__sprint_r>
   28064:	103b831e 	bne	r2,zero,26e74 <__alt_data_end+0xfffe6e74>
   28068:	d8c02017 	ldw	r3,128(sp)
   2806c:	dc401f17 	ldw	r17,124(sp)
   28070:	da000404 	addi	r8,sp,16
   28074:	003e8d06 	br	27aac <__alt_data_end+0xfffe7aac>
   28078:	d9002c17 	ldw	r4,176(sp)
   2807c:	d9801e04 	addi	r6,sp,120
   28080:	b80b883a 	mov	r5,r23
   28084:	002ebd00 	call	2ebd0 <__sprint_r>
   28088:	103b7a1e 	bne	r2,zero,26e74 <__alt_data_end+0xfffe6e74>
   2808c:	d8c02017 	ldw	r3,128(sp)
   28090:	dc401f17 	ldw	r17,124(sp)
   28094:	dd800404 	addi	r22,sp,16
   28098:	003e8f06 	br	27ad8 <__alt_data_end+0xfffe7ad8>
   2809c:	0027883a 	mov	r19,zero
   280a0:	003f4a06 	br	27dcc <__alt_data_end+0xfffe7dcc>
   280a4:	d9002c17 	ldw	r4,176(sp)
   280a8:	d9801e04 	addi	r6,sp,120
   280ac:	b80b883a 	mov	r5,r23
   280b0:	002ebd00 	call	2ebd0 <__sprint_r>
   280b4:	103b6f1e 	bne	r2,zero,26e74 <__alt_data_end+0xfffe6e74>
   280b8:	d8c02017 	ldw	r3,128(sp)
   280bc:	da000404 	addi	r8,sp,16
   280c0:	003c9d06 	br	27338 <__alt_data_end+0xfffe7338>
   280c4:	04e7c83a 	sub	r19,zero,r19
   280c8:	9804c03a 	cmpne	r2,r19,zero
   280cc:	05adc83a 	sub	r22,zero,r22
   280d0:	b0adc83a 	sub	r22,r22,r2
   280d4:	d8802917 	ldw	r2,164(sp)
   280d8:	07000b44 	movi	fp,45
   280dc:	df002785 	stb	fp,158(sp)
   280e0:	10017b16 	blt	r2,zero,286d0 <___vfprintf_internal_r+0x1c64>
   280e4:	00bfdfc4 	movi	r2,-129
   280e8:	90a4703a 	and	r18,r18,r2
   280ec:	003bb106 	br	26fb4 <__alt_data_end+0xfffe6fb4>
   280f0:	d9003617 	ldw	r4,216(sp)
   280f4:	d9403817 	ldw	r5,224(sp)
   280f8:	da003d15 	stw	r8,244(sp)
   280fc:	002d5780 	call	2d578 <__fpclassifyd>
   28100:	da003d17 	ldw	r8,244(sp)
   28104:	1000f026 	beq	r2,zero,284c8 <___vfprintf_internal_r+0x1a5c>
   28108:	d9002917 	ldw	r4,164(sp)
   2810c:	05bff7c4 	movi	r22,-33
   28110:	00bfffc4 	movi	r2,-1
   28114:	8dac703a 	and	r22,r17,r22
   28118:	20820026 	beq	r4,r2,2891c <___vfprintf_internal_r+0x1eb0>
   2811c:	008011c4 	movi	r2,71
   28120:	b081f726 	beq	r22,r2,28900 <___vfprintf_internal_r+0x1e94>
   28124:	d9003817 	ldw	r4,224(sp)
   28128:	90c04014 	ori	r3,r18,256
   2812c:	d8c02b15 	stw	r3,172(sp)
   28130:	20021516 	blt	r4,zero,28988 <___vfprintf_internal_r+0x1f1c>
   28134:	dcc03817 	ldw	r19,224(sp)
   28138:	d8002a05 	stb	zero,168(sp)
   2813c:	00801984 	movi	r2,102
   28140:	8881f926 	beq	r17,r2,28928 <___vfprintf_internal_r+0x1ebc>
   28144:	00801184 	movi	r2,70
   28148:	88821c26 	beq	r17,r2,289bc <___vfprintf_internal_r+0x1f50>
   2814c:	00801144 	movi	r2,69
   28150:	b081ef26 	beq	r22,r2,28910 <___vfprintf_internal_r+0x1ea4>
   28154:	d8c02917 	ldw	r3,164(sp)
   28158:	d8802104 	addi	r2,sp,132
   2815c:	d8800315 	stw	r2,12(sp)
   28160:	d9403617 	ldw	r5,216(sp)
   28164:	d8802504 	addi	r2,sp,148
   28168:	d9002c17 	ldw	r4,176(sp)
   2816c:	d8800215 	stw	r2,8(sp)
   28170:	d8802604 	addi	r2,sp,152
   28174:	d8c00015 	stw	r3,0(sp)
   28178:	d8800115 	stw	r2,4(sp)
   2817c:	01c00084 	movi	r7,2
   28180:	980d883a 	mov	r6,r19
   28184:	d8c03c15 	stw	r3,240(sp)
   28188:	da003d15 	stw	r8,244(sp)
   2818c:	00291440 	call	29144 <_dtoa_r>
   28190:	1021883a 	mov	r16,r2
   28194:	008019c4 	movi	r2,103
   28198:	d8c03c17 	ldw	r3,240(sp)
   2819c:	da003d17 	ldw	r8,244(sp)
   281a0:	88817126 	beq	r17,r2,28768 <___vfprintf_internal_r+0x1cfc>
   281a4:	008011c4 	movi	r2,71
   281a8:	88829226 	beq	r17,r2,28bf4 <___vfprintf_internal_r+0x2188>
   281ac:	80f9883a 	add	fp,r16,r3
   281b0:	d9003617 	ldw	r4,216(sp)
   281b4:	000d883a 	mov	r6,zero
   281b8:	000f883a 	mov	r7,zero
   281bc:	980b883a 	mov	r5,r19
   281c0:	da003d15 	stw	r8,244(sp)
   281c4:	00324700 	call	32470 <__eqdf2>
   281c8:	da003d17 	ldw	r8,244(sp)
   281cc:	10018d26 	beq	r2,zero,28804 <___vfprintf_internal_r+0x1d98>
   281d0:	d8802117 	ldw	r2,132(sp)
   281d4:	1700062e 	bgeu	r2,fp,281f0 <___vfprintf_internal_r+0x1784>
   281d8:	01000c04 	movi	r4,48
   281dc:	10c00044 	addi	r3,r2,1
   281e0:	d8c02115 	stw	r3,132(sp)
   281e4:	11000005 	stb	r4,0(r2)
   281e8:	d8802117 	ldw	r2,132(sp)
   281ec:	173ffb36 	bltu	r2,fp,281dc <__alt_data_end+0xfffe81dc>
   281f0:	1405c83a 	sub	r2,r2,r16
   281f4:	d8803315 	stw	r2,204(sp)
   281f8:	008011c4 	movi	r2,71
   281fc:	b0817626 	beq	r22,r2,287d8 <___vfprintf_internal_r+0x1d6c>
   28200:	00801944 	movi	r2,101
   28204:	1442810e 	bge	r2,r17,28c0c <___vfprintf_internal_r+0x21a0>
   28208:	d8c02617 	ldw	r3,152(sp)
   2820c:	00801984 	movi	r2,102
   28210:	d8c03215 	stw	r3,200(sp)
   28214:	8881fe26 	beq	r17,r2,28a10 <___vfprintf_internal_r+0x1fa4>
   28218:	d8c03217 	ldw	r3,200(sp)
   2821c:	d9003317 	ldw	r4,204(sp)
   28220:	1901dd16 	blt	r3,r4,28998 <___vfprintf_internal_r+0x1f2c>
   28224:	9480004c 	andi	r18,r18,1
   28228:	90022b1e 	bne	r18,zero,28ad8 <___vfprintf_internal_r+0x206c>
   2822c:	1805883a 	mov	r2,r3
   28230:	18028016 	blt	r3,zero,28c34 <___vfprintf_internal_r+0x21c8>
   28234:	d8c03217 	ldw	r3,200(sp)
   28238:	044019c4 	movi	r17,103
   2823c:	d8c02e15 	stw	r3,184(sp)
   28240:	df002a07 	ldb	fp,168(sp)
   28244:	e001531e 	bne	fp,zero,28794 <___vfprintf_internal_r+0x1d28>
   28248:	df002783 	ldbu	fp,158(sp)
   2824c:	d8802a15 	stw	r2,168(sp)
   28250:	dc802b17 	ldw	r18,172(sp)
   28254:	d8002915 	stw	zero,164(sp)
   28258:	003bd106 	br	271a0 <__alt_data_end+0xfffe71a0>
   2825c:	d8802d17 	ldw	r2,180(sp)
   28260:	d8c02d17 	ldw	r3,180(sp)
   28264:	d9002d17 	ldw	r4,180(sp)
   28268:	10800017 	ldw	r2,0(r2)
   2826c:	18c00117 	ldw	r3,4(r3)
   28270:	21000204 	addi	r4,r4,8
   28274:	d8803615 	stw	r2,216(sp)
   28278:	d8c03815 	stw	r3,224(sp)
   2827c:	d9002d15 	stw	r4,180(sp)
   28280:	003b7506 	br	27058 <__alt_data_end+0xfffe7058>
   28284:	ac400007 	ldb	r17,0(r21)
   28288:	003a5906 	br	26bf0 <__alt_data_end+0xfffe6bf0>
   2828c:	9080100c 	andi	r2,r18,64
   28290:	1000a826 	beq	r2,zero,28534 <___vfprintf_internal_r+0x1ac8>
   28294:	d9002d17 	ldw	r4,180(sp)
   28298:	002d883a 	mov	r22,zero
   2829c:	24c0000b 	ldhu	r19,0(r4)
   282a0:	21000104 	addi	r4,r4,4
   282a4:	d9002d15 	stw	r4,180(sp)
   282a8:	003ccb06 	br	275d8 <__alt_data_end+0xfffe75d8>
   282ac:	d8c02d17 	ldw	r3,180(sp)
   282b0:	d9002917 	ldw	r4,164(sp)
   282b4:	002d883a 	mov	r22,zero
   282b8:	18800104 	addi	r2,r3,4
   282bc:	1cc00017 	ldw	r19,0(r3)
   282c0:	203ebb0e 	bge	r4,zero,27db0 <__alt_data_end+0xfffe7db0>
   282c4:	003ef106 	br	27e8c <__alt_data_end+0xfffe7e8c>
   282c8:	9080040c 	andi	r2,r18,16
   282cc:	1000921e 	bne	r2,zero,28518 <___vfprintf_internal_r+0x1aac>
   282d0:	9480100c 	andi	r18,r18,64
   282d4:	90013926 	beq	r18,zero,287bc <___vfprintf_internal_r+0x1d50>
   282d8:	d9002d17 	ldw	r4,180(sp)
   282dc:	d9402f17 	ldw	r5,188(sp)
   282e0:	20800017 	ldw	r2,0(r4)
   282e4:	21000104 	addi	r4,r4,4
   282e8:	d9002d15 	stw	r4,180(sp)
   282ec:	1140000d 	sth	r5,0(r2)
   282f0:	003a1606 	br	26b4c <__alt_data_end+0xfffe6b4c>
   282f4:	9080100c 	andi	r2,r18,64
   282f8:	10008026 	beq	r2,zero,284fc <___vfprintf_internal_r+0x1a90>
   282fc:	d8c02d17 	ldw	r3,180(sp)
   28300:	1cc0000f 	ldh	r19,0(r3)
   28304:	18c00104 	addi	r3,r3,4
   28308:	d8c02d15 	stw	r3,180(sp)
   2830c:	982dd7fa 	srai	r22,r19,31
   28310:	b005883a 	mov	r2,r22
   28314:	003b1f06 	br	26f94 <__alt_data_end+0xfffe6f94>
   28318:	9080100c 	andi	r2,r18,64
   2831c:	d8002785 	stb	zero,158(sp)
   28320:	10008a1e 	bne	r2,zero,2854c <___vfprintf_internal_r+0x1ae0>
   28324:	d9402d17 	ldw	r5,180(sp)
   28328:	d8c02917 	ldw	r3,164(sp)
   2832c:	002d883a 	mov	r22,zero
   28330:	28800104 	addi	r2,r5,4
   28334:	2cc00017 	ldw	r19,0(r5)
   28338:	183e4b0e 	bge	r3,zero,27c68 <__alt_data_end+0xfffe7c68>
   2833c:	9d86b03a 	or	r3,r19,r22
   28340:	d8802d15 	stw	r2,180(sp)
   28344:	183e4c1e 	bne	r3,zero,27c78 <__alt_data_end+0xfffe7c78>
   28348:	0039883a 	mov	fp,zero
   2834c:	0005883a 	mov	r2,zero
   28350:	003d4006 	br	27854 <__alt_data_end+0xfffe7854>
   28354:	014000f4 	movhi	r5,3
   28358:	29554c84 	addi	r5,r5,21810
   2835c:	d9402b15 	stw	r5,172(sp)
   28360:	d9402b17 	ldw	r5,172(sp)
   28364:	1c47883a 	add	r3,r3,r17
   28368:	10800044 	addi	r2,r2,1
   2836c:	41400015 	stw	r5,0(r8)
   28370:	44400115 	stw	r17,4(r8)
   28374:	d8c02015 	stw	r3,128(sp)
   28378:	d8801f15 	stw	r2,124(sp)
   2837c:	010001c4 	movi	r4,7
   28380:	20bec816 	blt	r4,r2,27ea4 <__alt_data_end+0xfffe7ea4>
   28384:	42000204 	addi	r8,r8,8
   28388:	003ecd06 	br	27ec0 <__alt_data_end+0xfffe7ec0>
   2838c:	d9002917 	ldw	r4,164(sp)
   28390:	d8002785 	stb	zero,158(sp)
   28394:	203d2d16 	blt	r4,zero,2784c <__alt_data_end+0xfffe784c>
   28398:	00bfdfc4 	movi	r2,-129
   2839c:	90a4703a 	and	r18,r18,r2
   283a0:	003a9106 	br	26de8 <__alt_data_end+0xfffe6de8>
   283a4:	010000f4 	movhi	r4,3
   283a8:	21154c84 	addi	r4,r4,21810
   283ac:	d9002b15 	stw	r4,172(sp)
   283b0:	003c0c06 	br	273e4 <__alt_data_end+0xfffe73e4>
   283b4:	d9002c17 	ldw	r4,176(sp)
   283b8:	d9801e04 	addi	r6,sp,120
   283bc:	b80b883a 	mov	r5,r23
   283c0:	002ebd00 	call	2ebd0 <__sprint_r>
   283c4:	103aab1e 	bne	r2,zero,26e74 <__alt_data_end+0xfffe6e74>
   283c8:	d8c02017 	ldw	r3,128(sp)
   283cc:	da000404 	addi	r8,sp,16
   283d0:	003d4106 	br	278d8 <__alt_data_end+0xfffe78d8>
   283d4:	d8801f17 	ldw	r2,124(sp)
   283d8:	014000f4 	movhi	r5,3
   283dc:	01000044 	movi	r4,1
   283e0:	18c00044 	addi	r3,r3,1
   283e4:	10800044 	addi	r2,r2,1
   283e8:	29554404 	addi	r5,r5,21776
   283ec:	41000115 	stw	r4,4(r8)
   283f0:	41400015 	stw	r5,0(r8)
   283f4:	d8c02015 	stw	r3,128(sp)
   283f8:	d8801f15 	stw	r2,124(sp)
   283fc:	010001c4 	movi	r4,7
   28400:	20805c16 	blt	r4,r2,28574 <___vfprintf_internal_r+0x1b08>
   28404:	42000204 	addi	r8,r8,8
   28408:	8800041e 	bne	r17,zero,2841c <___vfprintf_internal_r+0x19b0>
   2840c:	d8803317 	ldw	r2,204(sp)
   28410:	1000021e 	bne	r2,zero,2841c <___vfprintf_internal_r+0x19b0>
   28414:	9080004c 	andi	r2,r18,1
   28418:	103c0926 	beq	r2,zero,27440 <__alt_data_end+0xfffe7440>
   2841c:	d9003717 	ldw	r4,220(sp)
   28420:	d8801f17 	ldw	r2,124(sp)
   28424:	d9403417 	ldw	r5,208(sp)
   28428:	20c7883a 	add	r3,r4,r3
   2842c:	10800044 	addi	r2,r2,1
   28430:	41000115 	stw	r4,4(r8)
   28434:	41400015 	stw	r5,0(r8)
   28438:	d8c02015 	stw	r3,128(sp)
   2843c:	d8801f15 	stw	r2,124(sp)
   28440:	010001c4 	movi	r4,7
   28444:	20812116 	blt	r4,r2,288cc <___vfprintf_internal_r+0x1e60>
   28448:	42000204 	addi	r8,r8,8
   2844c:	0463c83a 	sub	r17,zero,r17
   28450:	0440730e 	bge	zero,r17,28620 <___vfprintf_internal_r+0x1bb4>
   28454:	05800404 	movi	r22,16
   28458:	b440860e 	bge	r22,r17,28674 <___vfprintf_internal_r+0x1c08>
   2845c:	014000f4 	movhi	r5,3
   28460:	29554c84 	addi	r5,r5,21810
   28464:	d9402b15 	stw	r5,172(sp)
   28468:	070001c4 	movi	fp,7
   2846c:	dcc02c17 	ldw	r19,176(sp)
   28470:	00000306 	br	28480 <___vfprintf_internal_r+0x1a14>
   28474:	42000204 	addi	r8,r8,8
   28478:	8c7ffc04 	addi	r17,r17,-16
   2847c:	b440800e 	bge	r22,r17,28680 <___vfprintf_internal_r+0x1c14>
   28480:	18c00404 	addi	r3,r3,16
   28484:	10800044 	addi	r2,r2,1
   28488:	45000015 	stw	r20,0(r8)
   2848c:	45800115 	stw	r22,4(r8)
   28490:	d8c02015 	stw	r3,128(sp)
   28494:	d8801f15 	stw	r2,124(sp)
   28498:	e0bff60e 	bge	fp,r2,28474 <__alt_data_end+0xfffe8474>
   2849c:	d9801e04 	addi	r6,sp,120
   284a0:	b80b883a 	mov	r5,r23
   284a4:	9809883a 	mov	r4,r19
   284a8:	002ebd00 	call	2ebd0 <__sprint_r>
   284ac:	103a711e 	bne	r2,zero,26e74 <__alt_data_end+0xfffe6e74>
   284b0:	d8c02017 	ldw	r3,128(sp)
   284b4:	d8801f17 	ldw	r2,124(sp)
   284b8:	da000404 	addi	r8,sp,16
   284bc:	003fee06 	br	28478 <__alt_data_end+0xfffe8478>
   284c0:	00bfffc4 	movi	r2,-1
   284c4:	003a6f06 	br	26e84 <__alt_data_end+0xfffe6e84>
   284c8:	008011c4 	movi	r2,71
   284cc:	1440b816 	blt	r2,r17,287b0 <___vfprintf_internal_r+0x1d44>
   284d0:	040000f4 	movhi	r16,3
   284d4:	84153604 	addi	r16,r16,21720
   284d8:	00c000c4 	movi	r3,3
   284dc:	00bfdfc4 	movi	r2,-129
   284e0:	d8c02a15 	stw	r3,168(sp)
   284e4:	90a4703a 	and	r18,r18,r2
   284e8:	df002783 	ldbu	fp,158(sp)
   284ec:	d8c02e15 	stw	r3,184(sp)
   284f0:	d8002915 	stw	zero,164(sp)
   284f4:	d8003215 	stw	zero,200(sp)
   284f8:	003b2906 	br	271a0 <__alt_data_end+0xfffe71a0>
   284fc:	d9002d17 	ldw	r4,180(sp)
   28500:	24c00017 	ldw	r19,0(r4)
   28504:	21000104 	addi	r4,r4,4
   28508:	d9002d15 	stw	r4,180(sp)
   2850c:	982dd7fa 	srai	r22,r19,31
   28510:	b005883a 	mov	r2,r22
   28514:	003a9f06 	br	26f94 <__alt_data_end+0xfffe6f94>
   28518:	d9402d17 	ldw	r5,180(sp)
   2851c:	d8c02f17 	ldw	r3,188(sp)
   28520:	28800017 	ldw	r2,0(r5)
   28524:	29400104 	addi	r5,r5,4
   28528:	d9402d15 	stw	r5,180(sp)
   2852c:	10c00015 	stw	r3,0(r2)
   28530:	00398606 	br	26b4c <__alt_data_end+0xfffe6b4c>
   28534:	d9402d17 	ldw	r5,180(sp)
   28538:	002d883a 	mov	r22,zero
   2853c:	2cc00017 	ldw	r19,0(r5)
   28540:	29400104 	addi	r5,r5,4
   28544:	d9402d15 	stw	r5,180(sp)
   28548:	003c2306 	br	275d8 <__alt_data_end+0xfffe75d8>
   2854c:	d8c02d17 	ldw	r3,180(sp)
   28550:	d9002917 	ldw	r4,164(sp)
   28554:	002d883a 	mov	r22,zero
   28558:	18800104 	addi	r2,r3,4
   2855c:	1cc0000b 	ldhu	r19,0(r3)
   28560:	203dc10e 	bge	r4,zero,27c68 <__alt_data_end+0xfffe7c68>
   28564:	003f7506 	br	2833c <__alt_data_end+0xfffe833c>
   28568:	040000f4 	movhi	r16,3
   2856c:	84153404 	addi	r16,r16,21712
   28570:	003acc06 	br	270a4 <__alt_data_end+0xfffe70a4>
   28574:	d9002c17 	ldw	r4,176(sp)
   28578:	d9801e04 	addi	r6,sp,120
   2857c:	b80b883a 	mov	r5,r23
   28580:	002ebd00 	call	2ebd0 <__sprint_r>
   28584:	103a3b1e 	bne	r2,zero,26e74 <__alt_data_end+0xfffe6e74>
   28588:	dc402617 	ldw	r17,152(sp)
   2858c:	d8c02017 	ldw	r3,128(sp)
   28590:	da000404 	addi	r8,sp,16
   28594:	003f9c06 	br	28408 <__alt_data_end+0xfffe8408>
   28598:	ac400043 	ldbu	r17,1(r21)
   2859c:	94800814 	ori	r18,r18,32
   285a0:	ad400044 	addi	r21,r21,1
   285a4:	8c403fcc 	andi	r17,r17,255
   285a8:	8c40201c 	xori	r17,r17,128
   285ac:	8c7fe004 	addi	r17,r17,-128
   285b0:	00398f06 	br	26bf0 <__alt_data_end+0xfffe6bf0>
   285b4:	d8c02d15 	stw	r3,180(sp)
   285b8:	0039883a 	mov	fp,zero
   285bc:	003e3506 	br	27e94 <__alt_data_end+0xfffe7e94>
   285c0:	d9002c17 	ldw	r4,176(sp)
   285c4:	d9801e04 	addi	r6,sp,120
   285c8:	b80b883a 	mov	r5,r23
   285cc:	002ebd00 	call	2ebd0 <__sprint_r>
   285d0:	103a281e 	bne	r2,zero,26e74 <__alt_data_end+0xfffe6e74>
   285d4:	d8c02017 	ldw	r3,128(sp)
   285d8:	da000404 	addi	r8,sp,16
   285dc:	003cd006 	br	27920 <__alt_data_end+0xfffe7920>
   285e0:	8009883a 	mov	r4,r16
   285e4:	da003d15 	stw	r8,244(sp)
   285e8:	00247fc0 	call	247fc <strlen>
   285ec:	d8802e15 	stw	r2,184(sp)
   285f0:	da003d17 	ldw	r8,244(sp)
   285f4:	103c340e 	bge	r2,zero,276c8 <__alt_data_end+0xfffe76c8>
   285f8:	0005883a 	mov	r2,zero
   285fc:	003c3206 	br	276c8 <__alt_data_end+0xfffe76c8>
   28600:	d9002c17 	ldw	r4,176(sp)
   28604:	d9801e04 	addi	r6,sp,120
   28608:	b80b883a 	mov	r5,r23
   2860c:	002ebd00 	call	2ebd0 <__sprint_r>
   28610:	103a181e 	bne	r2,zero,26e74 <__alt_data_end+0xfffe6e74>
   28614:	d8c02017 	ldw	r3,128(sp)
   28618:	d8801f17 	ldw	r2,124(sp)
   2861c:	da000404 	addi	r8,sp,16
   28620:	d9403317 	ldw	r5,204(sp)
   28624:	10800044 	addi	r2,r2,1
   28628:	44000015 	stw	r16,0(r8)
   2862c:	28c7883a 	add	r3,r5,r3
   28630:	003b7d06 	br	27428 <__alt_data_end+0xfffe7428>
   28634:	010000f4 	movhi	r4,3
   28638:	21155084 	addi	r4,r4,21826
   2863c:	d9003515 	stw	r4,212(sp)
   28640:	003b1406 	br	27294 <__alt_data_end+0xfffe7294>
   28644:	013fffc4 	movi	r4,-1
   28648:	003a3506 	br	26f20 <__alt_data_end+0xfffe6f20>
   2864c:	0023883a 	mov	r17,zero
   28650:	003d9d06 	br	27cc8 <__alt_data_end+0xfffe7cc8>
   28654:	d9002c17 	ldw	r4,176(sp)
   28658:	d9801e04 	addi	r6,sp,120
   2865c:	b80b883a 	mov	r5,r23
   28660:	002ebd00 	call	2ebd0 <__sprint_r>
   28664:	103a031e 	bne	r2,zero,26e74 <__alt_data_end+0xfffe6e74>
   28668:	d8c02017 	ldw	r3,128(sp)
   2866c:	da000404 	addi	r8,sp,16
   28670:	003d9406 	br	27cc4 <__alt_data_end+0xfffe7cc4>
   28674:	010000f4 	movhi	r4,3
   28678:	21154c84 	addi	r4,r4,21810
   2867c:	d9002b15 	stw	r4,172(sp)
   28680:	d9002b17 	ldw	r4,172(sp)
   28684:	1c47883a 	add	r3,r3,r17
   28688:	10800044 	addi	r2,r2,1
   2868c:	41000015 	stw	r4,0(r8)
   28690:	44400115 	stw	r17,4(r8)
   28694:	d8c02015 	stw	r3,128(sp)
   28698:	d8801f15 	stw	r2,124(sp)
   2869c:	010001c4 	movi	r4,7
   286a0:	20bfd716 	blt	r4,r2,28600 <__alt_data_end+0xfffe8600>
   286a4:	42000204 	addi	r8,r8,8
   286a8:	003fdd06 	br	28620 <__alt_data_end+0xfffe8620>
   286ac:	d9002c17 	ldw	r4,176(sp)
   286b0:	d9801e04 	addi	r6,sp,120
   286b4:	b80b883a 	mov	r5,r23
   286b8:	002ebd00 	call	2ebd0 <__sprint_r>
   286bc:	1039ed1e 	bne	r2,zero,26e74 <__alt_data_end+0xfffe6e74>
   286c0:	d8802617 	ldw	r2,152(sp)
   286c4:	d8c02017 	ldw	r3,128(sp)
   286c8:	da000404 	addi	r8,sp,16
   286cc:	003e1006 	br	27f10 <__alt_data_end+0xfffe7f10>
   286d0:	00800044 	movi	r2,1
   286d4:	10803fcc 	andi	r2,r2,255
   286d8:	00c00044 	movi	r3,1
   286dc:	10fa3526 	beq	r2,r3,26fb4 <__alt_data_end+0xfffe6fb4>
   286e0:	00c00084 	movi	r3,2
   286e4:	10fbcb26 	beq	r2,r3,27614 <__alt_data_end+0xfffe7614>
   286e8:	003a8f06 	br	27128 <__alt_data_end+0xfffe7128>
   286ec:	010000f4 	movhi	r4,3
   286f0:	21155084 	addi	r4,r4,21826
   286f4:	d9003515 	stw	r4,212(sp)
   286f8:	003b7606 	br	274d4 <__alt_data_end+0xfffe74d4>
   286fc:	d8802917 	ldw	r2,164(sp)
   28700:	00c00184 	movi	r3,6
   28704:	1880012e 	bgeu	r3,r2,2870c <___vfprintf_internal_r+0x1ca0>
   28708:	1805883a 	mov	r2,r3
   2870c:	d8802e15 	stw	r2,184(sp)
   28710:	1000ef16 	blt	r2,zero,28ad0 <___vfprintf_internal_r+0x2064>
   28714:	040000f4 	movhi	r16,3
   28718:	d8802a15 	stw	r2,168(sp)
   2871c:	dcc02d15 	stw	r19,180(sp)
   28720:	d8002915 	stw	zero,164(sp)
   28724:	d8003215 	stw	zero,200(sp)
   28728:	84154204 	addi	r16,r16,21768
   2872c:	0039883a 	mov	fp,zero
   28730:	003aa206 	br	271bc <__alt_data_end+0xfffe71bc>
   28734:	0021883a 	mov	r16,zero
   28738:	003e0706 	br	27f58 <__alt_data_end+0xfffe7f58>
   2873c:	d9002c17 	ldw	r4,176(sp)
   28740:	d9801e04 	addi	r6,sp,120
   28744:	b80b883a 	mov	r5,r23
   28748:	002ebd00 	call	2ebd0 <__sprint_r>
   2874c:	1039c91e 	bne	r2,zero,26e74 <__alt_data_end+0xfffe6e74>
   28750:	d8802617 	ldw	r2,152(sp)
   28754:	d9403317 	ldw	r5,204(sp)
   28758:	d8c02017 	ldw	r3,128(sp)
   2875c:	da000404 	addi	r8,sp,16
   28760:	2885c83a 	sub	r2,r5,r2
   28764:	003dfb06 	br	27f54 <__alt_data_end+0xfffe7f54>
   28768:	9080004c 	andi	r2,r18,1
   2876c:	103e8f1e 	bne	r2,zero,281ac <__alt_data_end+0xfffe81ac>
   28770:	d8802117 	ldw	r2,132(sp)
   28774:	003e9e06 	br	281f0 <__alt_data_end+0xfffe81f0>
   28778:	1025883a 	mov	r18,r2
   2877c:	0039883a 	mov	fp,zero
   28780:	00800084 	movi	r2,2
   28784:	003fd306 	br	286d4 <__alt_data_end+0xfffe86d4>
   28788:	07000b44 	movi	fp,45
   2878c:	df002785 	stb	fp,158(sp)
   28790:	003a4006 	br	27094 <__alt_data_end+0xfffe7094>
   28794:	00c00b44 	movi	r3,45
   28798:	d8c02785 	stb	r3,158(sp)
   2879c:	d8802a15 	stw	r2,168(sp)
   287a0:	dc802b17 	ldw	r18,172(sp)
   287a4:	d8002915 	stw	zero,164(sp)
   287a8:	07000b44 	movi	fp,45
   287ac:	003a8006 	br	271b0 <__alt_data_end+0xfffe71b0>
   287b0:	040000f4 	movhi	r16,3
   287b4:	84153704 	addi	r16,r16,21724
   287b8:	003f4706 	br	284d8 <__alt_data_end+0xfffe84d8>
   287bc:	d8c02d17 	ldw	r3,180(sp)
   287c0:	d9002f17 	ldw	r4,188(sp)
   287c4:	18800017 	ldw	r2,0(r3)
   287c8:	18c00104 	addi	r3,r3,4
   287cc:	d8c02d15 	stw	r3,180(sp)
   287d0:	11000015 	stw	r4,0(r2)
   287d4:	0038dd06 	br	26b4c <__alt_data_end+0xfffe6b4c>
   287d8:	dd802617 	ldw	r22,152(sp)
   287dc:	00bfff44 	movi	r2,-3
   287e0:	b0801c16 	blt	r22,r2,28854 <___vfprintf_internal_r+0x1de8>
   287e4:	d9402917 	ldw	r5,164(sp)
   287e8:	2d801a16 	blt	r5,r22,28854 <___vfprintf_internal_r+0x1de8>
   287ec:	dd803215 	stw	r22,200(sp)
   287f0:	003e8906 	br	28218 <__alt_data_end+0xfffe8218>
   287f4:	010000f4 	movhi	r4,3
   287f8:	21154c84 	addi	r4,r4,21810
   287fc:	d9002b15 	stw	r4,172(sp)
   28800:	003c9106 	br	27a48 <__alt_data_end+0xfffe7a48>
   28804:	e005883a 	mov	r2,fp
   28808:	003e7906 	br	281f0 <__alt_data_end+0xfffe81f0>
   2880c:	d9402917 	ldw	r5,164(sp)
   28810:	df002783 	ldbu	fp,158(sp)
   28814:	dcc02d15 	stw	r19,180(sp)
   28818:	d9402a15 	stw	r5,168(sp)
   2881c:	d9402e15 	stw	r5,184(sp)
   28820:	d8002915 	stw	zero,164(sp)
   28824:	d8003215 	stw	zero,200(sp)
   28828:	003a5d06 	br	271a0 <__alt_data_end+0xfffe71a0>
   2882c:	9080004c 	andi	r2,r18,1
   28830:	0039883a 	mov	fp,zero
   28834:	10000426 	beq	r2,zero,28848 <___vfprintf_internal_r+0x1ddc>
   28838:	00800c04 	movi	r2,48
   2883c:	dc001dc4 	addi	r16,sp,119
   28840:	d8801dc5 	stb	r2,119(sp)
   28844:	003b8006 	br	27648 <__alt_data_end+0xfffe7648>
   28848:	d8002e15 	stw	zero,184(sp)
   2884c:	dc001e04 	addi	r16,sp,120
   28850:	003a4d06 	br	27188 <__alt_data_end+0xfffe7188>
   28854:	8c7fff84 	addi	r17,r17,-2
   28858:	b5bfffc4 	addi	r22,r22,-1
   2885c:	dd802615 	stw	r22,152(sp)
   28860:	dc4022c5 	stb	r17,139(sp)
   28864:	b000bf16 	blt	r22,zero,28b64 <___vfprintf_internal_r+0x20f8>
   28868:	00800ac4 	movi	r2,43
   2886c:	d8802305 	stb	r2,140(sp)
   28870:	00800244 	movi	r2,9
   28874:	15807016 	blt	r2,r22,28a38 <___vfprintf_internal_r+0x1fcc>
   28878:	00800c04 	movi	r2,48
   2887c:	b5800c04 	addi	r22,r22,48
   28880:	d8802345 	stb	r2,141(sp)
   28884:	dd802385 	stb	r22,142(sp)
   28888:	d88023c4 	addi	r2,sp,143
   2888c:	df0022c4 	addi	fp,sp,139
   28890:	d8c03317 	ldw	r3,204(sp)
   28894:	1739c83a 	sub	fp,r2,fp
   28898:	d9003317 	ldw	r4,204(sp)
   2889c:	e0c7883a 	add	r3,fp,r3
   288a0:	df003a15 	stw	fp,232(sp)
   288a4:	d8c02e15 	stw	r3,184(sp)
   288a8:	00800044 	movi	r2,1
   288ac:	1100b30e 	bge	r2,r4,28b7c <___vfprintf_internal_r+0x2110>
   288b0:	d8c02e17 	ldw	r3,184(sp)
   288b4:	18c00044 	addi	r3,r3,1
   288b8:	d8c02e15 	stw	r3,184(sp)
   288bc:	1805883a 	mov	r2,r3
   288c0:	1800ac16 	blt	r3,zero,28b74 <___vfprintf_internal_r+0x2108>
   288c4:	d8003215 	stw	zero,200(sp)
   288c8:	003e5d06 	br	28240 <__alt_data_end+0xfffe8240>
   288cc:	d9002c17 	ldw	r4,176(sp)
   288d0:	d9801e04 	addi	r6,sp,120
   288d4:	b80b883a 	mov	r5,r23
   288d8:	002ebd00 	call	2ebd0 <__sprint_r>
   288dc:	1039651e 	bne	r2,zero,26e74 <__alt_data_end+0xfffe6e74>
   288e0:	dc402617 	ldw	r17,152(sp)
   288e4:	d8c02017 	ldw	r3,128(sp)
   288e8:	d8801f17 	ldw	r2,124(sp)
   288ec:	da000404 	addi	r8,sp,16
   288f0:	003ed606 	br	2844c <__alt_data_end+0xfffe844c>
   288f4:	582b883a 	mov	r21,r11
   288f8:	d8002915 	stw	zero,164(sp)
   288fc:	0038bd06 	br	26bf4 <__alt_data_end+0xfffe6bf4>
   28900:	d8802917 	ldw	r2,164(sp)
   28904:	103e071e 	bne	r2,zero,28124 <__alt_data_end+0xfffe8124>
   28908:	dc002915 	stw	r16,164(sp)
   2890c:	003e0506 	br	28124 <__alt_data_end+0xfffe8124>
   28910:	d9002917 	ldw	r4,164(sp)
   28914:	20c00044 	addi	r3,r4,1
   28918:	003e0f06 	br	28158 <__alt_data_end+0xfffe8158>
   2891c:	01400184 	movi	r5,6
   28920:	d9402915 	stw	r5,164(sp)
   28924:	003dff06 	br	28124 <__alt_data_end+0xfffe8124>
   28928:	d8802104 	addi	r2,sp,132
   2892c:	d8800315 	stw	r2,12(sp)
   28930:	d8802504 	addi	r2,sp,148
   28934:	d8800215 	stw	r2,8(sp)
   28938:	d8802604 	addi	r2,sp,152
   2893c:	d8800115 	stw	r2,4(sp)
   28940:	d8802917 	ldw	r2,164(sp)
   28944:	d9403617 	ldw	r5,216(sp)
   28948:	d9002c17 	ldw	r4,176(sp)
   2894c:	d8800015 	stw	r2,0(sp)
   28950:	01c000c4 	movi	r7,3
   28954:	980d883a 	mov	r6,r19
   28958:	da003d15 	stw	r8,244(sp)
   2895c:	00291440 	call	29144 <_dtoa_r>
   28960:	d8c02917 	ldw	r3,164(sp)
   28964:	da003d17 	ldw	r8,244(sp)
   28968:	1021883a 	mov	r16,r2
   2896c:	10f9883a 	add	fp,r2,r3
   28970:	81000007 	ldb	r4,0(r16)
   28974:	00800c04 	movi	r2,48
   28978:	20805e26 	beq	r4,r2,28af4 <___vfprintf_internal_r+0x2088>
   2897c:	d8c02617 	ldw	r3,152(sp)
   28980:	e0f9883a 	add	fp,fp,r3
   28984:	003e0a06 	br	281b0 <__alt_data_end+0xfffe81b0>
   28988:	00c00b44 	movi	r3,45
   2898c:	24e0003c 	xorhi	r19,r4,32768
   28990:	d8c02a05 	stb	r3,168(sp)
   28994:	003de906 	br	2813c <__alt_data_end+0xfffe813c>
   28998:	d8c03217 	ldw	r3,200(sp)
   2899c:	00c07a0e 	bge	zero,r3,28b88 <___vfprintf_internal_r+0x211c>
   289a0:	00800044 	movi	r2,1
   289a4:	d9003317 	ldw	r4,204(sp)
   289a8:	1105883a 	add	r2,r2,r4
   289ac:	d8802e15 	stw	r2,184(sp)
   289b0:	10004e16 	blt	r2,zero,28aec <___vfprintf_internal_r+0x2080>
   289b4:	044019c4 	movi	r17,103
   289b8:	003e2106 	br	28240 <__alt_data_end+0xfffe8240>
   289bc:	d9002917 	ldw	r4,164(sp)
   289c0:	d8802104 	addi	r2,sp,132
   289c4:	d8800315 	stw	r2,12(sp)
   289c8:	d9000015 	stw	r4,0(sp)
   289cc:	d8802504 	addi	r2,sp,148
   289d0:	d9403617 	ldw	r5,216(sp)
   289d4:	d9002c17 	ldw	r4,176(sp)
   289d8:	d8800215 	stw	r2,8(sp)
   289dc:	d8802604 	addi	r2,sp,152
   289e0:	d8800115 	stw	r2,4(sp)
   289e4:	01c000c4 	movi	r7,3
   289e8:	980d883a 	mov	r6,r19
   289ec:	da003d15 	stw	r8,244(sp)
   289f0:	00291440 	call	29144 <_dtoa_r>
   289f4:	d8c02917 	ldw	r3,164(sp)
   289f8:	da003d17 	ldw	r8,244(sp)
   289fc:	1021883a 	mov	r16,r2
   28a00:	00801184 	movi	r2,70
   28a04:	80f9883a 	add	fp,r16,r3
   28a08:	88bfd926 	beq	r17,r2,28970 <__alt_data_end+0xfffe8970>
   28a0c:	003de806 	br	281b0 <__alt_data_end+0xfffe81b0>
   28a10:	d9002917 	ldw	r4,164(sp)
   28a14:	00c04d0e 	bge	zero,r3,28b4c <___vfprintf_internal_r+0x20e0>
   28a18:	2000441e 	bne	r4,zero,28b2c <___vfprintf_internal_r+0x20c0>
   28a1c:	9480004c 	andi	r18,r18,1
   28a20:	9000421e 	bne	r18,zero,28b2c <___vfprintf_internal_r+0x20c0>
   28a24:	1805883a 	mov	r2,r3
   28a28:	18007016 	blt	r3,zero,28bec <___vfprintf_internal_r+0x2180>
   28a2c:	d8c03217 	ldw	r3,200(sp)
   28a30:	d8c02e15 	stw	r3,184(sp)
   28a34:	003e0206 	br	28240 <__alt_data_end+0xfffe8240>
   28a38:	df0022c4 	addi	fp,sp,139
   28a3c:	dc002915 	stw	r16,164(sp)
   28a40:	4027883a 	mov	r19,r8
   28a44:	e021883a 	mov	r16,fp
   28a48:	b009883a 	mov	r4,r22
   28a4c:	01400284 	movi	r5,10
   28a50:	0022d500 	call	22d50 <__modsi3>
   28a54:	10800c04 	addi	r2,r2,48
   28a58:	843fffc4 	addi	r16,r16,-1
   28a5c:	b009883a 	mov	r4,r22
   28a60:	01400284 	movi	r5,10
   28a64:	80800005 	stb	r2,0(r16)
   28a68:	0022ccc0 	call	22ccc <__divsi3>
   28a6c:	102d883a 	mov	r22,r2
   28a70:	00800244 	movi	r2,9
   28a74:	15bff416 	blt	r2,r22,28a48 <__alt_data_end+0xfffe8a48>
   28a78:	9811883a 	mov	r8,r19
   28a7c:	b0800c04 	addi	r2,r22,48
   28a80:	8027883a 	mov	r19,r16
   28a84:	997fffc4 	addi	r5,r19,-1
   28a88:	98bfffc5 	stb	r2,-1(r19)
   28a8c:	dc002917 	ldw	r16,164(sp)
   28a90:	2f006a2e 	bgeu	r5,fp,28c3c <___vfprintf_internal_r+0x21d0>
   28a94:	d9c02384 	addi	r7,sp,142
   28a98:	3ccfc83a 	sub	r7,r7,r19
   28a9c:	d9002344 	addi	r4,sp,141
   28aa0:	e1cf883a 	add	r7,fp,r7
   28aa4:	00000106 	br	28aac <___vfprintf_internal_r+0x2040>
   28aa8:	28800003 	ldbu	r2,0(r5)
   28aac:	20800005 	stb	r2,0(r4)
   28ab0:	21000044 	addi	r4,r4,1
   28ab4:	29400044 	addi	r5,r5,1
   28ab8:	393ffb1e 	bne	r7,r4,28aa8 <__alt_data_end+0xfffe8aa8>
   28abc:	d8802304 	addi	r2,sp,140
   28ac0:	14c5c83a 	sub	r2,r2,r19
   28ac4:	d8c02344 	addi	r3,sp,141
   28ac8:	1885883a 	add	r2,r3,r2
   28acc:	003f7006 	br	28890 <__alt_data_end+0xfffe8890>
   28ad0:	0005883a 	mov	r2,zero
   28ad4:	003f0f06 	br	28714 <__alt_data_end+0xfffe8714>
   28ad8:	d8c03217 	ldw	r3,200(sp)
   28adc:	18c00044 	addi	r3,r3,1
   28ae0:	d8c02e15 	stw	r3,184(sp)
   28ae4:	1805883a 	mov	r2,r3
   28ae8:	183fb20e 	bge	r3,zero,289b4 <__alt_data_end+0xfffe89b4>
   28aec:	0005883a 	mov	r2,zero
   28af0:	003fb006 	br	289b4 <__alt_data_end+0xfffe89b4>
   28af4:	d9003617 	ldw	r4,216(sp)
   28af8:	000d883a 	mov	r6,zero
   28afc:	000f883a 	mov	r7,zero
   28b00:	980b883a 	mov	r5,r19
   28b04:	d8c03c15 	stw	r3,240(sp)
   28b08:	da003d15 	stw	r8,244(sp)
   28b0c:	00324700 	call	32470 <__eqdf2>
   28b10:	d8c03c17 	ldw	r3,240(sp)
   28b14:	da003d17 	ldw	r8,244(sp)
   28b18:	103f9826 	beq	r2,zero,2897c <__alt_data_end+0xfffe897c>
   28b1c:	00800044 	movi	r2,1
   28b20:	10c7c83a 	sub	r3,r2,r3
   28b24:	d8c02615 	stw	r3,152(sp)
   28b28:	003f9506 	br	28980 <__alt_data_end+0xfffe8980>
   28b2c:	d9002917 	ldw	r4,164(sp)
   28b30:	d8c03217 	ldw	r3,200(sp)
   28b34:	20800044 	addi	r2,r4,1
   28b38:	1885883a 	add	r2,r3,r2
   28b3c:	d8802e15 	stw	r2,184(sp)
   28b40:	103dbf0e 	bge	r2,zero,28240 <__alt_data_end+0xfffe8240>
   28b44:	0005883a 	mov	r2,zero
   28b48:	003dbd06 	br	28240 <__alt_data_end+0xfffe8240>
   28b4c:	2000211e 	bne	r4,zero,28bd4 <___vfprintf_internal_r+0x2168>
   28b50:	9480004c 	andi	r18,r18,1
   28b54:	90001f1e 	bne	r18,zero,28bd4 <___vfprintf_internal_r+0x2168>
   28b58:	00800044 	movi	r2,1
   28b5c:	d8802e15 	stw	r2,184(sp)
   28b60:	003db706 	br	28240 <__alt_data_end+0xfffe8240>
   28b64:	00800b44 	movi	r2,45
   28b68:	05adc83a 	sub	r22,zero,r22
   28b6c:	d8802305 	stb	r2,140(sp)
   28b70:	003f3f06 	br	28870 <__alt_data_end+0xfffe8870>
   28b74:	0005883a 	mov	r2,zero
   28b78:	003f5206 	br	288c4 <__alt_data_end+0xfffe88c4>
   28b7c:	90a4703a 	and	r18,r18,r2
   28b80:	903f4e26 	beq	r18,zero,288bc <__alt_data_end+0xfffe88bc>
   28b84:	003f4a06 	br	288b0 <__alt_data_end+0xfffe88b0>
   28b88:	00800084 	movi	r2,2
   28b8c:	10c5c83a 	sub	r2,r2,r3
   28b90:	003f8406 	br	289a4 <__alt_data_end+0xfffe89a4>
   28b94:	d8802d17 	ldw	r2,180(sp)
   28b98:	d9002d17 	ldw	r4,180(sp)
   28b9c:	ac400043 	ldbu	r17,1(r21)
   28ba0:	10800017 	ldw	r2,0(r2)
   28ba4:	582b883a 	mov	r21,r11
   28ba8:	d8802915 	stw	r2,164(sp)
   28bac:	20800104 	addi	r2,r4,4
   28bb0:	d9002917 	ldw	r4,164(sp)
   28bb4:	d8802d15 	stw	r2,180(sp)
   28bb8:	203e7a0e 	bge	r4,zero,285a4 <__alt_data_end+0xfffe85a4>
   28bbc:	8c403fcc 	andi	r17,r17,255
   28bc0:	00bfffc4 	movi	r2,-1
   28bc4:	8c40201c 	xori	r17,r17,128
   28bc8:	d8802915 	stw	r2,164(sp)
   28bcc:	8c7fe004 	addi	r17,r17,-128
   28bd0:	00380706 	br	26bf0 <__alt_data_end+0xfffe6bf0>
   28bd4:	d8c02917 	ldw	r3,164(sp)
   28bd8:	18c00084 	addi	r3,r3,2
   28bdc:	d8c02e15 	stw	r3,184(sp)
   28be0:	1805883a 	mov	r2,r3
   28be4:	183d960e 	bge	r3,zero,28240 <__alt_data_end+0xfffe8240>
   28be8:	003fd606 	br	28b44 <__alt_data_end+0xfffe8b44>
   28bec:	0005883a 	mov	r2,zero
   28bf0:	003f8e06 	br	28a2c <__alt_data_end+0xfffe8a2c>
   28bf4:	9080004c 	andi	r2,r18,1
   28bf8:	103f811e 	bne	r2,zero,28a00 <__alt_data_end+0xfffe8a00>
   28bfc:	d8802117 	ldw	r2,132(sp)
   28c00:	1405c83a 	sub	r2,r2,r16
   28c04:	d8803315 	stw	r2,204(sp)
   28c08:	b47ef326 	beq	r22,r17,287d8 <__alt_data_end+0xfffe87d8>
   28c0c:	dd802617 	ldw	r22,152(sp)
   28c10:	003f1106 	br	28858 <__alt_data_end+0xfffe8858>
   28c14:	d9c02785 	stb	r7,158(sp)
   28c18:	00390406 	br	2702c <__alt_data_end+0xfffe702c>
   28c1c:	d9c02785 	stb	r7,158(sp)
   28c20:	0038d306 	br	26f70 <__alt_data_end+0xfffe6f70>
   28c24:	d9c02785 	stb	r7,158(sp)
   28c28:	003a6106 	br	275b0 <__alt_data_end+0xfffe75b0>
   28c2c:	d9c02785 	stb	r7,158(sp)
   28c30:	003af806 	br	27814 <__alt_data_end+0xfffe7814>
   28c34:	0005883a 	mov	r2,zero
   28c38:	003d7e06 	br	28234 <__alt_data_end+0xfffe8234>
   28c3c:	d8802344 	addi	r2,sp,141
   28c40:	003f1306 	br	28890 <__alt_data_end+0xfffe8890>
   28c44:	d9c02785 	stb	r7,158(sp)
   28c48:	00392306 	br	270d8 <__alt_data_end+0xfffe70d8>
   28c4c:	d9c02785 	stb	r7,158(sp)
   28c50:	003aa906 	br	276f8 <__alt_data_end+0xfffe76f8>
   28c54:	d9c02785 	stb	r7,158(sp)
   28c58:	003a3d06 	br	27550 <__alt_data_end+0xfffe7550>
   28c5c:	d9c02785 	stb	r7,158(sp)
   28c60:	003aca06 	br	2778c <__alt_data_end+0xfffe778c>

00028c64 <__vfprintf_internal>:
   28c64:	008000f4 	movhi	r2,3
   28c68:	109a9604 	addi	r2,r2,27224
   28c6c:	300f883a 	mov	r7,r6
   28c70:	280d883a 	mov	r6,r5
   28c74:	200b883a 	mov	r5,r4
   28c78:	11000017 	ldw	r4,0(r2)
   28c7c:	0026a6c1 	jmpi	26a6c <___vfprintf_internal_r>

00028c80 <__sbprintf>:
   28c80:	2880030b 	ldhu	r2,12(r5)
   28c84:	2ac01917 	ldw	r11,100(r5)
   28c88:	2a80038b 	ldhu	r10,14(r5)
   28c8c:	2a400717 	ldw	r9,28(r5)
   28c90:	2a000917 	ldw	r8,36(r5)
   28c94:	defee204 	addi	sp,sp,-1144
   28c98:	00c10004 	movi	r3,1024
   28c9c:	dc011a15 	stw	r16,1128(sp)
   28ca0:	10bfff4c 	andi	r2,r2,65533
   28ca4:	2821883a 	mov	r16,r5
   28ca8:	d8cb883a 	add	r5,sp,r3
   28cac:	dc811c15 	stw	r18,1136(sp)
   28cb0:	dc411b15 	stw	r17,1132(sp)
   28cb4:	dfc11d15 	stw	ra,1140(sp)
   28cb8:	2025883a 	mov	r18,r4
   28cbc:	d881030d 	sth	r2,1036(sp)
   28cc0:	dac11915 	stw	r11,1124(sp)
   28cc4:	da81038d 	sth	r10,1038(sp)
   28cc8:	da410715 	stw	r9,1052(sp)
   28ccc:	da010915 	stw	r8,1060(sp)
   28cd0:	dec10015 	stw	sp,1024(sp)
   28cd4:	dec10415 	stw	sp,1040(sp)
   28cd8:	d8c10215 	stw	r3,1032(sp)
   28cdc:	d8c10515 	stw	r3,1044(sp)
   28ce0:	d8010615 	stw	zero,1048(sp)
   28ce4:	0026a6c0 	call	26a6c <___vfprintf_internal_r>
   28ce8:	1023883a 	mov	r17,r2
   28cec:	10000416 	blt	r2,zero,28d00 <__sbprintf+0x80>
   28cf0:	d9410004 	addi	r5,sp,1024
   28cf4:	9009883a 	mov	r4,r18
   28cf8:	002a9e80 	call	2a9e8 <_fflush_r>
   28cfc:	10000d1e 	bne	r2,zero,28d34 <__sbprintf+0xb4>
   28d00:	d881030b 	ldhu	r2,1036(sp)
   28d04:	1080100c 	andi	r2,r2,64
   28d08:	10000326 	beq	r2,zero,28d18 <__sbprintf+0x98>
   28d0c:	8080030b 	ldhu	r2,12(r16)
   28d10:	10801014 	ori	r2,r2,64
   28d14:	8080030d 	sth	r2,12(r16)
   28d18:	8805883a 	mov	r2,r17
   28d1c:	dfc11d17 	ldw	ra,1140(sp)
   28d20:	dc811c17 	ldw	r18,1136(sp)
   28d24:	dc411b17 	ldw	r17,1132(sp)
   28d28:	dc011a17 	ldw	r16,1128(sp)
   28d2c:	dec11e04 	addi	sp,sp,1144
   28d30:	f800283a 	ret
   28d34:	047fffc4 	movi	r17,-1
   28d38:	003ff106 	br	28d00 <__alt_data_end+0xfffe8d00>

00028d3c <_write_r>:
   28d3c:	defffd04 	addi	sp,sp,-12
   28d40:	2805883a 	mov	r2,r5
   28d44:	dc000015 	stw	r16,0(sp)
   28d48:	040000f4 	movhi	r16,3
   28d4c:	dc400115 	stw	r17,4(sp)
   28d50:	300b883a 	mov	r5,r6
   28d54:	841f5204 	addi	r16,r16,32072
   28d58:	2023883a 	mov	r17,r4
   28d5c:	380d883a 	mov	r6,r7
   28d60:	1009883a 	mov	r4,r2
   28d64:	dfc00215 	stw	ra,8(sp)
   28d68:	80000015 	stw	zero,0(r16)
   28d6c:	003417c0 	call	3417c <write>
   28d70:	00ffffc4 	movi	r3,-1
   28d74:	10c00526 	beq	r2,r3,28d8c <_write_r+0x50>
   28d78:	dfc00217 	ldw	ra,8(sp)
   28d7c:	dc400117 	ldw	r17,4(sp)
   28d80:	dc000017 	ldw	r16,0(sp)
   28d84:	dec00304 	addi	sp,sp,12
   28d88:	f800283a 	ret
   28d8c:	80c00017 	ldw	r3,0(r16)
   28d90:	183ff926 	beq	r3,zero,28d78 <__alt_data_end+0xfffe8d78>
   28d94:	88c00015 	stw	r3,0(r17)
   28d98:	003ff706 	br	28d78 <__alt_data_end+0xfffe8d78>

00028d9c <__swsetup_r>:
   28d9c:	008000f4 	movhi	r2,3
   28da0:	defffd04 	addi	sp,sp,-12
   28da4:	109a9604 	addi	r2,r2,27224
   28da8:	dc400115 	stw	r17,4(sp)
   28dac:	2023883a 	mov	r17,r4
   28db0:	11000017 	ldw	r4,0(r2)
   28db4:	dc000015 	stw	r16,0(sp)
   28db8:	dfc00215 	stw	ra,8(sp)
   28dbc:	2821883a 	mov	r16,r5
   28dc0:	20000226 	beq	r4,zero,28dcc <__swsetup_r+0x30>
   28dc4:	20800e17 	ldw	r2,56(r4)
   28dc8:	10003126 	beq	r2,zero,28e90 <__swsetup_r+0xf4>
   28dcc:	8080030b 	ldhu	r2,12(r16)
   28dd0:	10c0020c 	andi	r3,r2,8
   28dd4:	1009883a 	mov	r4,r2
   28dd8:	18000f26 	beq	r3,zero,28e18 <__swsetup_r+0x7c>
   28ddc:	80c00417 	ldw	r3,16(r16)
   28de0:	18001526 	beq	r3,zero,28e38 <__swsetup_r+0x9c>
   28de4:	1100004c 	andi	r4,r2,1
   28de8:	20001c1e 	bne	r4,zero,28e5c <__swsetup_r+0xc0>
   28dec:	1080008c 	andi	r2,r2,2
   28df0:	1000291e 	bne	r2,zero,28e98 <__swsetup_r+0xfc>
   28df4:	80800517 	ldw	r2,20(r16)
   28df8:	80800215 	stw	r2,8(r16)
   28dfc:	18001c26 	beq	r3,zero,28e70 <__swsetup_r+0xd4>
   28e00:	0005883a 	mov	r2,zero
   28e04:	dfc00217 	ldw	ra,8(sp)
   28e08:	dc400117 	ldw	r17,4(sp)
   28e0c:	dc000017 	ldw	r16,0(sp)
   28e10:	dec00304 	addi	sp,sp,12
   28e14:	f800283a 	ret
   28e18:	2080040c 	andi	r2,r4,16
   28e1c:	10002e26 	beq	r2,zero,28ed8 <__swsetup_r+0x13c>
   28e20:	2080010c 	andi	r2,r4,4
   28e24:	10001e1e 	bne	r2,zero,28ea0 <__swsetup_r+0x104>
   28e28:	80c00417 	ldw	r3,16(r16)
   28e2c:	20800214 	ori	r2,r4,8
   28e30:	8080030d 	sth	r2,12(r16)
   28e34:	183feb1e 	bne	r3,zero,28de4 <__alt_data_end+0xfffe8de4>
   28e38:	1100a00c 	andi	r4,r2,640
   28e3c:	01408004 	movi	r5,512
   28e40:	217fe826 	beq	r4,r5,28de4 <__alt_data_end+0xfffe8de4>
   28e44:	800b883a 	mov	r5,r16
   28e48:	8809883a 	mov	r4,r17
   28e4c:	00235600 	call	23560 <__smakebuf_r>
   28e50:	8080030b 	ldhu	r2,12(r16)
   28e54:	80c00417 	ldw	r3,16(r16)
   28e58:	003fe206 	br	28de4 <__alt_data_end+0xfffe8de4>
   28e5c:	80800517 	ldw	r2,20(r16)
   28e60:	80000215 	stw	zero,8(r16)
   28e64:	0085c83a 	sub	r2,zero,r2
   28e68:	80800615 	stw	r2,24(r16)
   28e6c:	183fe41e 	bne	r3,zero,28e00 <__alt_data_end+0xfffe8e00>
   28e70:	80c0030b 	ldhu	r3,12(r16)
   28e74:	0005883a 	mov	r2,zero
   28e78:	1900200c 	andi	r4,r3,128
   28e7c:	203fe126 	beq	r4,zero,28e04 <__alt_data_end+0xfffe8e04>
   28e80:	18c01014 	ori	r3,r3,64
   28e84:	80c0030d 	sth	r3,12(r16)
   28e88:	00bfffc4 	movi	r2,-1
   28e8c:	003fdd06 	br	28e04 <__alt_data_end+0xfffe8e04>
   28e90:	002adc40 	call	2adc4 <__sinit>
   28e94:	003fcd06 	br	28dcc <__alt_data_end+0xfffe8dcc>
   28e98:	0005883a 	mov	r2,zero
   28e9c:	003fd606 	br	28df8 <__alt_data_end+0xfffe8df8>
   28ea0:	81400c17 	ldw	r5,48(r16)
   28ea4:	28000626 	beq	r5,zero,28ec0 <__swsetup_r+0x124>
   28ea8:	80801004 	addi	r2,r16,64
   28eac:	28800326 	beq	r5,r2,28ebc <__swsetup_r+0x120>
   28eb0:	8809883a 	mov	r4,r17
   28eb4:	002afe40 	call	2afe4 <_free_r>
   28eb8:	8100030b 	ldhu	r4,12(r16)
   28ebc:	80000c15 	stw	zero,48(r16)
   28ec0:	80c00417 	ldw	r3,16(r16)
   28ec4:	00bff6c4 	movi	r2,-37
   28ec8:	1108703a 	and	r4,r2,r4
   28ecc:	80000115 	stw	zero,4(r16)
   28ed0:	80c00015 	stw	r3,0(r16)
   28ed4:	003fd506 	br	28e2c <__alt_data_end+0xfffe8e2c>
   28ed8:	00800244 	movi	r2,9
   28edc:	88800015 	stw	r2,0(r17)
   28ee0:	20801014 	ori	r2,r4,64
   28ee4:	8080030d 	sth	r2,12(r16)
   28ee8:	00bfffc4 	movi	r2,-1
   28eec:	003fc506 	br	28e04 <__alt_data_end+0xfffe8e04>

00028ef0 <_close_r>:
   28ef0:	defffd04 	addi	sp,sp,-12
   28ef4:	dc000015 	stw	r16,0(sp)
   28ef8:	040000f4 	movhi	r16,3
   28efc:	dc400115 	stw	r17,4(sp)
   28f00:	841f5204 	addi	r16,r16,32072
   28f04:	2023883a 	mov	r17,r4
   28f08:	2809883a 	mov	r4,r5
   28f0c:	dfc00215 	stw	ra,8(sp)
   28f10:	80000015 	stw	zero,0(r16)
   28f14:	00339440 	call	33944 <close>
   28f18:	00ffffc4 	movi	r3,-1
   28f1c:	10c00526 	beq	r2,r3,28f34 <_close_r+0x44>
   28f20:	dfc00217 	ldw	ra,8(sp)
   28f24:	dc400117 	ldw	r17,4(sp)
   28f28:	dc000017 	ldw	r16,0(sp)
   28f2c:	dec00304 	addi	sp,sp,12
   28f30:	f800283a 	ret
   28f34:	80c00017 	ldw	r3,0(r16)
   28f38:	183ff926 	beq	r3,zero,28f20 <__alt_data_end+0xfffe8f20>
   28f3c:	88c00015 	stw	r3,0(r17)
   28f40:	003ff706 	br	28f20 <__alt_data_end+0xfffe8f20>

00028f44 <quorem>:
   28f44:	defff704 	addi	sp,sp,-36
   28f48:	dc800215 	stw	r18,8(sp)
   28f4c:	20800417 	ldw	r2,16(r4)
   28f50:	2c800417 	ldw	r18,16(r5)
   28f54:	dfc00815 	stw	ra,32(sp)
   28f58:	ddc00715 	stw	r23,28(sp)
   28f5c:	dd800615 	stw	r22,24(sp)
   28f60:	dd400515 	stw	r21,20(sp)
   28f64:	dd000415 	stw	r20,16(sp)
   28f68:	dcc00315 	stw	r19,12(sp)
   28f6c:	dc400115 	stw	r17,4(sp)
   28f70:	dc000015 	stw	r16,0(sp)
   28f74:	14807116 	blt	r2,r18,2913c <quorem+0x1f8>
   28f78:	94bfffc4 	addi	r18,r18,-1
   28f7c:	94ad883a 	add	r22,r18,r18
   28f80:	b5ad883a 	add	r22,r22,r22
   28f84:	2c400504 	addi	r17,r5,20
   28f88:	8da9883a 	add	r20,r17,r22
   28f8c:	25400504 	addi	r21,r4,20
   28f90:	282f883a 	mov	r23,r5
   28f94:	adad883a 	add	r22,r21,r22
   28f98:	a1400017 	ldw	r5,0(r20)
   28f9c:	2021883a 	mov	r16,r4
   28fa0:	b1000017 	ldw	r4,0(r22)
   28fa4:	29400044 	addi	r5,r5,1
   28fa8:	0022dc40 	call	22dc4 <__udivsi3>
   28fac:	1027883a 	mov	r19,r2
   28fb0:	10002c26 	beq	r2,zero,29064 <quorem+0x120>
   28fb4:	a813883a 	mov	r9,r21
   28fb8:	880b883a 	mov	r5,r17
   28fbc:	0009883a 	mov	r4,zero
   28fc0:	000d883a 	mov	r6,zero
   28fc4:	2a000017 	ldw	r8,0(r5)
   28fc8:	49c00017 	ldw	r7,0(r9)
   28fcc:	29400104 	addi	r5,r5,4
   28fd0:	40bfffcc 	andi	r2,r8,65535
   28fd4:	14c5383a 	mul	r2,r2,r19
   28fd8:	4010d43a 	srli	r8,r8,16
   28fdc:	38ffffcc 	andi	r3,r7,65535
   28fe0:	1105883a 	add	r2,r2,r4
   28fe4:	1008d43a 	srli	r4,r2,16
   28fe8:	44d1383a 	mul	r8,r8,r19
   28fec:	198d883a 	add	r6,r3,r6
   28ff0:	10ffffcc 	andi	r3,r2,65535
   28ff4:	30c7c83a 	sub	r3,r6,r3
   28ff8:	380ed43a 	srli	r7,r7,16
   28ffc:	4105883a 	add	r2,r8,r4
   29000:	180dd43a 	srai	r6,r3,16
   29004:	113fffcc 	andi	r4,r2,65535
   29008:	390fc83a 	sub	r7,r7,r4
   2900c:	398d883a 	add	r6,r7,r6
   29010:	300e943a 	slli	r7,r6,16
   29014:	18ffffcc 	andi	r3,r3,65535
   29018:	1008d43a 	srli	r4,r2,16
   2901c:	38ceb03a 	or	r7,r7,r3
   29020:	49c00015 	stw	r7,0(r9)
   29024:	300dd43a 	srai	r6,r6,16
   29028:	4a400104 	addi	r9,r9,4
   2902c:	a17fe52e 	bgeu	r20,r5,28fc4 <__alt_data_end+0xfffe8fc4>
   29030:	b0800017 	ldw	r2,0(r22)
   29034:	10000b1e 	bne	r2,zero,29064 <quorem+0x120>
   29038:	b0bfff04 	addi	r2,r22,-4
   2903c:	a880082e 	bgeu	r21,r2,29060 <quorem+0x11c>
   29040:	b0ffff17 	ldw	r3,-4(r22)
   29044:	18000326 	beq	r3,zero,29054 <quorem+0x110>
   29048:	00000506 	br	29060 <quorem+0x11c>
   2904c:	10c00017 	ldw	r3,0(r2)
   29050:	1800031e 	bne	r3,zero,29060 <quorem+0x11c>
   29054:	10bfff04 	addi	r2,r2,-4
   29058:	94bfffc4 	addi	r18,r18,-1
   2905c:	a8bffb36 	bltu	r21,r2,2904c <__alt_data_end+0xfffe904c>
   29060:	84800415 	stw	r18,16(r16)
   29064:	b80b883a 	mov	r5,r23
   29068:	8009883a 	mov	r4,r16
   2906c:	002c7180 	call	2c718 <__mcmp>
   29070:	10002616 	blt	r2,zero,2910c <quorem+0x1c8>
   29074:	9cc00044 	addi	r19,r19,1
   29078:	a805883a 	mov	r2,r21
   2907c:	000b883a 	mov	r5,zero
   29080:	11000017 	ldw	r4,0(r2)
   29084:	89800017 	ldw	r6,0(r17)
   29088:	10800104 	addi	r2,r2,4
   2908c:	20ffffcc 	andi	r3,r4,65535
   29090:	194b883a 	add	r5,r3,r5
   29094:	30ffffcc 	andi	r3,r6,65535
   29098:	28c7c83a 	sub	r3,r5,r3
   2909c:	300cd43a 	srli	r6,r6,16
   290a0:	2008d43a 	srli	r4,r4,16
   290a4:	180bd43a 	srai	r5,r3,16
   290a8:	18ffffcc 	andi	r3,r3,65535
   290ac:	2189c83a 	sub	r4,r4,r6
   290b0:	2149883a 	add	r4,r4,r5
   290b4:	200c943a 	slli	r6,r4,16
   290b8:	8c400104 	addi	r17,r17,4
   290bc:	200bd43a 	srai	r5,r4,16
   290c0:	30c6b03a 	or	r3,r6,r3
   290c4:	10ffff15 	stw	r3,-4(r2)
   290c8:	a47fed2e 	bgeu	r20,r17,29080 <__alt_data_end+0xfffe9080>
   290cc:	9485883a 	add	r2,r18,r18
   290d0:	1085883a 	add	r2,r2,r2
   290d4:	a887883a 	add	r3,r21,r2
   290d8:	18800017 	ldw	r2,0(r3)
   290dc:	10000b1e 	bne	r2,zero,2910c <quorem+0x1c8>
   290e0:	18bfff04 	addi	r2,r3,-4
   290e4:	a880082e 	bgeu	r21,r2,29108 <quorem+0x1c4>
   290e8:	18ffff17 	ldw	r3,-4(r3)
   290ec:	18000326 	beq	r3,zero,290fc <quorem+0x1b8>
   290f0:	00000506 	br	29108 <quorem+0x1c4>
   290f4:	10c00017 	ldw	r3,0(r2)
   290f8:	1800031e 	bne	r3,zero,29108 <quorem+0x1c4>
   290fc:	10bfff04 	addi	r2,r2,-4
   29100:	94bfffc4 	addi	r18,r18,-1
   29104:	a8bffb36 	bltu	r21,r2,290f4 <__alt_data_end+0xfffe90f4>
   29108:	84800415 	stw	r18,16(r16)
   2910c:	9805883a 	mov	r2,r19
   29110:	dfc00817 	ldw	ra,32(sp)
   29114:	ddc00717 	ldw	r23,28(sp)
   29118:	dd800617 	ldw	r22,24(sp)
   2911c:	dd400517 	ldw	r21,20(sp)
   29120:	dd000417 	ldw	r20,16(sp)
   29124:	dcc00317 	ldw	r19,12(sp)
   29128:	dc800217 	ldw	r18,8(sp)
   2912c:	dc400117 	ldw	r17,4(sp)
   29130:	dc000017 	ldw	r16,0(sp)
   29134:	dec00904 	addi	sp,sp,36
   29138:	f800283a 	ret
   2913c:	0005883a 	mov	r2,zero
   29140:	003ff306 	br	29110 <__alt_data_end+0xfffe9110>

00029144 <_dtoa_r>:
   29144:	20801017 	ldw	r2,64(r4)
   29148:	deffde04 	addi	sp,sp,-136
   2914c:	df002015 	stw	fp,128(sp)
   29150:	dcc01b15 	stw	r19,108(sp)
   29154:	dc801a15 	stw	r18,104(sp)
   29158:	dc401915 	stw	r17,100(sp)
   2915c:	dc001815 	stw	r16,96(sp)
   29160:	dfc02115 	stw	ra,132(sp)
   29164:	ddc01f15 	stw	r23,124(sp)
   29168:	dd801e15 	stw	r22,120(sp)
   2916c:	dd401d15 	stw	r21,116(sp)
   29170:	dd001c15 	stw	r20,112(sp)
   29174:	d9c00315 	stw	r7,12(sp)
   29178:	2039883a 	mov	fp,r4
   2917c:	3023883a 	mov	r17,r6
   29180:	2825883a 	mov	r18,r5
   29184:	dc002417 	ldw	r16,144(sp)
   29188:	3027883a 	mov	r19,r6
   2918c:	10000826 	beq	r2,zero,291b0 <_dtoa_r+0x6c>
   29190:	21801117 	ldw	r6,68(r4)
   29194:	00c00044 	movi	r3,1
   29198:	100b883a 	mov	r5,r2
   2919c:	1986983a 	sll	r3,r3,r6
   291a0:	11800115 	stw	r6,4(r2)
   291a4:	10c00215 	stw	r3,8(r2)
   291a8:	002bef80 	call	2bef8 <_Bfree>
   291ac:	e0001015 	stw	zero,64(fp)
   291b0:	88002e16 	blt	r17,zero,2926c <_dtoa_r+0x128>
   291b4:	80000015 	stw	zero,0(r16)
   291b8:	889ffc2c 	andhi	r2,r17,32752
   291bc:	00dffc34 	movhi	r3,32752
   291c0:	10c01c26 	beq	r2,r3,29234 <_dtoa_r+0xf0>
   291c4:	000d883a 	mov	r6,zero
   291c8:	000f883a 	mov	r7,zero
   291cc:	9009883a 	mov	r4,r18
   291d0:	980b883a 	mov	r5,r19
   291d4:	00324700 	call	32470 <__eqdf2>
   291d8:	10002b1e 	bne	r2,zero,29288 <_dtoa_r+0x144>
   291dc:	d9c02317 	ldw	r7,140(sp)
   291e0:	00800044 	movi	r2,1
   291e4:	38800015 	stw	r2,0(r7)
   291e8:	d8802517 	ldw	r2,148(sp)
   291ec:	10019e26 	beq	r2,zero,29868 <_dtoa_r+0x724>
   291f0:	d8c02517 	ldw	r3,148(sp)
   291f4:	008000f4 	movhi	r2,3
   291f8:	10954444 	addi	r2,r2,21777
   291fc:	18800015 	stw	r2,0(r3)
   29200:	10bfffc4 	addi	r2,r2,-1
   29204:	dfc02117 	ldw	ra,132(sp)
   29208:	df002017 	ldw	fp,128(sp)
   2920c:	ddc01f17 	ldw	r23,124(sp)
   29210:	dd801e17 	ldw	r22,120(sp)
   29214:	dd401d17 	ldw	r21,116(sp)
   29218:	dd001c17 	ldw	r20,112(sp)
   2921c:	dcc01b17 	ldw	r19,108(sp)
   29220:	dc801a17 	ldw	r18,104(sp)
   29224:	dc401917 	ldw	r17,100(sp)
   29228:	dc001817 	ldw	r16,96(sp)
   2922c:	dec02204 	addi	sp,sp,136
   29230:	f800283a 	ret
   29234:	d8c02317 	ldw	r3,140(sp)
   29238:	0089c3c4 	movi	r2,9999
   2923c:	18800015 	stw	r2,0(r3)
   29240:	90017726 	beq	r18,zero,29820 <_dtoa_r+0x6dc>
   29244:	008000f4 	movhi	r2,3
   29248:	10955804 	addi	r2,r2,21856
   2924c:	d9002517 	ldw	r4,148(sp)
   29250:	203fec26 	beq	r4,zero,29204 <__alt_data_end+0xfffe9204>
   29254:	10c000c7 	ldb	r3,3(r2)
   29258:	1801781e 	bne	r3,zero,2983c <_dtoa_r+0x6f8>
   2925c:	10c000c4 	addi	r3,r2,3
   29260:	d9802517 	ldw	r6,148(sp)
   29264:	30c00015 	stw	r3,0(r6)
   29268:	003fe606 	br	29204 <__alt_data_end+0xfffe9204>
   2926c:	04e00034 	movhi	r19,32768
   29270:	9cffffc4 	addi	r19,r19,-1
   29274:	00800044 	movi	r2,1
   29278:	8ce6703a 	and	r19,r17,r19
   2927c:	80800015 	stw	r2,0(r16)
   29280:	9823883a 	mov	r17,r19
   29284:	003fcc06 	br	291b8 <__alt_data_end+0xfffe91b8>
   29288:	d8800204 	addi	r2,sp,8
   2928c:	d8800015 	stw	r2,0(sp)
   29290:	d9c00104 	addi	r7,sp,4
   29294:	900b883a 	mov	r5,r18
   29298:	980d883a 	mov	r6,r19
   2929c:	e009883a 	mov	r4,fp
   292a0:	8820d53a 	srli	r16,r17,20
   292a4:	002cae40 	call	2cae4 <__d2b>
   292a8:	d8800915 	stw	r2,36(sp)
   292ac:	8001651e 	bne	r16,zero,29844 <_dtoa_r+0x700>
   292b0:	dd800217 	ldw	r22,8(sp)
   292b4:	dc000117 	ldw	r16,4(sp)
   292b8:	00800804 	movi	r2,32
   292bc:	b421883a 	add	r16,r22,r16
   292c0:	80c10c84 	addi	r3,r16,1074
   292c4:	10c2d10e 	bge	r2,r3,29e0c <_dtoa_r+0xcc8>
   292c8:	00801004 	movi	r2,64
   292cc:	81010484 	addi	r4,r16,1042
   292d0:	10c7c83a 	sub	r3,r2,r3
   292d4:	9108d83a 	srl	r4,r18,r4
   292d8:	88e2983a 	sll	r17,r17,r3
   292dc:	2448b03a 	or	r4,r4,r17
   292e0:	00338380 	call	33838 <__floatunsidf>
   292e4:	017f8434 	movhi	r5,65040
   292e8:	01800044 	movi	r6,1
   292ec:	1009883a 	mov	r4,r2
   292f0:	194b883a 	add	r5,r3,r5
   292f4:	843fffc4 	addi	r16,r16,-1
   292f8:	d9801115 	stw	r6,68(sp)
   292fc:	000d883a 	mov	r6,zero
   29300:	01cffe34 	movhi	r7,16376
   29304:	0032de00 	call	32de0 <__subdf3>
   29308:	0198dbf4 	movhi	r6,25455
   2930c:	01cff4f4 	movhi	r7,16339
   29310:	3190d844 	addi	r6,r6,17249
   29314:	39e1e9c4 	addi	r7,r7,-30809
   29318:	1009883a 	mov	r4,r2
   2931c:	180b883a 	mov	r5,r3
   29320:	00326c80 	call	326c8 <__muldf3>
   29324:	01a2d874 	movhi	r6,35681
   29328:	01cff1f4 	movhi	r7,16327
   2932c:	31b22cc4 	addi	r6,r6,-14157
   29330:	39e28a04 	addi	r7,r7,-30168
   29334:	180b883a 	mov	r5,r3
   29338:	1009883a 	mov	r4,r2
   2933c:	00312dc0 	call	312dc <__adddf3>
   29340:	8009883a 	mov	r4,r16
   29344:	1029883a 	mov	r20,r2
   29348:	1823883a 	mov	r17,r3
   2934c:	003375c0 	call	3375c <__floatsidf>
   29350:	019427f4 	movhi	r6,20639
   29354:	01cff4f4 	movhi	r7,16339
   29358:	319e7ec4 	addi	r6,r6,31227
   2935c:	39d104c4 	addi	r7,r7,17427
   29360:	1009883a 	mov	r4,r2
   29364:	180b883a 	mov	r5,r3
   29368:	00326c80 	call	326c8 <__muldf3>
   2936c:	100d883a 	mov	r6,r2
   29370:	180f883a 	mov	r7,r3
   29374:	a009883a 	mov	r4,r20
   29378:	880b883a 	mov	r5,r17
   2937c:	00312dc0 	call	312dc <__adddf3>
   29380:	1009883a 	mov	r4,r2
   29384:	180b883a 	mov	r5,r3
   29388:	1029883a 	mov	r20,r2
   2938c:	1823883a 	mov	r17,r3
   29390:	00336dc0 	call	336dc <__fixdfsi>
   29394:	000d883a 	mov	r6,zero
   29398:	000f883a 	mov	r7,zero
   2939c:	a009883a 	mov	r4,r20
   293a0:	880b883a 	mov	r5,r17
   293a4:	d8800515 	stw	r2,20(sp)
   293a8:	00325d40 	call	325d4 <__ledf2>
   293ac:	10028716 	blt	r2,zero,29dcc <_dtoa_r+0xc88>
   293b0:	d8c00517 	ldw	r3,20(sp)
   293b4:	00800584 	movi	r2,22
   293b8:	10c27536 	bltu	r2,r3,29d90 <_dtoa_r+0xc4c>
   293bc:	180490fa 	slli	r2,r3,3
   293c0:	00c000f4 	movhi	r3,3
   293c4:	18d57304 	addi	r3,r3,21964
   293c8:	1885883a 	add	r2,r3,r2
   293cc:	11000017 	ldw	r4,0(r2)
   293d0:	11400117 	ldw	r5,4(r2)
   293d4:	900d883a 	mov	r6,r18
   293d8:	980f883a 	mov	r7,r19
   293dc:	00324f80 	call	324f8 <__gedf2>
   293e0:	00828d0e 	bge	zero,r2,29e18 <_dtoa_r+0xcd4>
   293e4:	d9000517 	ldw	r4,20(sp)
   293e8:	d8000e15 	stw	zero,56(sp)
   293ec:	213fffc4 	addi	r4,r4,-1
   293f0:	d9000515 	stw	r4,20(sp)
   293f4:	b42dc83a 	sub	r22,r22,r16
   293f8:	b5bfffc4 	addi	r22,r22,-1
   293fc:	b0026f16 	blt	r22,zero,29dbc <_dtoa_r+0xc78>
   29400:	d8000815 	stw	zero,32(sp)
   29404:	d9c00517 	ldw	r7,20(sp)
   29408:	38026416 	blt	r7,zero,29d9c <_dtoa_r+0xc58>
   2940c:	b1ed883a 	add	r22,r22,r7
   29410:	d9c00d15 	stw	r7,52(sp)
   29414:	d8000a15 	stw	zero,40(sp)
   29418:	d9800317 	ldw	r6,12(sp)
   2941c:	00800244 	movi	r2,9
   29420:	11811436 	bltu	r2,r6,29874 <_dtoa_r+0x730>
   29424:	00800144 	movi	r2,5
   29428:	1184e10e 	bge	r2,r6,2a7b0 <_dtoa_r+0x166c>
   2942c:	31bfff04 	addi	r6,r6,-4
   29430:	d9800315 	stw	r6,12(sp)
   29434:	0023883a 	mov	r17,zero
   29438:	d9800317 	ldw	r6,12(sp)
   2943c:	008000c4 	movi	r2,3
   29440:	30836726 	beq	r6,r2,2a1e0 <_dtoa_r+0x109c>
   29444:	1183410e 	bge	r2,r6,2a14c <_dtoa_r+0x1008>
   29448:	d9c00317 	ldw	r7,12(sp)
   2944c:	00800104 	movi	r2,4
   29450:	38827c26 	beq	r7,r2,29e44 <_dtoa_r+0xd00>
   29454:	00800144 	movi	r2,5
   29458:	3884c41e 	bne	r7,r2,2a76c <_dtoa_r+0x1628>
   2945c:	00800044 	movi	r2,1
   29460:	d8800b15 	stw	r2,44(sp)
   29464:	d8c00517 	ldw	r3,20(sp)
   29468:	d9002217 	ldw	r4,136(sp)
   2946c:	1907883a 	add	r3,r3,r4
   29470:	19800044 	addi	r6,r3,1
   29474:	d8c00c15 	stw	r3,48(sp)
   29478:	d9800615 	stw	r6,24(sp)
   2947c:	0183a40e 	bge	zero,r6,2a310 <_dtoa_r+0x11cc>
   29480:	d9800617 	ldw	r6,24(sp)
   29484:	3021883a 	mov	r16,r6
   29488:	e0001115 	stw	zero,68(fp)
   2948c:	008005c4 	movi	r2,23
   29490:	1184c92e 	bgeu	r2,r6,2a7b8 <_dtoa_r+0x1674>
   29494:	00c00044 	movi	r3,1
   29498:	00800104 	movi	r2,4
   2949c:	1085883a 	add	r2,r2,r2
   294a0:	11000504 	addi	r4,r2,20
   294a4:	180b883a 	mov	r5,r3
   294a8:	18c00044 	addi	r3,r3,1
   294ac:	313ffb2e 	bgeu	r6,r4,2949c <__alt_data_end+0xfffe949c>
   294b0:	e1401115 	stw	r5,68(fp)
   294b4:	e009883a 	mov	r4,fp
   294b8:	002be500 	call	2be50 <_Balloc>
   294bc:	d8800715 	stw	r2,28(sp)
   294c0:	e0801015 	stw	r2,64(fp)
   294c4:	00800384 	movi	r2,14
   294c8:	1400f736 	bltu	r2,r16,298a8 <_dtoa_r+0x764>
   294cc:	8800f626 	beq	r17,zero,298a8 <_dtoa_r+0x764>
   294d0:	d9c00517 	ldw	r7,20(sp)
   294d4:	01c39a0e 	bge	zero,r7,2a340 <_dtoa_r+0x11fc>
   294d8:	388003cc 	andi	r2,r7,15
   294dc:	100490fa 	slli	r2,r2,3
   294e0:	382bd13a 	srai	r21,r7,4
   294e4:	00c000f4 	movhi	r3,3
   294e8:	18d57304 	addi	r3,r3,21964
   294ec:	1885883a 	add	r2,r3,r2
   294f0:	a8c0040c 	andi	r3,r21,16
   294f4:	12400017 	ldw	r9,0(r2)
   294f8:	12000117 	ldw	r8,4(r2)
   294fc:	18037926 	beq	r3,zero,2a2e4 <_dtoa_r+0x11a0>
   29500:	008000f4 	movhi	r2,3
   29504:	10956904 	addi	r2,r2,21924
   29508:	11800817 	ldw	r6,32(r2)
   2950c:	11c00917 	ldw	r7,36(r2)
   29510:	9009883a 	mov	r4,r18
   29514:	980b883a 	mov	r5,r19
   29518:	da001715 	stw	r8,92(sp)
   2951c:	da401615 	stw	r9,88(sp)
   29520:	0031b880 	call	31b88 <__divdf3>
   29524:	da001717 	ldw	r8,92(sp)
   29528:	da401617 	ldw	r9,88(sp)
   2952c:	ad4003cc 	andi	r21,r21,15
   29530:	040000c4 	movi	r16,3
   29534:	1023883a 	mov	r17,r2
   29538:	1829883a 	mov	r20,r3
   2953c:	a8001126 	beq	r21,zero,29584 <_dtoa_r+0x440>
   29540:	05c000f4 	movhi	r23,3
   29544:	bdd56904 	addi	r23,r23,21924
   29548:	4805883a 	mov	r2,r9
   2954c:	4007883a 	mov	r3,r8
   29550:	a980004c 	andi	r6,r21,1
   29554:	1009883a 	mov	r4,r2
   29558:	a82bd07a 	srai	r21,r21,1
   2955c:	180b883a 	mov	r5,r3
   29560:	30000426 	beq	r6,zero,29574 <_dtoa_r+0x430>
   29564:	b9800017 	ldw	r6,0(r23)
   29568:	b9c00117 	ldw	r7,4(r23)
   2956c:	84000044 	addi	r16,r16,1
   29570:	00326c80 	call	326c8 <__muldf3>
   29574:	bdc00204 	addi	r23,r23,8
   29578:	a83ff51e 	bne	r21,zero,29550 <__alt_data_end+0xfffe9550>
   2957c:	1013883a 	mov	r9,r2
   29580:	1811883a 	mov	r8,r3
   29584:	480d883a 	mov	r6,r9
   29588:	400f883a 	mov	r7,r8
   2958c:	8809883a 	mov	r4,r17
   29590:	a00b883a 	mov	r5,r20
   29594:	0031b880 	call	31b88 <__divdf3>
   29598:	d8800f15 	stw	r2,60(sp)
   2959c:	d8c01015 	stw	r3,64(sp)
   295a0:	d8c00e17 	ldw	r3,56(sp)
   295a4:	18000626 	beq	r3,zero,295c0 <_dtoa_r+0x47c>
   295a8:	d9000f17 	ldw	r4,60(sp)
   295ac:	d9401017 	ldw	r5,64(sp)
   295b0:	000d883a 	mov	r6,zero
   295b4:	01cffc34 	movhi	r7,16368
   295b8:	00325d40 	call	325d4 <__ledf2>
   295bc:	10040b16 	blt	r2,zero,2a5ec <_dtoa_r+0x14a8>
   295c0:	8009883a 	mov	r4,r16
   295c4:	003375c0 	call	3375c <__floatsidf>
   295c8:	d9800f17 	ldw	r6,60(sp)
   295cc:	d9c01017 	ldw	r7,64(sp)
   295d0:	1009883a 	mov	r4,r2
   295d4:	180b883a 	mov	r5,r3
   295d8:	00326c80 	call	326c8 <__muldf3>
   295dc:	000d883a 	mov	r6,zero
   295e0:	01d00734 	movhi	r7,16412
   295e4:	1009883a 	mov	r4,r2
   295e8:	180b883a 	mov	r5,r3
   295ec:	00312dc0 	call	312dc <__adddf3>
   295f0:	1021883a 	mov	r16,r2
   295f4:	d8800617 	ldw	r2,24(sp)
   295f8:	047f3034 	movhi	r17,64704
   295fc:	1c63883a 	add	r17,r3,r17
   29600:	10031826 	beq	r2,zero,2a264 <_dtoa_r+0x1120>
   29604:	d8c00517 	ldw	r3,20(sp)
   29608:	db000617 	ldw	r12,24(sp)
   2960c:	d8c01315 	stw	r3,76(sp)
   29610:	d9000b17 	ldw	r4,44(sp)
   29614:	20038f26 	beq	r4,zero,2a454 <_dtoa_r+0x1310>
   29618:	60bfffc4 	addi	r2,r12,-1
   2961c:	100490fa 	slli	r2,r2,3
   29620:	00c000f4 	movhi	r3,3
   29624:	18d57304 	addi	r3,r3,21964
   29628:	1885883a 	add	r2,r3,r2
   2962c:	11800017 	ldw	r6,0(r2)
   29630:	11c00117 	ldw	r7,4(r2)
   29634:	d8800717 	ldw	r2,28(sp)
   29638:	0009883a 	mov	r4,zero
   2963c:	014ff834 	movhi	r5,16352
   29640:	db001615 	stw	r12,88(sp)
   29644:	15c00044 	addi	r23,r2,1
   29648:	0031b880 	call	31b88 <__divdf3>
   2964c:	800d883a 	mov	r6,r16
   29650:	880f883a 	mov	r7,r17
   29654:	1009883a 	mov	r4,r2
   29658:	180b883a 	mov	r5,r3
   2965c:	0032de00 	call	32de0 <__subdf3>
   29660:	d9401017 	ldw	r5,64(sp)
   29664:	d9000f17 	ldw	r4,60(sp)
   29668:	102b883a 	mov	r21,r2
   2966c:	d8c01215 	stw	r3,72(sp)
   29670:	00336dc0 	call	336dc <__fixdfsi>
   29674:	1009883a 	mov	r4,r2
   29678:	1029883a 	mov	r20,r2
   2967c:	003375c0 	call	3375c <__floatsidf>
   29680:	d9000f17 	ldw	r4,60(sp)
   29684:	d9401017 	ldw	r5,64(sp)
   29688:	100d883a 	mov	r6,r2
   2968c:	180f883a 	mov	r7,r3
   29690:	0032de00 	call	32de0 <__subdf3>
   29694:	1823883a 	mov	r17,r3
   29698:	d8c00717 	ldw	r3,28(sp)
   2969c:	d9401217 	ldw	r5,72(sp)
   296a0:	a2000c04 	addi	r8,r20,48
   296a4:	1021883a 	mov	r16,r2
   296a8:	1a000005 	stb	r8,0(r3)
   296ac:	800d883a 	mov	r6,r16
   296b0:	880f883a 	mov	r7,r17
   296b4:	a809883a 	mov	r4,r21
   296b8:	4029883a 	mov	r20,r8
   296bc:	00324f80 	call	324f8 <__gedf2>
   296c0:	00841d16 	blt	zero,r2,2a738 <_dtoa_r+0x15f4>
   296c4:	800d883a 	mov	r6,r16
   296c8:	880f883a 	mov	r7,r17
   296cc:	0009883a 	mov	r4,zero
   296d0:	014ffc34 	movhi	r5,16368
   296d4:	0032de00 	call	32de0 <__subdf3>
   296d8:	d9401217 	ldw	r5,72(sp)
   296dc:	100d883a 	mov	r6,r2
   296e0:	180f883a 	mov	r7,r3
   296e4:	a809883a 	mov	r4,r21
   296e8:	00324f80 	call	324f8 <__gedf2>
   296ec:	db001617 	ldw	r12,88(sp)
   296f0:	00840e16 	blt	zero,r2,2a72c <_dtoa_r+0x15e8>
   296f4:	00800044 	movi	r2,1
   296f8:	13006b0e 	bge	r2,r12,298a8 <_dtoa_r+0x764>
   296fc:	d9000717 	ldw	r4,28(sp)
   29700:	dd800f15 	stw	r22,60(sp)
   29704:	dcc01015 	stw	r19,64(sp)
   29708:	2319883a 	add	r12,r4,r12
   2970c:	dcc01217 	ldw	r19,72(sp)
   29710:	602d883a 	mov	r22,r12
   29714:	dc801215 	stw	r18,72(sp)
   29718:	b825883a 	mov	r18,r23
   2971c:	00000906 	br	29744 <_dtoa_r+0x600>
   29720:	0032de00 	call	32de0 <__subdf3>
   29724:	a80d883a 	mov	r6,r21
   29728:	980f883a 	mov	r7,r19
   2972c:	1009883a 	mov	r4,r2
   29730:	180b883a 	mov	r5,r3
   29734:	00325d40 	call	325d4 <__ledf2>
   29738:	1003e816 	blt	r2,zero,2a6dc <_dtoa_r+0x1598>
   2973c:	b825883a 	mov	r18,r23
   29740:	bd83e926 	beq	r23,r22,2a6e8 <_dtoa_r+0x15a4>
   29744:	a809883a 	mov	r4,r21
   29748:	980b883a 	mov	r5,r19
   2974c:	000d883a 	mov	r6,zero
   29750:	01d00934 	movhi	r7,16420
   29754:	00326c80 	call	326c8 <__muldf3>
   29758:	000d883a 	mov	r6,zero
   2975c:	01d00934 	movhi	r7,16420
   29760:	8009883a 	mov	r4,r16
   29764:	880b883a 	mov	r5,r17
   29768:	102b883a 	mov	r21,r2
   2976c:	1827883a 	mov	r19,r3
   29770:	00326c80 	call	326c8 <__muldf3>
   29774:	180b883a 	mov	r5,r3
   29778:	1009883a 	mov	r4,r2
   2977c:	1821883a 	mov	r16,r3
   29780:	1023883a 	mov	r17,r2
   29784:	00336dc0 	call	336dc <__fixdfsi>
   29788:	1009883a 	mov	r4,r2
   2978c:	1029883a 	mov	r20,r2
   29790:	003375c0 	call	3375c <__floatsidf>
   29794:	8809883a 	mov	r4,r17
   29798:	800b883a 	mov	r5,r16
   2979c:	100d883a 	mov	r6,r2
   297a0:	180f883a 	mov	r7,r3
   297a4:	0032de00 	call	32de0 <__subdf3>
   297a8:	a5000c04 	addi	r20,r20,48
   297ac:	a80d883a 	mov	r6,r21
   297b0:	980f883a 	mov	r7,r19
   297b4:	1009883a 	mov	r4,r2
   297b8:	180b883a 	mov	r5,r3
   297bc:	95000005 	stb	r20,0(r18)
   297c0:	1021883a 	mov	r16,r2
   297c4:	1823883a 	mov	r17,r3
   297c8:	00325d40 	call	325d4 <__ledf2>
   297cc:	bdc00044 	addi	r23,r23,1
   297d0:	800d883a 	mov	r6,r16
   297d4:	880f883a 	mov	r7,r17
   297d8:	0009883a 	mov	r4,zero
   297dc:	014ffc34 	movhi	r5,16368
   297e0:	103fcf0e 	bge	r2,zero,29720 <__alt_data_end+0xfffe9720>
   297e4:	d8c01317 	ldw	r3,76(sp)
   297e8:	d8c00515 	stw	r3,20(sp)
   297ec:	d9400917 	ldw	r5,36(sp)
   297f0:	e009883a 	mov	r4,fp
   297f4:	002bef80 	call	2bef8 <_Bfree>
   297f8:	d9000517 	ldw	r4,20(sp)
   297fc:	d9802317 	ldw	r6,140(sp)
   29800:	d9c02517 	ldw	r7,148(sp)
   29804:	b8000005 	stb	zero,0(r23)
   29808:	20800044 	addi	r2,r4,1
   2980c:	30800015 	stw	r2,0(r6)
   29810:	3802aa26 	beq	r7,zero,2a2bc <_dtoa_r+0x1178>
   29814:	3dc00015 	stw	r23,0(r7)
   29818:	d8800717 	ldw	r2,28(sp)
   2981c:	003e7906 	br	29204 <__alt_data_end+0xfffe9204>
   29820:	00800434 	movhi	r2,16
   29824:	10bfffc4 	addi	r2,r2,-1
   29828:	88a2703a 	and	r17,r17,r2
   2982c:	883e851e 	bne	r17,zero,29244 <__alt_data_end+0xfffe9244>
   29830:	008000f4 	movhi	r2,3
   29834:	10955504 	addi	r2,r2,21844
   29838:	003e8406 	br	2924c <__alt_data_end+0xfffe924c>
   2983c:	10c00204 	addi	r3,r2,8
   29840:	003e8706 	br	29260 <__alt_data_end+0xfffe9260>
   29844:	01400434 	movhi	r5,16
   29848:	297fffc4 	addi	r5,r5,-1
   2984c:	994a703a 	and	r5,r19,r5
   29850:	9009883a 	mov	r4,r18
   29854:	843f0044 	addi	r16,r16,-1023
   29858:	294ffc34 	orhi	r5,r5,16368
   2985c:	dd800217 	ldw	r22,8(sp)
   29860:	d8001115 	stw	zero,68(sp)
   29864:	003ea506 	br	292fc <__alt_data_end+0xfffe92fc>
   29868:	008000f4 	movhi	r2,3
   2986c:	10954404 	addi	r2,r2,21776
   29870:	003e6406 	br	29204 <__alt_data_end+0xfffe9204>
   29874:	e0001115 	stw	zero,68(fp)
   29878:	000b883a 	mov	r5,zero
   2987c:	e009883a 	mov	r4,fp
   29880:	002be500 	call	2be50 <_Balloc>
   29884:	01bfffc4 	movi	r6,-1
   29888:	01c00044 	movi	r7,1
   2988c:	d8800715 	stw	r2,28(sp)
   29890:	d9800c15 	stw	r6,48(sp)
   29894:	e0801015 	stw	r2,64(fp)
   29898:	d8000315 	stw	zero,12(sp)
   2989c:	d9c00b15 	stw	r7,44(sp)
   298a0:	d9800615 	stw	r6,24(sp)
   298a4:	d8002215 	stw	zero,136(sp)
   298a8:	d8800117 	ldw	r2,4(sp)
   298ac:	10008916 	blt	r2,zero,29ad4 <_dtoa_r+0x990>
   298b0:	d9000517 	ldw	r4,20(sp)
   298b4:	00c00384 	movi	r3,14
   298b8:	19008616 	blt	r3,r4,29ad4 <_dtoa_r+0x990>
   298bc:	200490fa 	slli	r2,r4,3
   298c0:	00c000f4 	movhi	r3,3
   298c4:	d9802217 	ldw	r6,136(sp)
   298c8:	18d57304 	addi	r3,r3,21964
   298cc:	1885883a 	add	r2,r3,r2
   298d0:	14000017 	ldw	r16,0(r2)
   298d4:	14400117 	ldw	r17,4(r2)
   298d8:	30016316 	blt	r6,zero,29e68 <_dtoa_r+0xd24>
   298dc:	800d883a 	mov	r6,r16
   298e0:	880f883a 	mov	r7,r17
   298e4:	9009883a 	mov	r4,r18
   298e8:	980b883a 	mov	r5,r19
   298ec:	0031b880 	call	31b88 <__divdf3>
   298f0:	180b883a 	mov	r5,r3
   298f4:	1009883a 	mov	r4,r2
   298f8:	00336dc0 	call	336dc <__fixdfsi>
   298fc:	1009883a 	mov	r4,r2
   29900:	102b883a 	mov	r21,r2
   29904:	003375c0 	call	3375c <__floatsidf>
   29908:	800d883a 	mov	r6,r16
   2990c:	880f883a 	mov	r7,r17
   29910:	1009883a 	mov	r4,r2
   29914:	180b883a 	mov	r5,r3
   29918:	00326c80 	call	326c8 <__muldf3>
   2991c:	100d883a 	mov	r6,r2
   29920:	180f883a 	mov	r7,r3
   29924:	9009883a 	mov	r4,r18
   29928:	980b883a 	mov	r5,r19
   2992c:	0032de00 	call	32de0 <__subdf3>
   29930:	d9c00717 	ldw	r7,28(sp)
   29934:	1009883a 	mov	r4,r2
   29938:	a8800c04 	addi	r2,r21,48
   2993c:	38800005 	stb	r2,0(r7)
   29940:	3dc00044 	addi	r23,r7,1
   29944:	d9c00617 	ldw	r7,24(sp)
   29948:	01800044 	movi	r6,1
   2994c:	180b883a 	mov	r5,r3
   29950:	2005883a 	mov	r2,r4
   29954:	39803826 	beq	r7,r6,29a38 <_dtoa_r+0x8f4>
   29958:	000d883a 	mov	r6,zero
   2995c:	01d00934 	movhi	r7,16420
   29960:	00326c80 	call	326c8 <__muldf3>
   29964:	000d883a 	mov	r6,zero
   29968:	000f883a 	mov	r7,zero
   2996c:	1009883a 	mov	r4,r2
   29970:	180b883a 	mov	r5,r3
   29974:	1025883a 	mov	r18,r2
   29978:	1827883a 	mov	r19,r3
   2997c:	00324700 	call	32470 <__eqdf2>
   29980:	103f9a26 	beq	r2,zero,297ec <__alt_data_end+0xfffe97ec>
   29984:	d9c00617 	ldw	r7,24(sp)
   29988:	d8c00717 	ldw	r3,28(sp)
   2998c:	b829883a 	mov	r20,r23
   29990:	38bfffc4 	addi	r2,r7,-1
   29994:	18ad883a 	add	r22,r3,r2
   29998:	00000a06 	br	299c4 <_dtoa_r+0x880>
   2999c:	00326c80 	call	326c8 <__muldf3>
   299a0:	000d883a 	mov	r6,zero
   299a4:	000f883a 	mov	r7,zero
   299a8:	1009883a 	mov	r4,r2
   299ac:	180b883a 	mov	r5,r3
   299b0:	1025883a 	mov	r18,r2
   299b4:	1827883a 	mov	r19,r3
   299b8:	b829883a 	mov	r20,r23
   299bc:	00324700 	call	32470 <__eqdf2>
   299c0:	103f8a26 	beq	r2,zero,297ec <__alt_data_end+0xfffe97ec>
   299c4:	800d883a 	mov	r6,r16
   299c8:	880f883a 	mov	r7,r17
   299cc:	9009883a 	mov	r4,r18
   299d0:	980b883a 	mov	r5,r19
   299d4:	0031b880 	call	31b88 <__divdf3>
   299d8:	180b883a 	mov	r5,r3
   299dc:	1009883a 	mov	r4,r2
   299e0:	00336dc0 	call	336dc <__fixdfsi>
   299e4:	1009883a 	mov	r4,r2
   299e8:	102b883a 	mov	r21,r2
   299ec:	003375c0 	call	3375c <__floatsidf>
   299f0:	800d883a 	mov	r6,r16
   299f4:	880f883a 	mov	r7,r17
   299f8:	1009883a 	mov	r4,r2
   299fc:	180b883a 	mov	r5,r3
   29a00:	00326c80 	call	326c8 <__muldf3>
   29a04:	100d883a 	mov	r6,r2
   29a08:	180f883a 	mov	r7,r3
   29a0c:	9009883a 	mov	r4,r18
   29a10:	980b883a 	mov	r5,r19
   29a14:	0032de00 	call	32de0 <__subdf3>
   29a18:	aa000c04 	addi	r8,r21,48
   29a1c:	a2000005 	stb	r8,0(r20)
   29a20:	000d883a 	mov	r6,zero
   29a24:	01d00934 	movhi	r7,16420
   29a28:	1009883a 	mov	r4,r2
   29a2c:	180b883a 	mov	r5,r3
   29a30:	a5c00044 	addi	r23,r20,1
   29a34:	b53fd91e 	bne	r22,r20,2999c <__alt_data_end+0xfffe999c>
   29a38:	100d883a 	mov	r6,r2
   29a3c:	180f883a 	mov	r7,r3
   29a40:	1009883a 	mov	r4,r2
   29a44:	180b883a 	mov	r5,r3
   29a48:	00312dc0 	call	312dc <__adddf3>
   29a4c:	100d883a 	mov	r6,r2
   29a50:	180f883a 	mov	r7,r3
   29a54:	8009883a 	mov	r4,r16
   29a58:	880b883a 	mov	r5,r17
   29a5c:	1027883a 	mov	r19,r2
   29a60:	1825883a 	mov	r18,r3
   29a64:	00325d40 	call	325d4 <__ledf2>
   29a68:	10000816 	blt	r2,zero,29a8c <_dtoa_r+0x948>
   29a6c:	980d883a 	mov	r6,r19
   29a70:	900f883a 	mov	r7,r18
   29a74:	8009883a 	mov	r4,r16
   29a78:	880b883a 	mov	r5,r17
   29a7c:	00324700 	call	32470 <__eqdf2>
   29a80:	103f5a1e 	bne	r2,zero,297ec <__alt_data_end+0xfffe97ec>
   29a84:	ad40004c 	andi	r21,r21,1
   29a88:	a83f5826 	beq	r21,zero,297ec <__alt_data_end+0xfffe97ec>
   29a8c:	bd3fffc3 	ldbu	r20,-1(r23)
   29a90:	b8bfffc4 	addi	r2,r23,-1
   29a94:	1007883a 	mov	r3,r2
   29a98:	01400e44 	movi	r5,57
   29a9c:	d9800717 	ldw	r6,28(sp)
   29aa0:	00000506 	br	29ab8 <_dtoa_r+0x974>
   29aa4:	18ffffc4 	addi	r3,r3,-1
   29aa8:	11824726 	beq	r2,r6,2a3c8 <_dtoa_r+0x1284>
   29aac:	1d000003 	ldbu	r20,0(r3)
   29ab0:	102f883a 	mov	r23,r2
   29ab4:	10bfffc4 	addi	r2,r2,-1
   29ab8:	a1003fcc 	andi	r4,r20,255
   29abc:	2100201c 	xori	r4,r4,128
   29ac0:	213fe004 	addi	r4,r4,-128
   29ac4:	217ff726 	beq	r4,r5,29aa4 <__alt_data_end+0xfffe9aa4>
   29ac8:	a2000044 	addi	r8,r20,1
   29acc:	12000005 	stb	r8,0(r2)
   29ad0:	003f4606 	br	297ec <__alt_data_end+0xfffe97ec>
   29ad4:	d9000b17 	ldw	r4,44(sp)
   29ad8:	2000c826 	beq	r4,zero,29dfc <_dtoa_r+0xcb8>
   29adc:	d9800317 	ldw	r6,12(sp)
   29ae0:	00c00044 	movi	r3,1
   29ae4:	1980f90e 	bge	r3,r6,29ecc <_dtoa_r+0xd88>
   29ae8:	d8800617 	ldw	r2,24(sp)
   29aec:	d8c00a17 	ldw	r3,40(sp)
   29af0:	157fffc4 	addi	r21,r2,-1
   29af4:	1d41f316 	blt	r3,r21,2a2c4 <_dtoa_r+0x1180>
   29af8:	1d6bc83a 	sub	r21,r3,r21
   29afc:	d9c00617 	ldw	r7,24(sp)
   29b00:	3802aa16 	blt	r7,zero,2a5ac <_dtoa_r+0x1468>
   29b04:	dd000817 	ldw	r20,32(sp)
   29b08:	d8800617 	ldw	r2,24(sp)
   29b0c:	d8c00817 	ldw	r3,32(sp)
   29b10:	01400044 	movi	r5,1
   29b14:	e009883a 	mov	r4,fp
   29b18:	1887883a 	add	r3,r3,r2
   29b1c:	d8c00815 	stw	r3,32(sp)
   29b20:	b0ad883a 	add	r22,r22,r2
   29b24:	002c25c0 	call	2c25c <__i2b>
   29b28:	1023883a 	mov	r17,r2
   29b2c:	a0000826 	beq	r20,zero,29b50 <_dtoa_r+0xa0c>
   29b30:	0580070e 	bge	zero,r22,29b50 <_dtoa_r+0xa0c>
   29b34:	a005883a 	mov	r2,r20
   29b38:	b500b916 	blt	r22,r20,29e20 <_dtoa_r+0xcdc>
   29b3c:	d9000817 	ldw	r4,32(sp)
   29b40:	a0a9c83a 	sub	r20,r20,r2
   29b44:	b0adc83a 	sub	r22,r22,r2
   29b48:	2089c83a 	sub	r4,r4,r2
   29b4c:	d9000815 	stw	r4,32(sp)
   29b50:	d9800a17 	ldw	r6,40(sp)
   29b54:	0181810e 	bge	zero,r6,2a15c <_dtoa_r+0x1018>
   29b58:	d9c00b17 	ldw	r7,44(sp)
   29b5c:	3800b326 	beq	r7,zero,29e2c <_dtoa_r+0xce8>
   29b60:	a800b226 	beq	r21,zero,29e2c <_dtoa_r+0xce8>
   29b64:	880b883a 	mov	r5,r17
   29b68:	a80d883a 	mov	r6,r21
   29b6c:	e009883a 	mov	r4,fp
   29b70:	002c4900 	call	2c490 <__pow5mult>
   29b74:	d9800917 	ldw	r6,36(sp)
   29b78:	100b883a 	mov	r5,r2
   29b7c:	e009883a 	mov	r4,fp
   29b80:	1023883a 	mov	r17,r2
   29b84:	002c2980 	call	2c298 <__multiply>
   29b88:	1021883a 	mov	r16,r2
   29b8c:	d8800a17 	ldw	r2,40(sp)
   29b90:	d9400917 	ldw	r5,36(sp)
   29b94:	e009883a 	mov	r4,fp
   29b98:	1545c83a 	sub	r2,r2,r21
   29b9c:	d8800a15 	stw	r2,40(sp)
   29ba0:	002bef80 	call	2bef8 <_Bfree>
   29ba4:	d8c00a17 	ldw	r3,40(sp)
   29ba8:	18009f1e 	bne	r3,zero,29e28 <_dtoa_r+0xce4>
   29bac:	05c00044 	movi	r23,1
   29bb0:	e009883a 	mov	r4,fp
   29bb4:	b80b883a 	mov	r5,r23
   29bb8:	002c25c0 	call	2c25c <__i2b>
   29bbc:	d9000d17 	ldw	r4,52(sp)
   29bc0:	102b883a 	mov	r21,r2
   29bc4:	2000ce26 	beq	r4,zero,29f00 <_dtoa_r+0xdbc>
   29bc8:	200d883a 	mov	r6,r4
   29bcc:	100b883a 	mov	r5,r2
   29bd0:	e009883a 	mov	r4,fp
   29bd4:	002c4900 	call	2c490 <__pow5mult>
   29bd8:	d9800317 	ldw	r6,12(sp)
   29bdc:	102b883a 	mov	r21,r2
   29be0:	b981810e 	bge	r23,r6,2a1e8 <_dtoa_r+0x10a4>
   29be4:	0027883a 	mov	r19,zero
   29be8:	a8800417 	ldw	r2,16(r21)
   29bec:	05c00804 	movi	r23,32
   29bf0:	10800104 	addi	r2,r2,4
   29bf4:	1085883a 	add	r2,r2,r2
   29bf8:	1085883a 	add	r2,r2,r2
   29bfc:	a885883a 	add	r2,r21,r2
   29c00:	11000017 	ldw	r4,0(r2)
   29c04:	002c1440 	call	2c144 <__hi0bits>
   29c08:	b885c83a 	sub	r2,r23,r2
   29c0c:	1585883a 	add	r2,r2,r22
   29c10:	108007cc 	andi	r2,r2,31
   29c14:	1000b326 	beq	r2,zero,29ee4 <_dtoa_r+0xda0>
   29c18:	00c00804 	movi	r3,32
   29c1c:	1887c83a 	sub	r3,r3,r2
   29c20:	01000104 	movi	r4,4
   29c24:	20c2cd0e 	bge	r4,r3,2a75c <_dtoa_r+0x1618>
   29c28:	00c00704 	movi	r3,28
   29c2c:	1885c83a 	sub	r2,r3,r2
   29c30:	d8c00817 	ldw	r3,32(sp)
   29c34:	a0a9883a 	add	r20,r20,r2
   29c38:	b0ad883a 	add	r22,r22,r2
   29c3c:	1887883a 	add	r3,r3,r2
   29c40:	d8c00815 	stw	r3,32(sp)
   29c44:	d9800817 	ldw	r6,32(sp)
   29c48:	0180040e 	bge	zero,r6,29c5c <_dtoa_r+0xb18>
   29c4c:	800b883a 	mov	r5,r16
   29c50:	e009883a 	mov	r4,fp
   29c54:	002c5d00 	call	2c5d0 <__lshift>
   29c58:	1021883a 	mov	r16,r2
   29c5c:	0580050e 	bge	zero,r22,29c74 <_dtoa_r+0xb30>
   29c60:	a80b883a 	mov	r5,r21
   29c64:	b00d883a 	mov	r6,r22
   29c68:	e009883a 	mov	r4,fp
   29c6c:	002c5d00 	call	2c5d0 <__lshift>
   29c70:	102b883a 	mov	r21,r2
   29c74:	d9c00e17 	ldw	r7,56(sp)
   29c78:	3801211e 	bne	r7,zero,2a100 <_dtoa_r+0xfbc>
   29c7c:	d9800617 	ldw	r6,24(sp)
   29c80:	0181380e 	bge	zero,r6,2a164 <_dtoa_r+0x1020>
   29c84:	d8c00b17 	ldw	r3,44(sp)
   29c88:	1800ab1e 	bne	r3,zero,29f38 <_dtoa_r+0xdf4>
   29c8c:	dc800717 	ldw	r18,28(sp)
   29c90:	dcc00617 	ldw	r19,24(sp)
   29c94:	9029883a 	mov	r20,r18
   29c98:	00000206 	br	29ca4 <_dtoa_r+0xb60>
   29c9c:	002bf200 	call	2bf20 <__multadd>
   29ca0:	1021883a 	mov	r16,r2
   29ca4:	a80b883a 	mov	r5,r21
   29ca8:	8009883a 	mov	r4,r16
   29cac:	0028f440 	call	28f44 <quorem>
   29cb0:	10800c04 	addi	r2,r2,48
   29cb4:	90800005 	stb	r2,0(r18)
   29cb8:	94800044 	addi	r18,r18,1
   29cbc:	9507c83a 	sub	r3,r18,r20
   29cc0:	000f883a 	mov	r7,zero
   29cc4:	01800284 	movi	r6,10
   29cc8:	800b883a 	mov	r5,r16
   29ccc:	e009883a 	mov	r4,fp
   29cd0:	1cfff216 	blt	r3,r19,29c9c <__alt_data_end+0xfffe9c9c>
   29cd4:	1011883a 	mov	r8,r2
   29cd8:	d8800617 	ldw	r2,24(sp)
   29cdc:	0082370e 	bge	zero,r2,2a5bc <_dtoa_r+0x1478>
   29ce0:	d9000717 	ldw	r4,28(sp)
   29ce4:	0025883a 	mov	r18,zero
   29ce8:	20af883a 	add	r23,r4,r2
   29cec:	01800044 	movi	r6,1
   29cf0:	800b883a 	mov	r5,r16
   29cf4:	e009883a 	mov	r4,fp
   29cf8:	da001715 	stw	r8,92(sp)
   29cfc:	002c5d00 	call	2c5d0 <__lshift>
   29d00:	a80b883a 	mov	r5,r21
   29d04:	1009883a 	mov	r4,r2
   29d08:	d8800915 	stw	r2,36(sp)
   29d0c:	002c7180 	call	2c718 <__mcmp>
   29d10:	da001717 	ldw	r8,92(sp)
   29d14:	0081800e 	bge	zero,r2,2a318 <_dtoa_r+0x11d4>
   29d18:	b93fffc3 	ldbu	r4,-1(r23)
   29d1c:	b8bfffc4 	addi	r2,r23,-1
   29d20:	1007883a 	mov	r3,r2
   29d24:	01800e44 	movi	r6,57
   29d28:	d9c00717 	ldw	r7,28(sp)
   29d2c:	00000506 	br	29d44 <_dtoa_r+0xc00>
   29d30:	18ffffc4 	addi	r3,r3,-1
   29d34:	11c12326 	beq	r2,r7,2a1c4 <_dtoa_r+0x1080>
   29d38:	19000003 	ldbu	r4,0(r3)
   29d3c:	102f883a 	mov	r23,r2
   29d40:	10bfffc4 	addi	r2,r2,-1
   29d44:	21403fcc 	andi	r5,r4,255
   29d48:	2940201c 	xori	r5,r5,128
   29d4c:	297fe004 	addi	r5,r5,-128
   29d50:	29bff726 	beq	r5,r6,29d30 <__alt_data_end+0xfffe9d30>
   29d54:	21000044 	addi	r4,r4,1
   29d58:	11000005 	stb	r4,0(r2)
   29d5c:	a80b883a 	mov	r5,r21
   29d60:	e009883a 	mov	r4,fp
   29d64:	002bef80 	call	2bef8 <_Bfree>
   29d68:	883ea026 	beq	r17,zero,297ec <__alt_data_end+0xfffe97ec>
   29d6c:	90000426 	beq	r18,zero,29d80 <_dtoa_r+0xc3c>
   29d70:	94400326 	beq	r18,r17,29d80 <_dtoa_r+0xc3c>
   29d74:	900b883a 	mov	r5,r18
   29d78:	e009883a 	mov	r4,fp
   29d7c:	002bef80 	call	2bef8 <_Bfree>
   29d80:	880b883a 	mov	r5,r17
   29d84:	e009883a 	mov	r4,fp
   29d88:	002bef80 	call	2bef8 <_Bfree>
   29d8c:	003e9706 	br	297ec <__alt_data_end+0xfffe97ec>
   29d90:	01800044 	movi	r6,1
   29d94:	d9800e15 	stw	r6,56(sp)
   29d98:	003d9606 	br	293f4 <__alt_data_end+0xfffe93f4>
   29d9c:	d8800817 	ldw	r2,32(sp)
   29da0:	d8c00517 	ldw	r3,20(sp)
   29da4:	d8000d15 	stw	zero,52(sp)
   29da8:	10c5c83a 	sub	r2,r2,r3
   29dac:	00c9c83a 	sub	r4,zero,r3
   29db0:	d8800815 	stw	r2,32(sp)
   29db4:	d9000a15 	stw	r4,40(sp)
   29db8:	003d9706 	br	29418 <__alt_data_end+0xfffe9418>
   29dbc:	05adc83a 	sub	r22,zero,r22
   29dc0:	dd800815 	stw	r22,32(sp)
   29dc4:	002d883a 	mov	r22,zero
   29dc8:	003d8e06 	br	29404 <__alt_data_end+0xfffe9404>
   29dcc:	d9000517 	ldw	r4,20(sp)
   29dd0:	003375c0 	call	3375c <__floatsidf>
   29dd4:	100d883a 	mov	r6,r2
   29dd8:	180f883a 	mov	r7,r3
   29ddc:	a009883a 	mov	r4,r20
   29de0:	880b883a 	mov	r5,r17
   29de4:	00324700 	call	32470 <__eqdf2>
   29de8:	103d7126 	beq	r2,zero,293b0 <__alt_data_end+0xfffe93b0>
   29dec:	d9c00517 	ldw	r7,20(sp)
   29df0:	39ffffc4 	addi	r7,r7,-1
   29df4:	d9c00515 	stw	r7,20(sp)
   29df8:	003d6d06 	br	293b0 <__alt_data_end+0xfffe93b0>
   29dfc:	dd400a17 	ldw	r21,40(sp)
   29e00:	dd000817 	ldw	r20,32(sp)
   29e04:	0023883a 	mov	r17,zero
   29e08:	003f4806 	br	29b2c <__alt_data_end+0xfffe9b2c>
   29e0c:	10e3c83a 	sub	r17,r2,r3
   29e10:	9448983a 	sll	r4,r18,r17
   29e14:	003d3206 	br	292e0 <__alt_data_end+0xfffe92e0>
   29e18:	d8000e15 	stw	zero,56(sp)
   29e1c:	003d7506 	br	293f4 <__alt_data_end+0xfffe93f4>
   29e20:	b005883a 	mov	r2,r22
   29e24:	003f4506 	br	29b3c <__alt_data_end+0xfffe9b3c>
   29e28:	dc000915 	stw	r16,36(sp)
   29e2c:	d9800a17 	ldw	r6,40(sp)
   29e30:	d9400917 	ldw	r5,36(sp)
   29e34:	e009883a 	mov	r4,fp
   29e38:	002c4900 	call	2c490 <__pow5mult>
   29e3c:	1021883a 	mov	r16,r2
   29e40:	003f5a06 	br	29bac <__alt_data_end+0xfffe9bac>
   29e44:	01c00044 	movi	r7,1
   29e48:	d9c00b15 	stw	r7,44(sp)
   29e4c:	d8802217 	ldw	r2,136(sp)
   29e50:	0081280e 	bge	zero,r2,2a2f4 <_dtoa_r+0x11b0>
   29e54:	100d883a 	mov	r6,r2
   29e58:	1021883a 	mov	r16,r2
   29e5c:	d8800c15 	stw	r2,48(sp)
   29e60:	d8800615 	stw	r2,24(sp)
   29e64:	003d8806 	br	29488 <__alt_data_end+0xfffe9488>
   29e68:	d8800617 	ldw	r2,24(sp)
   29e6c:	00be9b16 	blt	zero,r2,298dc <__alt_data_end+0xfffe98dc>
   29e70:	10010f1e 	bne	r2,zero,2a2b0 <_dtoa_r+0x116c>
   29e74:	880b883a 	mov	r5,r17
   29e78:	000d883a 	mov	r6,zero
   29e7c:	01d00534 	movhi	r7,16404
   29e80:	8009883a 	mov	r4,r16
   29e84:	00326c80 	call	326c8 <__muldf3>
   29e88:	900d883a 	mov	r6,r18
   29e8c:	980f883a 	mov	r7,r19
   29e90:	1009883a 	mov	r4,r2
   29e94:	180b883a 	mov	r5,r3
   29e98:	00324f80 	call	324f8 <__gedf2>
   29e9c:	002b883a 	mov	r21,zero
   29ea0:	0023883a 	mov	r17,zero
   29ea4:	1000bf16 	blt	r2,zero,2a1a4 <_dtoa_r+0x1060>
   29ea8:	d9802217 	ldw	r6,136(sp)
   29eac:	ddc00717 	ldw	r23,28(sp)
   29eb0:	018c303a 	nor	r6,zero,r6
   29eb4:	d9800515 	stw	r6,20(sp)
   29eb8:	a80b883a 	mov	r5,r21
   29ebc:	e009883a 	mov	r4,fp
   29ec0:	002bef80 	call	2bef8 <_Bfree>
   29ec4:	883e4926 	beq	r17,zero,297ec <__alt_data_end+0xfffe97ec>
   29ec8:	003fad06 	br	29d80 <__alt_data_end+0xfffe9d80>
   29ecc:	d9c01117 	ldw	r7,68(sp)
   29ed0:	3801bc26 	beq	r7,zero,2a5c4 <_dtoa_r+0x1480>
   29ed4:	10810cc4 	addi	r2,r2,1075
   29ed8:	dd400a17 	ldw	r21,40(sp)
   29edc:	dd000817 	ldw	r20,32(sp)
   29ee0:	003f0a06 	br	29b0c <__alt_data_end+0xfffe9b0c>
   29ee4:	00800704 	movi	r2,28
   29ee8:	d9000817 	ldw	r4,32(sp)
   29eec:	a0a9883a 	add	r20,r20,r2
   29ef0:	b0ad883a 	add	r22,r22,r2
   29ef4:	2089883a 	add	r4,r4,r2
   29ef8:	d9000815 	stw	r4,32(sp)
   29efc:	003f5106 	br	29c44 <__alt_data_end+0xfffe9c44>
   29f00:	d8c00317 	ldw	r3,12(sp)
   29f04:	b8c1fc0e 	bge	r23,r3,2a6f8 <_dtoa_r+0x15b4>
   29f08:	0027883a 	mov	r19,zero
   29f0c:	b805883a 	mov	r2,r23
   29f10:	003f3e06 	br	29c0c <__alt_data_end+0xfffe9c0c>
   29f14:	880b883a 	mov	r5,r17
   29f18:	e009883a 	mov	r4,fp
   29f1c:	000f883a 	mov	r7,zero
   29f20:	01800284 	movi	r6,10
   29f24:	002bf200 	call	2bf20 <__multadd>
   29f28:	d9000c17 	ldw	r4,48(sp)
   29f2c:	1023883a 	mov	r17,r2
   29f30:	0102040e 	bge	zero,r4,2a744 <_dtoa_r+0x1600>
   29f34:	d9000615 	stw	r4,24(sp)
   29f38:	0500050e 	bge	zero,r20,29f50 <_dtoa_r+0xe0c>
   29f3c:	880b883a 	mov	r5,r17
   29f40:	a00d883a 	mov	r6,r20
   29f44:	e009883a 	mov	r4,fp
   29f48:	002c5d00 	call	2c5d0 <__lshift>
   29f4c:	1023883a 	mov	r17,r2
   29f50:	9801241e 	bne	r19,zero,2a3e4 <_dtoa_r+0x12a0>
   29f54:	8829883a 	mov	r20,r17
   29f58:	d9000617 	ldw	r4,24(sp)
   29f5c:	dcc00717 	ldw	r19,28(sp)
   29f60:	9480004c 	andi	r18,r18,1
   29f64:	20bfffc4 	addi	r2,r4,-1
   29f68:	9885883a 	add	r2,r19,r2
   29f6c:	d8800415 	stw	r2,16(sp)
   29f70:	dc800615 	stw	r18,24(sp)
   29f74:	a80b883a 	mov	r5,r21
   29f78:	8009883a 	mov	r4,r16
   29f7c:	0028f440 	call	28f44 <quorem>
   29f80:	880b883a 	mov	r5,r17
   29f84:	8009883a 	mov	r4,r16
   29f88:	102f883a 	mov	r23,r2
   29f8c:	002c7180 	call	2c718 <__mcmp>
   29f90:	a80b883a 	mov	r5,r21
   29f94:	a00d883a 	mov	r6,r20
   29f98:	e009883a 	mov	r4,fp
   29f9c:	102d883a 	mov	r22,r2
   29fa0:	002c7780 	call	2c778 <__mdiff>
   29fa4:	1007883a 	mov	r3,r2
   29fa8:	10800317 	ldw	r2,12(r2)
   29fac:	bc800c04 	addi	r18,r23,48
   29fb0:	180b883a 	mov	r5,r3
   29fb4:	10004e1e 	bne	r2,zero,2a0f0 <_dtoa_r+0xfac>
   29fb8:	8009883a 	mov	r4,r16
   29fbc:	d8c01615 	stw	r3,88(sp)
   29fc0:	002c7180 	call	2c718 <__mcmp>
   29fc4:	d8c01617 	ldw	r3,88(sp)
   29fc8:	e009883a 	mov	r4,fp
   29fcc:	d8801615 	stw	r2,88(sp)
   29fd0:	180b883a 	mov	r5,r3
   29fd4:	002bef80 	call	2bef8 <_Bfree>
   29fd8:	d8801617 	ldw	r2,88(sp)
   29fdc:	1000041e 	bne	r2,zero,29ff0 <_dtoa_r+0xeac>
   29fe0:	d9800317 	ldw	r6,12(sp)
   29fe4:	3000021e 	bne	r6,zero,29ff0 <_dtoa_r+0xeac>
   29fe8:	d8c00617 	ldw	r3,24(sp)
   29fec:	18003726 	beq	r3,zero,2a0cc <_dtoa_r+0xf88>
   29ff0:	b0002016 	blt	r22,zero,2a074 <_dtoa_r+0xf30>
   29ff4:	b000041e 	bne	r22,zero,2a008 <_dtoa_r+0xec4>
   29ff8:	d9000317 	ldw	r4,12(sp)
   29ffc:	2000021e 	bne	r4,zero,2a008 <_dtoa_r+0xec4>
   2a000:	d8c00617 	ldw	r3,24(sp)
   2a004:	18001b26 	beq	r3,zero,2a074 <_dtoa_r+0xf30>
   2a008:	00810716 	blt	zero,r2,2a428 <_dtoa_r+0x12e4>
   2a00c:	d8c00417 	ldw	r3,16(sp)
   2a010:	9d800044 	addi	r22,r19,1
   2a014:	9c800005 	stb	r18,0(r19)
   2a018:	b02f883a 	mov	r23,r22
   2a01c:	98c10626 	beq	r19,r3,2a438 <_dtoa_r+0x12f4>
   2a020:	800b883a 	mov	r5,r16
   2a024:	000f883a 	mov	r7,zero
   2a028:	01800284 	movi	r6,10
   2a02c:	e009883a 	mov	r4,fp
   2a030:	002bf200 	call	2bf20 <__multadd>
   2a034:	1021883a 	mov	r16,r2
   2a038:	000f883a 	mov	r7,zero
   2a03c:	01800284 	movi	r6,10
   2a040:	880b883a 	mov	r5,r17
   2a044:	e009883a 	mov	r4,fp
   2a048:	8d002526 	beq	r17,r20,2a0e0 <_dtoa_r+0xf9c>
   2a04c:	002bf200 	call	2bf20 <__multadd>
   2a050:	a00b883a 	mov	r5,r20
   2a054:	000f883a 	mov	r7,zero
   2a058:	01800284 	movi	r6,10
   2a05c:	e009883a 	mov	r4,fp
   2a060:	1023883a 	mov	r17,r2
   2a064:	002bf200 	call	2bf20 <__multadd>
   2a068:	1029883a 	mov	r20,r2
   2a06c:	b027883a 	mov	r19,r22
   2a070:	003fc006 	br	29f74 <__alt_data_end+0xfffe9f74>
   2a074:	9011883a 	mov	r8,r18
   2a078:	00800e0e 	bge	zero,r2,2a0b4 <_dtoa_r+0xf70>
   2a07c:	800b883a 	mov	r5,r16
   2a080:	01800044 	movi	r6,1
   2a084:	e009883a 	mov	r4,fp
   2a088:	da001715 	stw	r8,92(sp)
   2a08c:	002c5d00 	call	2c5d0 <__lshift>
   2a090:	a80b883a 	mov	r5,r21
   2a094:	1009883a 	mov	r4,r2
   2a098:	1021883a 	mov	r16,r2
   2a09c:	002c7180 	call	2c718 <__mcmp>
   2a0a0:	da001717 	ldw	r8,92(sp)
   2a0a4:	0081960e 	bge	zero,r2,2a700 <_dtoa_r+0x15bc>
   2a0a8:	00800e44 	movi	r2,57
   2a0ac:	40817026 	beq	r8,r2,2a670 <_dtoa_r+0x152c>
   2a0b0:	ba000c44 	addi	r8,r23,49
   2a0b4:	8825883a 	mov	r18,r17
   2a0b8:	9dc00044 	addi	r23,r19,1
   2a0bc:	9a000005 	stb	r8,0(r19)
   2a0c0:	a023883a 	mov	r17,r20
   2a0c4:	dc000915 	stw	r16,36(sp)
   2a0c8:	003f2406 	br	29d5c <__alt_data_end+0xfffe9d5c>
   2a0cc:	00800e44 	movi	r2,57
   2a0d0:	9011883a 	mov	r8,r18
   2a0d4:	90816626 	beq	r18,r2,2a670 <_dtoa_r+0x152c>
   2a0d8:	05bff516 	blt	zero,r22,2a0b0 <__alt_data_end+0xfffea0b0>
   2a0dc:	003ff506 	br	2a0b4 <__alt_data_end+0xfffea0b4>
   2a0e0:	002bf200 	call	2bf20 <__multadd>
   2a0e4:	1023883a 	mov	r17,r2
   2a0e8:	1029883a 	mov	r20,r2
   2a0ec:	003fdf06 	br	2a06c <__alt_data_end+0xfffea06c>
   2a0f0:	e009883a 	mov	r4,fp
   2a0f4:	002bef80 	call	2bef8 <_Bfree>
   2a0f8:	00800044 	movi	r2,1
   2a0fc:	003fbc06 	br	29ff0 <__alt_data_end+0xfffe9ff0>
   2a100:	a80b883a 	mov	r5,r21
   2a104:	8009883a 	mov	r4,r16
   2a108:	002c7180 	call	2c718 <__mcmp>
   2a10c:	103edb0e 	bge	r2,zero,29c7c <__alt_data_end+0xfffe9c7c>
   2a110:	800b883a 	mov	r5,r16
   2a114:	000f883a 	mov	r7,zero
   2a118:	01800284 	movi	r6,10
   2a11c:	e009883a 	mov	r4,fp
   2a120:	002bf200 	call	2bf20 <__multadd>
   2a124:	1021883a 	mov	r16,r2
   2a128:	d8800517 	ldw	r2,20(sp)
   2a12c:	d8c00b17 	ldw	r3,44(sp)
   2a130:	10bfffc4 	addi	r2,r2,-1
   2a134:	d8800515 	stw	r2,20(sp)
   2a138:	183f761e 	bne	r3,zero,29f14 <__alt_data_end+0xfffe9f14>
   2a13c:	d9000c17 	ldw	r4,48(sp)
   2a140:	0101730e 	bge	zero,r4,2a710 <_dtoa_r+0x15cc>
   2a144:	d9000615 	stw	r4,24(sp)
   2a148:	003ed006 	br	29c8c <__alt_data_end+0xfffe9c8c>
   2a14c:	00800084 	movi	r2,2
   2a150:	3081861e 	bne	r6,r2,2a76c <_dtoa_r+0x1628>
   2a154:	d8000b15 	stw	zero,44(sp)
   2a158:	003f3c06 	br	29e4c <__alt_data_end+0xfffe9e4c>
   2a15c:	dc000917 	ldw	r16,36(sp)
   2a160:	003e9206 	br	29bac <__alt_data_end+0xfffe9bac>
   2a164:	d9c00317 	ldw	r7,12(sp)
   2a168:	00800084 	movi	r2,2
   2a16c:	11fec50e 	bge	r2,r7,29c84 <__alt_data_end+0xfffe9c84>
   2a170:	d9000617 	ldw	r4,24(sp)
   2a174:	20013c1e 	bne	r4,zero,2a668 <_dtoa_r+0x1524>
   2a178:	a80b883a 	mov	r5,r21
   2a17c:	000f883a 	mov	r7,zero
   2a180:	01800144 	movi	r6,5
   2a184:	e009883a 	mov	r4,fp
   2a188:	002bf200 	call	2bf20 <__multadd>
   2a18c:	100b883a 	mov	r5,r2
   2a190:	8009883a 	mov	r4,r16
   2a194:	102b883a 	mov	r21,r2
   2a198:	002c7180 	call	2c718 <__mcmp>
   2a19c:	dc000915 	stw	r16,36(sp)
   2a1a0:	00bf410e 	bge	zero,r2,29ea8 <__alt_data_end+0xfffe9ea8>
   2a1a4:	d9c00717 	ldw	r7,28(sp)
   2a1a8:	00800c44 	movi	r2,49
   2a1ac:	38800005 	stb	r2,0(r7)
   2a1b0:	d8800517 	ldw	r2,20(sp)
   2a1b4:	3dc00044 	addi	r23,r7,1
   2a1b8:	10800044 	addi	r2,r2,1
   2a1bc:	d8800515 	stw	r2,20(sp)
   2a1c0:	003f3d06 	br	29eb8 <__alt_data_end+0xfffe9eb8>
   2a1c4:	d9800517 	ldw	r6,20(sp)
   2a1c8:	d9c00717 	ldw	r7,28(sp)
   2a1cc:	00800c44 	movi	r2,49
   2a1d0:	31800044 	addi	r6,r6,1
   2a1d4:	d9800515 	stw	r6,20(sp)
   2a1d8:	38800005 	stb	r2,0(r7)
   2a1dc:	003edf06 	br	29d5c <__alt_data_end+0xfffe9d5c>
   2a1e0:	d8000b15 	stw	zero,44(sp)
   2a1e4:	003c9f06 	br	29464 <__alt_data_end+0xfffe9464>
   2a1e8:	903e7e1e 	bne	r18,zero,29be4 <__alt_data_end+0xfffe9be4>
   2a1ec:	00800434 	movhi	r2,16
   2a1f0:	10bfffc4 	addi	r2,r2,-1
   2a1f4:	9884703a 	and	r2,r19,r2
   2a1f8:	1000ea1e 	bne	r2,zero,2a5a4 <_dtoa_r+0x1460>
   2a1fc:	9cdffc2c 	andhi	r19,r19,32752
   2a200:	9800e826 	beq	r19,zero,2a5a4 <_dtoa_r+0x1460>
   2a204:	d9c00817 	ldw	r7,32(sp)
   2a208:	b5800044 	addi	r22,r22,1
   2a20c:	04c00044 	movi	r19,1
   2a210:	39c00044 	addi	r7,r7,1
   2a214:	d9c00815 	stw	r7,32(sp)
   2a218:	d8800d17 	ldw	r2,52(sp)
   2a21c:	103e721e 	bne	r2,zero,29be8 <__alt_data_end+0xfffe9be8>
   2a220:	00800044 	movi	r2,1
   2a224:	003e7906 	br	29c0c <__alt_data_end+0xfffe9c0c>
   2a228:	8009883a 	mov	r4,r16
   2a22c:	003375c0 	call	3375c <__floatsidf>
   2a230:	d9800f17 	ldw	r6,60(sp)
   2a234:	d9c01017 	ldw	r7,64(sp)
   2a238:	1009883a 	mov	r4,r2
   2a23c:	180b883a 	mov	r5,r3
   2a240:	00326c80 	call	326c8 <__muldf3>
   2a244:	000d883a 	mov	r6,zero
   2a248:	01d00734 	movhi	r7,16412
   2a24c:	1009883a 	mov	r4,r2
   2a250:	180b883a 	mov	r5,r3
   2a254:	00312dc0 	call	312dc <__adddf3>
   2a258:	047f3034 	movhi	r17,64704
   2a25c:	1021883a 	mov	r16,r2
   2a260:	1c63883a 	add	r17,r3,r17
   2a264:	d9000f17 	ldw	r4,60(sp)
   2a268:	d9401017 	ldw	r5,64(sp)
   2a26c:	000d883a 	mov	r6,zero
   2a270:	01d00534 	movhi	r7,16404
   2a274:	0032de00 	call	32de0 <__subdf3>
   2a278:	800d883a 	mov	r6,r16
   2a27c:	880f883a 	mov	r7,r17
   2a280:	1009883a 	mov	r4,r2
   2a284:	180b883a 	mov	r5,r3
   2a288:	102b883a 	mov	r21,r2
   2a28c:	1829883a 	mov	r20,r3
   2a290:	00324f80 	call	324f8 <__gedf2>
   2a294:	00806c16 	blt	zero,r2,2a448 <_dtoa_r+0x1304>
   2a298:	89e0003c 	xorhi	r7,r17,32768
   2a29c:	800d883a 	mov	r6,r16
   2a2a0:	a809883a 	mov	r4,r21
   2a2a4:	a00b883a 	mov	r5,r20
   2a2a8:	00325d40 	call	325d4 <__ledf2>
   2a2ac:	103d7e0e 	bge	r2,zero,298a8 <__alt_data_end+0xfffe98a8>
   2a2b0:	002b883a 	mov	r21,zero
   2a2b4:	0023883a 	mov	r17,zero
   2a2b8:	003efb06 	br	29ea8 <__alt_data_end+0xfffe9ea8>
   2a2bc:	d8800717 	ldw	r2,28(sp)
   2a2c0:	003bd006 	br	29204 <__alt_data_end+0xfffe9204>
   2a2c4:	d9000a17 	ldw	r4,40(sp)
   2a2c8:	d9800d17 	ldw	r6,52(sp)
   2a2cc:	dd400a15 	stw	r21,40(sp)
   2a2d0:	a905c83a 	sub	r2,r21,r4
   2a2d4:	308d883a 	add	r6,r6,r2
   2a2d8:	d9800d15 	stw	r6,52(sp)
   2a2dc:	002b883a 	mov	r21,zero
   2a2e0:	003e0606 	br	29afc <__alt_data_end+0xfffe9afc>
   2a2e4:	9023883a 	mov	r17,r18
   2a2e8:	9829883a 	mov	r20,r19
   2a2ec:	04000084 	movi	r16,2
   2a2f0:	003c9206 	br	2953c <__alt_data_end+0xfffe953c>
   2a2f4:	04000044 	movi	r16,1
   2a2f8:	dc000c15 	stw	r16,48(sp)
   2a2fc:	dc000615 	stw	r16,24(sp)
   2a300:	dc002215 	stw	r16,136(sp)
   2a304:	e0001115 	stw	zero,68(fp)
   2a308:	000b883a 	mov	r5,zero
   2a30c:	003c6906 	br	294b4 <__alt_data_end+0xfffe94b4>
   2a310:	3021883a 	mov	r16,r6
   2a314:	003ffb06 	br	2a304 <__alt_data_end+0xfffea304>
   2a318:	1000021e 	bne	r2,zero,2a324 <_dtoa_r+0x11e0>
   2a31c:	4200004c 	andi	r8,r8,1
   2a320:	403e7d1e 	bne	r8,zero,29d18 <__alt_data_end+0xfffe9d18>
   2a324:	01000c04 	movi	r4,48
   2a328:	00000106 	br	2a330 <_dtoa_r+0x11ec>
   2a32c:	102f883a 	mov	r23,r2
   2a330:	b8bfffc4 	addi	r2,r23,-1
   2a334:	10c00007 	ldb	r3,0(r2)
   2a338:	193ffc26 	beq	r3,r4,2a32c <__alt_data_end+0xfffea32c>
   2a33c:	003e8706 	br	29d5c <__alt_data_end+0xfffe9d5c>
   2a340:	d8800517 	ldw	r2,20(sp)
   2a344:	00a3c83a 	sub	r17,zero,r2
   2a348:	8800a426 	beq	r17,zero,2a5dc <_dtoa_r+0x1498>
   2a34c:	888003cc 	andi	r2,r17,15
   2a350:	100490fa 	slli	r2,r2,3
   2a354:	00c000f4 	movhi	r3,3
   2a358:	18d57304 	addi	r3,r3,21964
   2a35c:	1885883a 	add	r2,r3,r2
   2a360:	11800017 	ldw	r6,0(r2)
   2a364:	11c00117 	ldw	r7,4(r2)
   2a368:	9009883a 	mov	r4,r18
   2a36c:	980b883a 	mov	r5,r19
   2a370:	8823d13a 	srai	r17,r17,4
   2a374:	00326c80 	call	326c8 <__muldf3>
   2a378:	d8800f15 	stw	r2,60(sp)
   2a37c:	d8c01015 	stw	r3,64(sp)
   2a380:	8800e826 	beq	r17,zero,2a724 <_dtoa_r+0x15e0>
   2a384:	050000f4 	movhi	r20,3
   2a388:	a5156904 	addi	r20,r20,21924
   2a38c:	04000084 	movi	r16,2
   2a390:	8980004c 	andi	r6,r17,1
   2a394:	1009883a 	mov	r4,r2
   2a398:	8823d07a 	srai	r17,r17,1
   2a39c:	180b883a 	mov	r5,r3
   2a3a0:	30000426 	beq	r6,zero,2a3b4 <_dtoa_r+0x1270>
   2a3a4:	a1800017 	ldw	r6,0(r20)
   2a3a8:	a1c00117 	ldw	r7,4(r20)
   2a3ac:	84000044 	addi	r16,r16,1
   2a3b0:	00326c80 	call	326c8 <__muldf3>
   2a3b4:	a5000204 	addi	r20,r20,8
   2a3b8:	883ff51e 	bne	r17,zero,2a390 <__alt_data_end+0xfffea390>
   2a3bc:	d8800f15 	stw	r2,60(sp)
   2a3c0:	d8c01015 	stw	r3,64(sp)
   2a3c4:	003c7606 	br	295a0 <__alt_data_end+0xfffe95a0>
   2a3c8:	00c00c04 	movi	r3,48
   2a3cc:	10c00005 	stb	r3,0(r2)
   2a3d0:	d8c00517 	ldw	r3,20(sp)
   2a3d4:	bd3fffc3 	ldbu	r20,-1(r23)
   2a3d8:	18c00044 	addi	r3,r3,1
   2a3dc:	d8c00515 	stw	r3,20(sp)
   2a3e0:	003db906 	br	29ac8 <__alt_data_end+0xfffe9ac8>
   2a3e4:	89400117 	ldw	r5,4(r17)
   2a3e8:	e009883a 	mov	r4,fp
   2a3ec:	002be500 	call	2be50 <_Balloc>
   2a3f0:	89800417 	ldw	r6,16(r17)
   2a3f4:	89400304 	addi	r5,r17,12
   2a3f8:	11000304 	addi	r4,r2,12
   2a3fc:	31800084 	addi	r6,r6,2
   2a400:	318d883a 	add	r6,r6,r6
   2a404:	318d883a 	add	r6,r6,r6
   2a408:	1027883a 	mov	r19,r2
   2a40c:	002bbac0 	call	2bbac <memcpy>
   2a410:	01800044 	movi	r6,1
   2a414:	980b883a 	mov	r5,r19
   2a418:	e009883a 	mov	r4,fp
   2a41c:	002c5d00 	call	2c5d0 <__lshift>
   2a420:	1029883a 	mov	r20,r2
   2a424:	003ecc06 	br	29f58 <__alt_data_end+0xfffe9f58>
   2a428:	00800e44 	movi	r2,57
   2a42c:	90809026 	beq	r18,r2,2a670 <_dtoa_r+0x152c>
   2a430:	92000044 	addi	r8,r18,1
   2a434:	003f1f06 	br	2a0b4 <__alt_data_end+0xfffea0b4>
   2a438:	9011883a 	mov	r8,r18
   2a43c:	8825883a 	mov	r18,r17
   2a440:	a023883a 	mov	r17,r20
   2a444:	003e2906 	br	29cec <__alt_data_end+0xfffe9cec>
   2a448:	002b883a 	mov	r21,zero
   2a44c:	0023883a 	mov	r17,zero
   2a450:	003f5406 	br	2a1a4 <__alt_data_end+0xfffea1a4>
   2a454:	61bfffc4 	addi	r6,r12,-1
   2a458:	300490fa 	slli	r2,r6,3
   2a45c:	00c000f4 	movhi	r3,3
   2a460:	18d57304 	addi	r3,r3,21964
   2a464:	1885883a 	add	r2,r3,r2
   2a468:	11000017 	ldw	r4,0(r2)
   2a46c:	11400117 	ldw	r5,4(r2)
   2a470:	d8800717 	ldw	r2,28(sp)
   2a474:	880f883a 	mov	r7,r17
   2a478:	d9801215 	stw	r6,72(sp)
   2a47c:	800d883a 	mov	r6,r16
   2a480:	db001615 	stw	r12,88(sp)
   2a484:	15c00044 	addi	r23,r2,1
   2a488:	00326c80 	call	326c8 <__muldf3>
   2a48c:	d9401017 	ldw	r5,64(sp)
   2a490:	d9000f17 	ldw	r4,60(sp)
   2a494:	d8c01515 	stw	r3,84(sp)
   2a498:	d8801415 	stw	r2,80(sp)
   2a49c:	00336dc0 	call	336dc <__fixdfsi>
   2a4a0:	1009883a 	mov	r4,r2
   2a4a4:	1021883a 	mov	r16,r2
   2a4a8:	003375c0 	call	3375c <__floatsidf>
   2a4ac:	d9000f17 	ldw	r4,60(sp)
   2a4b0:	d9401017 	ldw	r5,64(sp)
   2a4b4:	100d883a 	mov	r6,r2
   2a4b8:	180f883a 	mov	r7,r3
   2a4bc:	0032de00 	call	32de0 <__subdf3>
   2a4c0:	1829883a 	mov	r20,r3
   2a4c4:	d8c00717 	ldw	r3,28(sp)
   2a4c8:	84000c04 	addi	r16,r16,48
   2a4cc:	1023883a 	mov	r17,r2
   2a4d0:	1c000005 	stb	r16,0(r3)
   2a4d4:	db001617 	ldw	r12,88(sp)
   2a4d8:	00800044 	movi	r2,1
   2a4dc:	60802226 	beq	r12,r2,2a568 <_dtoa_r+0x1424>
   2a4e0:	d9c00717 	ldw	r7,28(sp)
   2a4e4:	8805883a 	mov	r2,r17
   2a4e8:	b82b883a 	mov	r21,r23
   2a4ec:	3b19883a 	add	r12,r7,r12
   2a4f0:	6023883a 	mov	r17,r12
   2a4f4:	a007883a 	mov	r3,r20
   2a4f8:	dc800f15 	stw	r18,60(sp)
   2a4fc:	000d883a 	mov	r6,zero
   2a500:	01d00934 	movhi	r7,16420
   2a504:	1009883a 	mov	r4,r2
   2a508:	180b883a 	mov	r5,r3
   2a50c:	00326c80 	call	326c8 <__muldf3>
   2a510:	180b883a 	mov	r5,r3
   2a514:	1009883a 	mov	r4,r2
   2a518:	1829883a 	mov	r20,r3
   2a51c:	1025883a 	mov	r18,r2
   2a520:	00336dc0 	call	336dc <__fixdfsi>
   2a524:	1009883a 	mov	r4,r2
   2a528:	1021883a 	mov	r16,r2
   2a52c:	003375c0 	call	3375c <__floatsidf>
   2a530:	100d883a 	mov	r6,r2
   2a534:	180f883a 	mov	r7,r3
   2a538:	9009883a 	mov	r4,r18
   2a53c:	a00b883a 	mov	r5,r20
   2a540:	84000c04 	addi	r16,r16,48
   2a544:	0032de00 	call	32de0 <__subdf3>
   2a548:	ad400044 	addi	r21,r21,1
   2a54c:	ac3fffc5 	stb	r16,-1(r21)
   2a550:	ac7fea1e 	bne	r21,r17,2a4fc <__alt_data_end+0xfffea4fc>
   2a554:	1023883a 	mov	r17,r2
   2a558:	d8801217 	ldw	r2,72(sp)
   2a55c:	dc800f17 	ldw	r18,60(sp)
   2a560:	1829883a 	mov	r20,r3
   2a564:	b8af883a 	add	r23,r23,r2
   2a568:	d9001417 	ldw	r4,80(sp)
   2a56c:	d9401517 	ldw	r5,84(sp)
   2a570:	000d883a 	mov	r6,zero
   2a574:	01cff834 	movhi	r7,16352
   2a578:	00312dc0 	call	312dc <__adddf3>
   2a57c:	880d883a 	mov	r6,r17
   2a580:	a00f883a 	mov	r7,r20
   2a584:	1009883a 	mov	r4,r2
   2a588:	180b883a 	mov	r5,r3
   2a58c:	00325d40 	call	325d4 <__ledf2>
   2a590:	10003e0e 	bge	r2,zero,2a68c <_dtoa_r+0x1548>
   2a594:	d9001317 	ldw	r4,76(sp)
   2a598:	bd3fffc3 	ldbu	r20,-1(r23)
   2a59c:	d9000515 	stw	r4,20(sp)
   2a5a0:	003d3b06 	br	29a90 <__alt_data_end+0xfffe9a90>
   2a5a4:	0027883a 	mov	r19,zero
   2a5a8:	003f1b06 	br	2a218 <__alt_data_end+0xfffea218>
   2a5ac:	d8800817 	ldw	r2,32(sp)
   2a5b0:	11e9c83a 	sub	r20,r2,r7
   2a5b4:	0005883a 	mov	r2,zero
   2a5b8:	003d5406 	br	29b0c <__alt_data_end+0xfffe9b0c>
   2a5bc:	00800044 	movi	r2,1
   2a5c0:	003dc706 	br	29ce0 <__alt_data_end+0xfffe9ce0>
   2a5c4:	d8c00217 	ldw	r3,8(sp)
   2a5c8:	00800d84 	movi	r2,54
   2a5cc:	dd400a17 	ldw	r21,40(sp)
   2a5d0:	10c5c83a 	sub	r2,r2,r3
   2a5d4:	dd000817 	ldw	r20,32(sp)
   2a5d8:	003d4c06 	br	29b0c <__alt_data_end+0xfffe9b0c>
   2a5dc:	dc800f15 	stw	r18,60(sp)
   2a5e0:	dcc01015 	stw	r19,64(sp)
   2a5e4:	04000084 	movi	r16,2
   2a5e8:	003bed06 	br	295a0 <__alt_data_end+0xfffe95a0>
   2a5ec:	d9000617 	ldw	r4,24(sp)
   2a5f0:	203f0d26 	beq	r4,zero,2a228 <__alt_data_end+0xfffea228>
   2a5f4:	d9800c17 	ldw	r6,48(sp)
   2a5f8:	01bcab0e 	bge	zero,r6,298a8 <__alt_data_end+0xfffe98a8>
   2a5fc:	d9401017 	ldw	r5,64(sp)
   2a600:	d9000f17 	ldw	r4,60(sp)
   2a604:	000d883a 	mov	r6,zero
   2a608:	01d00934 	movhi	r7,16420
   2a60c:	00326c80 	call	326c8 <__muldf3>
   2a610:	81000044 	addi	r4,r16,1
   2a614:	d8800f15 	stw	r2,60(sp)
   2a618:	d8c01015 	stw	r3,64(sp)
   2a61c:	003375c0 	call	3375c <__floatsidf>
   2a620:	d9800f17 	ldw	r6,60(sp)
   2a624:	d9c01017 	ldw	r7,64(sp)
   2a628:	1009883a 	mov	r4,r2
   2a62c:	180b883a 	mov	r5,r3
   2a630:	00326c80 	call	326c8 <__muldf3>
   2a634:	01d00734 	movhi	r7,16412
   2a638:	000d883a 	mov	r6,zero
   2a63c:	1009883a 	mov	r4,r2
   2a640:	180b883a 	mov	r5,r3
   2a644:	00312dc0 	call	312dc <__adddf3>
   2a648:	d9c00517 	ldw	r7,20(sp)
   2a64c:	047f3034 	movhi	r17,64704
   2a650:	1021883a 	mov	r16,r2
   2a654:	39ffffc4 	addi	r7,r7,-1
   2a658:	d9c01315 	stw	r7,76(sp)
   2a65c:	1c63883a 	add	r17,r3,r17
   2a660:	db000c17 	ldw	r12,48(sp)
   2a664:	003bea06 	br	29610 <__alt_data_end+0xfffe9610>
   2a668:	dc000915 	stw	r16,36(sp)
   2a66c:	003e0e06 	br	29ea8 <__alt_data_end+0xfffe9ea8>
   2a670:	01000e44 	movi	r4,57
   2a674:	8825883a 	mov	r18,r17
   2a678:	9dc00044 	addi	r23,r19,1
   2a67c:	99000005 	stb	r4,0(r19)
   2a680:	a023883a 	mov	r17,r20
   2a684:	dc000915 	stw	r16,36(sp)
   2a688:	003da406 	br	29d1c <__alt_data_end+0xfffe9d1c>
   2a68c:	d9801417 	ldw	r6,80(sp)
   2a690:	d9c01517 	ldw	r7,84(sp)
   2a694:	0009883a 	mov	r4,zero
   2a698:	014ff834 	movhi	r5,16352
   2a69c:	0032de00 	call	32de0 <__subdf3>
   2a6a0:	880d883a 	mov	r6,r17
   2a6a4:	a00f883a 	mov	r7,r20
   2a6a8:	1009883a 	mov	r4,r2
   2a6ac:	180b883a 	mov	r5,r3
   2a6b0:	00324f80 	call	324f8 <__gedf2>
   2a6b4:	00bc7c0e 	bge	zero,r2,298a8 <__alt_data_end+0xfffe98a8>
   2a6b8:	01000c04 	movi	r4,48
   2a6bc:	00000106 	br	2a6c4 <_dtoa_r+0x1580>
   2a6c0:	102f883a 	mov	r23,r2
   2a6c4:	b8bfffc4 	addi	r2,r23,-1
   2a6c8:	10c00007 	ldb	r3,0(r2)
   2a6cc:	193ffc26 	beq	r3,r4,2a6c0 <__alt_data_end+0xfffea6c0>
   2a6d0:	d9801317 	ldw	r6,76(sp)
   2a6d4:	d9800515 	stw	r6,20(sp)
   2a6d8:	003c4406 	br	297ec <__alt_data_end+0xfffe97ec>
   2a6dc:	d9801317 	ldw	r6,76(sp)
   2a6e0:	d9800515 	stw	r6,20(sp)
   2a6e4:	003cea06 	br	29a90 <__alt_data_end+0xfffe9a90>
   2a6e8:	dd800f17 	ldw	r22,60(sp)
   2a6ec:	dcc01017 	ldw	r19,64(sp)
   2a6f0:	dc801217 	ldw	r18,72(sp)
   2a6f4:	003c6c06 	br	298a8 <__alt_data_end+0xfffe98a8>
   2a6f8:	903e031e 	bne	r18,zero,29f08 <__alt_data_end+0xfffe9f08>
   2a6fc:	003ebb06 	br	2a1ec <__alt_data_end+0xfffea1ec>
   2a700:	103e6c1e 	bne	r2,zero,2a0b4 <__alt_data_end+0xfffea0b4>
   2a704:	4080004c 	andi	r2,r8,1
   2a708:	103e6a26 	beq	r2,zero,2a0b4 <__alt_data_end+0xfffea0b4>
   2a70c:	003e6606 	br	2a0a8 <__alt_data_end+0xfffea0a8>
   2a710:	d8c00317 	ldw	r3,12(sp)
   2a714:	00800084 	movi	r2,2
   2a718:	10c02916 	blt	r2,r3,2a7c0 <_dtoa_r+0x167c>
   2a71c:	d9000c17 	ldw	r4,48(sp)
   2a720:	003e8806 	br	2a144 <__alt_data_end+0xfffea144>
   2a724:	04000084 	movi	r16,2
   2a728:	003b9d06 	br	295a0 <__alt_data_end+0xfffe95a0>
   2a72c:	d9001317 	ldw	r4,76(sp)
   2a730:	d9000515 	stw	r4,20(sp)
   2a734:	003cd606 	br	29a90 <__alt_data_end+0xfffe9a90>
   2a738:	d8801317 	ldw	r2,76(sp)
   2a73c:	d8800515 	stw	r2,20(sp)
   2a740:	003c2a06 	br	297ec <__alt_data_end+0xfffe97ec>
   2a744:	d9800317 	ldw	r6,12(sp)
   2a748:	00800084 	movi	r2,2
   2a74c:	11801516 	blt	r2,r6,2a7a4 <_dtoa_r+0x1660>
   2a750:	d9c00c17 	ldw	r7,48(sp)
   2a754:	d9c00615 	stw	r7,24(sp)
   2a758:	003df706 	br	29f38 <__alt_data_end+0xfffe9f38>
   2a75c:	193d3926 	beq	r3,r4,29c44 <__alt_data_end+0xfffe9c44>
   2a760:	00c00f04 	movi	r3,60
   2a764:	1885c83a 	sub	r2,r3,r2
   2a768:	003ddf06 	br	29ee8 <__alt_data_end+0xfffe9ee8>
   2a76c:	e009883a 	mov	r4,fp
   2a770:	e0001115 	stw	zero,68(fp)
   2a774:	000b883a 	mov	r5,zero
   2a778:	002be500 	call	2be50 <_Balloc>
   2a77c:	d8800715 	stw	r2,28(sp)
   2a780:	d8c00717 	ldw	r3,28(sp)
   2a784:	00bfffc4 	movi	r2,-1
   2a788:	01000044 	movi	r4,1
   2a78c:	d8800c15 	stw	r2,48(sp)
   2a790:	e0c01015 	stw	r3,64(fp)
   2a794:	d9000b15 	stw	r4,44(sp)
   2a798:	d8800615 	stw	r2,24(sp)
   2a79c:	d8002215 	stw	zero,136(sp)
   2a7a0:	003c4106 	br	298a8 <__alt_data_end+0xfffe98a8>
   2a7a4:	d8c00c17 	ldw	r3,48(sp)
   2a7a8:	d8c00615 	stw	r3,24(sp)
   2a7ac:	003e7006 	br	2a170 <__alt_data_end+0xfffea170>
   2a7b0:	04400044 	movi	r17,1
   2a7b4:	003b2006 	br	29438 <__alt_data_end+0xfffe9438>
   2a7b8:	000b883a 	mov	r5,zero
   2a7bc:	003b3d06 	br	294b4 <__alt_data_end+0xfffe94b4>
   2a7c0:	d8800c17 	ldw	r2,48(sp)
   2a7c4:	d8800615 	stw	r2,24(sp)
   2a7c8:	003e6906 	br	2a170 <__alt_data_end+0xfffea170>

0002a7cc <__sflush_r>:
   2a7cc:	2880030b 	ldhu	r2,12(r5)
   2a7d0:	defffb04 	addi	sp,sp,-20
   2a7d4:	dcc00315 	stw	r19,12(sp)
   2a7d8:	dc400115 	stw	r17,4(sp)
   2a7dc:	dfc00415 	stw	ra,16(sp)
   2a7e0:	dc800215 	stw	r18,8(sp)
   2a7e4:	dc000015 	stw	r16,0(sp)
   2a7e8:	10c0020c 	andi	r3,r2,8
   2a7ec:	2823883a 	mov	r17,r5
   2a7f0:	2027883a 	mov	r19,r4
   2a7f4:	1800311e 	bne	r3,zero,2a8bc <__sflush_r+0xf0>
   2a7f8:	28c00117 	ldw	r3,4(r5)
   2a7fc:	10820014 	ori	r2,r2,2048
   2a800:	2880030d 	sth	r2,12(r5)
   2a804:	00c04b0e 	bge	zero,r3,2a934 <__sflush_r+0x168>
   2a808:	8a000a17 	ldw	r8,40(r17)
   2a80c:	40002326 	beq	r8,zero,2a89c <__sflush_r+0xd0>
   2a810:	9c000017 	ldw	r16,0(r19)
   2a814:	10c4000c 	andi	r3,r2,4096
   2a818:	98000015 	stw	zero,0(r19)
   2a81c:	18004826 	beq	r3,zero,2a940 <__sflush_r+0x174>
   2a820:	89801417 	ldw	r6,80(r17)
   2a824:	10c0010c 	andi	r3,r2,4
   2a828:	18000626 	beq	r3,zero,2a844 <__sflush_r+0x78>
   2a82c:	88c00117 	ldw	r3,4(r17)
   2a830:	88800c17 	ldw	r2,48(r17)
   2a834:	30cdc83a 	sub	r6,r6,r3
   2a838:	10000226 	beq	r2,zero,2a844 <__sflush_r+0x78>
   2a83c:	88800f17 	ldw	r2,60(r17)
   2a840:	308dc83a 	sub	r6,r6,r2
   2a844:	89400717 	ldw	r5,28(r17)
   2a848:	000f883a 	mov	r7,zero
   2a84c:	9809883a 	mov	r4,r19
   2a850:	403ee83a 	callr	r8
   2a854:	00ffffc4 	movi	r3,-1
   2a858:	10c04426 	beq	r2,r3,2a96c <__sflush_r+0x1a0>
   2a85c:	88c0030b 	ldhu	r3,12(r17)
   2a860:	89000417 	ldw	r4,16(r17)
   2a864:	88000115 	stw	zero,4(r17)
   2a868:	197dffcc 	andi	r5,r3,63487
   2a86c:	8940030d 	sth	r5,12(r17)
   2a870:	89000015 	stw	r4,0(r17)
   2a874:	18c4000c 	andi	r3,r3,4096
   2a878:	18002c1e 	bne	r3,zero,2a92c <__sflush_r+0x160>
   2a87c:	89400c17 	ldw	r5,48(r17)
   2a880:	9c000015 	stw	r16,0(r19)
   2a884:	28000526 	beq	r5,zero,2a89c <__sflush_r+0xd0>
   2a888:	88801004 	addi	r2,r17,64
   2a88c:	28800226 	beq	r5,r2,2a898 <__sflush_r+0xcc>
   2a890:	9809883a 	mov	r4,r19
   2a894:	002afe40 	call	2afe4 <_free_r>
   2a898:	88000c15 	stw	zero,48(r17)
   2a89c:	0005883a 	mov	r2,zero
   2a8a0:	dfc00417 	ldw	ra,16(sp)
   2a8a4:	dcc00317 	ldw	r19,12(sp)
   2a8a8:	dc800217 	ldw	r18,8(sp)
   2a8ac:	dc400117 	ldw	r17,4(sp)
   2a8b0:	dc000017 	ldw	r16,0(sp)
   2a8b4:	dec00504 	addi	sp,sp,20
   2a8b8:	f800283a 	ret
   2a8bc:	2c800417 	ldw	r18,16(r5)
   2a8c0:	903ff626 	beq	r18,zero,2a89c <__alt_data_end+0xfffea89c>
   2a8c4:	2c000017 	ldw	r16,0(r5)
   2a8c8:	108000cc 	andi	r2,r2,3
   2a8cc:	2c800015 	stw	r18,0(r5)
   2a8d0:	84a1c83a 	sub	r16,r16,r18
   2a8d4:	1000131e 	bne	r2,zero,2a924 <__sflush_r+0x158>
   2a8d8:	28800517 	ldw	r2,20(r5)
   2a8dc:	88800215 	stw	r2,8(r17)
   2a8e0:	04000316 	blt	zero,r16,2a8f0 <__sflush_r+0x124>
   2a8e4:	003fed06 	br	2a89c <__alt_data_end+0xfffea89c>
   2a8e8:	90a5883a 	add	r18,r18,r2
   2a8ec:	043feb0e 	bge	zero,r16,2a89c <__alt_data_end+0xfffea89c>
   2a8f0:	88800917 	ldw	r2,36(r17)
   2a8f4:	89400717 	ldw	r5,28(r17)
   2a8f8:	800f883a 	mov	r7,r16
   2a8fc:	900d883a 	mov	r6,r18
   2a900:	9809883a 	mov	r4,r19
   2a904:	103ee83a 	callr	r2
   2a908:	80a1c83a 	sub	r16,r16,r2
   2a90c:	00bff616 	blt	zero,r2,2a8e8 <__alt_data_end+0xfffea8e8>
   2a910:	88c0030b 	ldhu	r3,12(r17)
   2a914:	00bfffc4 	movi	r2,-1
   2a918:	18c01014 	ori	r3,r3,64
   2a91c:	88c0030d 	sth	r3,12(r17)
   2a920:	003fdf06 	br	2a8a0 <__alt_data_end+0xfffea8a0>
   2a924:	0005883a 	mov	r2,zero
   2a928:	003fec06 	br	2a8dc <__alt_data_end+0xfffea8dc>
   2a92c:	88801415 	stw	r2,80(r17)
   2a930:	003fd206 	br	2a87c <__alt_data_end+0xfffea87c>
   2a934:	28c00f17 	ldw	r3,60(r5)
   2a938:	00ffb316 	blt	zero,r3,2a808 <__alt_data_end+0xfffea808>
   2a93c:	003fd706 	br	2a89c <__alt_data_end+0xfffea89c>
   2a940:	89400717 	ldw	r5,28(r17)
   2a944:	000d883a 	mov	r6,zero
   2a948:	01c00044 	movi	r7,1
   2a94c:	9809883a 	mov	r4,r19
   2a950:	403ee83a 	callr	r8
   2a954:	100d883a 	mov	r6,r2
   2a958:	00bfffc4 	movi	r2,-1
   2a95c:	30801426 	beq	r6,r2,2a9b0 <__sflush_r+0x1e4>
   2a960:	8880030b 	ldhu	r2,12(r17)
   2a964:	8a000a17 	ldw	r8,40(r17)
   2a968:	003fae06 	br	2a824 <__alt_data_end+0xfffea824>
   2a96c:	98c00017 	ldw	r3,0(r19)
   2a970:	183fba26 	beq	r3,zero,2a85c <__alt_data_end+0xfffea85c>
   2a974:	01000744 	movi	r4,29
   2a978:	19000626 	beq	r3,r4,2a994 <__sflush_r+0x1c8>
   2a97c:	01000584 	movi	r4,22
   2a980:	19000426 	beq	r3,r4,2a994 <__sflush_r+0x1c8>
   2a984:	88c0030b 	ldhu	r3,12(r17)
   2a988:	18c01014 	ori	r3,r3,64
   2a98c:	88c0030d 	sth	r3,12(r17)
   2a990:	003fc306 	br	2a8a0 <__alt_data_end+0xfffea8a0>
   2a994:	8880030b 	ldhu	r2,12(r17)
   2a998:	88c00417 	ldw	r3,16(r17)
   2a99c:	88000115 	stw	zero,4(r17)
   2a9a0:	10bdffcc 	andi	r2,r2,63487
   2a9a4:	8880030d 	sth	r2,12(r17)
   2a9a8:	88c00015 	stw	r3,0(r17)
   2a9ac:	003fb306 	br	2a87c <__alt_data_end+0xfffea87c>
   2a9b0:	98800017 	ldw	r2,0(r19)
   2a9b4:	103fea26 	beq	r2,zero,2a960 <__alt_data_end+0xfffea960>
   2a9b8:	00c00744 	movi	r3,29
   2a9bc:	10c00226 	beq	r2,r3,2a9c8 <__sflush_r+0x1fc>
   2a9c0:	00c00584 	movi	r3,22
   2a9c4:	10c0031e 	bne	r2,r3,2a9d4 <__sflush_r+0x208>
   2a9c8:	9c000015 	stw	r16,0(r19)
   2a9cc:	0005883a 	mov	r2,zero
   2a9d0:	003fb306 	br	2a8a0 <__alt_data_end+0xfffea8a0>
   2a9d4:	88c0030b 	ldhu	r3,12(r17)
   2a9d8:	3005883a 	mov	r2,r6
   2a9dc:	18c01014 	ori	r3,r3,64
   2a9e0:	88c0030d 	sth	r3,12(r17)
   2a9e4:	003fae06 	br	2a8a0 <__alt_data_end+0xfffea8a0>

0002a9e8 <_fflush_r>:
   2a9e8:	defffd04 	addi	sp,sp,-12
   2a9ec:	dc000115 	stw	r16,4(sp)
   2a9f0:	dfc00215 	stw	ra,8(sp)
   2a9f4:	2021883a 	mov	r16,r4
   2a9f8:	20000226 	beq	r4,zero,2aa04 <_fflush_r+0x1c>
   2a9fc:	20800e17 	ldw	r2,56(r4)
   2aa00:	10000c26 	beq	r2,zero,2aa34 <_fflush_r+0x4c>
   2aa04:	2880030f 	ldh	r2,12(r5)
   2aa08:	1000051e 	bne	r2,zero,2aa20 <_fflush_r+0x38>
   2aa0c:	0005883a 	mov	r2,zero
   2aa10:	dfc00217 	ldw	ra,8(sp)
   2aa14:	dc000117 	ldw	r16,4(sp)
   2aa18:	dec00304 	addi	sp,sp,12
   2aa1c:	f800283a 	ret
   2aa20:	8009883a 	mov	r4,r16
   2aa24:	dfc00217 	ldw	ra,8(sp)
   2aa28:	dc000117 	ldw	r16,4(sp)
   2aa2c:	dec00304 	addi	sp,sp,12
   2aa30:	002a7cc1 	jmpi	2a7cc <__sflush_r>
   2aa34:	d9400015 	stw	r5,0(sp)
   2aa38:	002adc40 	call	2adc4 <__sinit>
   2aa3c:	d9400017 	ldw	r5,0(sp)
   2aa40:	003ff006 	br	2aa04 <__alt_data_end+0xfffeaa04>

0002aa44 <fflush>:
   2aa44:	20000526 	beq	r4,zero,2aa5c <fflush+0x18>
   2aa48:	008000f4 	movhi	r2,3
   2aa4c:	109a9604 	addi	r2,r2,27224
   2aa50:	200b883a 	mov	r5,r4
   2aa54:	11000017 	ldw	r4,0(r2)
   2aa58:	002a9e81 	jmpi	2a9e8 <_fflush_r>
   2aa5c:	008000f4 	movhi	r2,3
   2aa60:	109a9504 	addi	r2,r2,27220
   2aa64:	11000017 	ldw	r4,0(r2)
   2aa68:	014000f4 	movhi	r5,3
   2aa6c:	296a7a04 	addi	r5,r5,-22040
   2aa70:	002b8741 	jmpi	2b874 <_fwalk_reent>

0002aa74 <__fp_unlock>:
   2aa74:	0005883a 	mov	r2,zero
   2aa78:	f800283a 	ret

0002aa7c <_cleanup_r>:
   2aa7c:	014000f4 	movhi	r5,3
   2aa80:	2940ce04 	addi	r5,r5,824
   2aa84:	002b8741 	jmpi	2b874 <_fwalk_reent>

0002aa88 <__sinit.part.1>:
   2aa88:	defff704 	addi	sp,sp,-36
   2aa8c:	00c000f4 	movhi	r3,3
   2aa90:	dfc00815 	stw	ra,32(sp)
   2aa94:	ddc00715 	stw	r23,28(sp)
   2aa98:	dd800615 	stw	r22,24(sp)
   2aa9c:	dd400515 	stw	r21,20(sp)
   2aaa0:	dd000415 	stw	r20,16(sp)
   2aaa4:	dcc00315 	stw	r19,12(sp)
   2aaa8:	dc800215 	stw	r18,8(sp)
   2aaac:	dc400115 	stw	r17,4(sp)
   2aab0:	dc000015 	stw	r16,0(sp)
   2aab4:	18ea9f04 	addi	r3,r3,-21892
   2aab8:	24000117 	ldw	r16,4(r4)
   2aabc:	20c00f15 	stw	r3,60(r4)
   2aac0:	2080bb04 	addi	r2,r4,748
   2aac4:	00c000c4 	movi	r3,3
   2aac8:	20c0b915 	stw	r3,740(r4)
   2aacc:	2080ba15 	stw	r2,744(r4)
   2aad0:	2000b815 	stw	zero,736(r4)
   2aad4:	05c00204 	movi	r23,8
   2aad8:	00800104 	movi	r2,4
   2aadc:	2025883a 	mov	r18,r4
   2aae0:	b80d883a 	mov	r6,r23
   2aae4:	81001704 	addi	r4,r16,92
   2aae8:	000b883a 	mov	r5,zero
   2aaec:	80000015 	stw	zero,0(r16)
   2aaf0:	80000115 	stw	zero,4(r16)
   2aaf4:	80000215 	stw	zero,8(r16)
   2aaf8:	8080030d 	sth	r2,12(r16)
   2aafc:	80001915 	stw	zero,100(r16)
   2ab00:	8000038d 	sth	zero,14(r16)
   2ab04:	80000415 	stw	zero,16(r16)
   2ab08:	80000515 	stw	zero,20(r16)
   2ab0c:	80000615 	stw	zero,24(r16)
   2ab10:	0023f500 	call	23f50 <memset>
   2ab14:	058000b4 	movhi	r22,2
   2ab18:	94400217 	ldw	r17,8(r18)
   2ab1c:	054000b4 	movhi	r21,2
   2ab20:	050000b4 	movhi	r20,2
   2ab24:	04c000b4 	movhi	r19,2
   2ab28:	b591b004 	addi	r22,r22,18112
   2ab2c:	ad51c704 	addi	r21,r21,18204
   2ab30:	a511e604 	addi	r20,r20,18328
   2ab34:	9cd1fd04 	addi	r19,r19,18420
   2ab38:	85800815 	stw	r22,32(r16)
   2ab3c:	85400915 	stw	r21,36(r16)
   2ab40:	85000a15 	stw	r20,40(r16)
   2ab44:	84c00b15 	stw	r19,44(r16)
   2ab48:	84000715 	stw	r16,28(r16)
   2ab4c:	00800284 	movi	r2,10
   2ab50:	8880030d 	sth	r2,12(r17)
   2ab54:	00800044 	movi	r2,1
   2ab58:	b80d883a 	mov	r6,r23
   2ab5c:	89001704 	addi	r4,r17,92
   2ab60:	000b883a 	mov	r5,zero
   2ab64:	88000015 	stw	zero,0(r17)
   2ab68:	88000115 	stw	zero,4(r17)
   2ab6c:	88000215 	stw	zero,8(r17)
   2ab70:	88001915 	stw	zero,100(r17)
   2ab74:	8880038d 	sth	r2,14(r17)
   2ab78:	88000415 	stw	zero,16(r17)
   2ab7c:	88000515 	stw	zero,20(r17)
   2ab80:	88000615 	stw	zero,24(r17)
   2ab84:	0023f500 	call	23f50 <memset>
   2ab88:	94000317 	ldw	r16,12(r18)
   2ab8c:	00800484 	movi	r2,18
   2ab90:	8c400715 	stw	r17,28(r17)
   2ab94:	8d800815 	stw	r22,32(r17)
   2ab98:	8d400915 	stw	r21,36(r17)
   2ab9c:	8d000a15 	stw	r20,40(r17)
   2aba0:	8cc00b15 	stw	r19,44(r17)
   2aba4:	8080030d 	sth	r2,12(r16)
   2aba8:	00800084 	movi	r2,2
   2abac:	80000015 	stw	zero,0(r16)
   2abb0:	80000115 	stw	zero,4(r16)
   2abb4:	80000215 	stw	zero,8(r16)
   2abb8:	80001915 	stw	zero,100(r16)
   2abbc:	8080038d 	sth	r2,14(r16)
   2abc0:	80000415 	stw	zero,16(r16)
   2abc4:	80000515 	stw	zero,20(r16)
   2abc8:	80000615 	stw	zero,24(r16)
   2abcc:	b80d883a 	mov	r6,r23
   2abd0:	000b883a 	mov	r5,zero
   2abd4:	81001704 	addi	r4,r16,92
   2abd8:	0023f500 	call	23f50 <memset>
   2abdc:	00800044 	movi	r2,1
   2abe0:	84000715 	stw	r16,28(r16)
   2abe4:	85800815 	stw	r22,32(r16)
   2abe8:	85400915 	stw	r21,36(r16)
   2abec:	85000a15 	stw	r20,40(r16)
   2abf0:	84c00b15 	stw	r19,44(r16)
   2abf4:	90800e15 	stw	r2,56(r18)
   2abf8:	dfc00817 	ldw	ra,32(sp)
   2abfc:	ddc00717 	ldw	r23,28(sp)
   2ac00:	dd800617 	ldw	r22,24(sp)
   2ac04:	dd400517 	ldw	r21,20(sp)
   2ac08:	dd000417 	ldw	r20,16(sp)
   2ac0c:	dcc00317 	ldw	r19,12(sp)
   2ac10:	dc800217 	ldw	r18,8(sp)
   2ac14:	dc400117 	ldw	r17,4(sp)
   2ac18:	dc000017 	ldw	r16,0(sp)
   2ac1c:	dec00904 	addi	sp,sp,36
   2ac20:	f800283a 	ret

0002ac24 <__fp_lock>:
   2ac24:	0005883a 	mov	r2,zero
   2ac28:	f800283a 	ret

0002ac2c <__sfmoreglue>:
   2ac2c:	defffc04 	addi	sp,sp,-16
   2ac30:	dc400115 	stw	r17,4(sp)
   2ac34:	2c7fffc4 	addi	r17,r5,-1
   2ac38:	8c401a24 	muli	r17,r17,104
   2ac3c:	dc800215 	stw	r18,8(sp)
   2ac40:	2825883a 	mov	r18,r5
   2ac44:	89401d04 	addi	r5,r17,116
   2ac48:	dc000015 	stw	r16,0(sp)
   2ac4c:	dfc00315 	stw	ra,12(sp)
   2ac50:	00237440 	call	23744 <_malloc_r>
   2ac54:	1021883a 	mov	r16,r2
   2ac58:	10000726 	beq	r2,zero,2ac78 <__sfmoreglue+0x4c>
   2ac5c:	11000304 	addi	r4,r2,12
   2ac60:	10000015 	stw	zero,0(r2)
   2ac64:	14800115 	stw	r18,4(r2)
   2ac68:	11000215 	stw	r4,8(r2)
   2ac6c:	89801a04 	addi	r6,r17,104
   2ac70:	000b883a 	mov	r5,zero
   2ac74:	0023f500 	call	23f50 <memset>
   2ac78:	8005883a 	mov	r2,r16
   2ac7c:	dfc00317 	ldw	ra,12(sp)
   2ac80:	dc800217 	ldw	r18,8(sp)
   2ac84:	dc400117 	ldw	r17,4(sp)
   2ac88:	dc000017 	ldw	r16,0(sp)
   2ac8c:	dec00404 	addi	sp,sp,16
   2ac90:	f800283a 	ret

0002ac94 <__sfp>:
   2ac94:	defffb04 	addi	sp,sp,-20
   2ac98:	dc000015 	stw	r16,0(sp)
   2ac9c:	040000f4 	movhi	r16,3
   2aca0:	841a9504 	addi	r16,r16,27220
   2aca4:	dcc00315 	stw	r19,12(sp)
   2aca8:	2027883a 	mov	r19,r4
   2acac:	81000017 	ldw	r4,0(r16)
   2acb0:	dfc00415 	stw	ra,16(sp)
   2acb4:	dc800215 	stw	r18,8(sp)
   2acb8:	20800e17 	ldw	r2,56(r4)
   2acbc:	dc400115 	stw	r17,4(sp)
   2acc0:	1000021e 	bne	r2,zero,2accc <__sfp+0x38>
   2acc4:	002aa880 	call	2aa88 <__sinit.part.1>
   2acc8:	81000017 	ldw	r4,0(r16)
   2accc:	2480b804 	addi	r18,r4,736
   2acd0:	047fffc4 	movi	r17,-1
   2acd4:	91000117 	ldw	r4,4(r18)
   2acd8:	94000217 	ldw	r16,8(r18)
   2acdc:	213fffc4 	addi	r4,r4,-1
   2ace0:	20000a16 	blt	r4,zero,2ad0c <__sfp+0x78>
   2ace4:	8080030f 	ldh	r2,12(r16)
   2ace8:	10000c26 	beq	r2,zero,2ad1c <__sfp+0x88>
   2acec:	80c01d04 	addi	r3,r16,116
   2acf0:	00000206 	br	2acfc <__sfp+0x68>
   2acf4:	18bfe60f 	ldh	r2,-104(r3)
   2acf8:	10000826 	beq	r2,zero,2ad1c <__sfp+0x88>
   2acfc:	213fffc4 	addi	r4,r4,-1
   2ad00:	1c3ffd04 	addi	r16,r3,-12
   2ad04:	18c01a04 	addi	r3,r3,104
   2ad08:	247ffa1e 	bne	r4,r17,2acf4 <__alt_data_end+0xfffeacf4>
   2ad0c:	90800017 	ldw	r2,0(r18)
   2ad10:	10001d26 	beq	r2,zero,2ad88 <__sfp+0xf4>
   2ad14:	1025883a 	mov	r18,r2
   2ad18:	003fee06 	br	2acd4 <__alt_data_end+0xfffeacd4>
   2ad1c:	00bfffc4 	movi	r2,-1
   2ad20:	8080038d 	sth	r2,14(r16)
   2ad24:	00800044 	movi	r2,1
   2ad28:	8080030d 	sth	r2,12(r16)
   2ad2c:	80001915 	stw	zero,100(r16)
   2ad30:	80000015 	stw	zero,0(r16)
   2ad34:	80000215 	stw	zero,8(r16)
   2ad38:	80000115 	stw	zero,4(r16)
   2ad3c:	80000415 	stw	zero,16(r16)
   2ad40:	80000515 	stw	zero,20(r16)
   2ad44:	80000615 	stw	zero,24(r16)
   2ad48:	01800204 	movi	r6,8
   2ad4c:	000b883a 	mov	r5,zero
   2ad50:	81001704 	addi	r4,r16,92
   2ad54:	0023f500 	call	23f50 <memset>
   2ad58:	8005883a 	mov	r2,r16
   2ad5c:	80000c15 	stw	zero,48(r16)
   2ad60:	80000d15 	stw	zero,52(r16)
   2ad64:	80001115 	stw	zero,68(r16)
   2ad68:	80001215 	stw	zero,72(r16)
   2ad6c:	dfc00417 	ldw	ra,16(sp)
   2ad70:	dcc00317 	ldw	r19,12(sp)
   2ad74:	dc800217 	ldw	r18,8(sp)
   2ad78:	dc400117 	ldw	r17,4(sp)
   2ad7c:	dc000017 	ldw	r16,0(sp)
   2ad80:	dec00504 	addi	sp,sp,20
   2ad84:	f800283a 	ret
   2ad88:	01400104 	movi	r5,4
   2ad8c:	9809883a 	mov	r4,r19
   2ad90:	002ac2c0 	call	2ac2c <__sfmoreglue>
   2ad94:	90800015 	stw	r2,0(r18)
   2ad98:	103fde1e 	bne	r2,zero,2ad14 <__alt_data_end+0xfffead14>
   2ad9c:	00800304 	movi	r2,12
   2ada0:	98800015 	stw	r2,0(r19)
   2ada4:	0005883a 	mov	r2,zero
   2ada8:	003ff006 	br	2ad6c <__alt_data_end+0xfffead6c>

0002adac <_cleanup>:
   2adac:	008000f4 	movhi	r2,3
   2adb0:	109a9504 	addi	r2,r2,27220
   2adb4:	11000017 	ldw	r4,0(r2)
   2adb8:	014000f4 	movhi	r5,3
   2adbc:	2940ce04 	addi	r5,r5,824
   2adc0:	002b8741 	jmpi	2b874 <_fwalk_reent>

0002adc4 <__sinit>:
   2adc4:	20800e17 	ldw	r2,56(r4)
   2adc8:	10000126 	beq	r2,zero,2add0 <__sinit+0xc>
   2adcc:	f800283a 	ret
   2add0:	002aa881 	jmpi	2aa88 <__sinit.part.1>

0002add4 <__sfp_lock_acquire>:
   2add4:	f800283a 	ret

0002add8 <__sfp_lock_release>:
   2add8:	f800283a 	ret

0002addc <__sinit_lock_acquire>:
   2addc:	f800283a 	ret

0002ade0 <__sinit_lock_release>:
   2ade0:	f800283a 	ret

0002ade4 <__fp_lock_all>:
   2ade4:	008000f4 	movhi	r2,3
   2ade8:	109a9604 	addi	r2,r2,27224
   2adec:	11000017 	ldw	r4,0(r2)
   2adf0:	014000f4 	movhi	r5,3
   2adf4:	296b0904 	addi	r5,r5,-21468
   2adf8:	002b7b01 	jmpi	2b7b0 <_fwalk>

0002adfc <__fp_unlock_all>:
   2adfc:	008000f4 	movhi	r2,3
   2ae00:	109a9604 	addi	r2,r2,27224
   2ae04:	11000017 	ldw	r4,0(r2)
   2ae08:	014000f4 	movhi	r5,3
   2ae0c:	296a9d04 	addi	r5,r5,-21900
   2ae10:	002b7b01 	jmpi	2b7b0 <_fwalk>

0002ae14 <__sflags>:
   2ae14:	28800007 	ldb	r2,0(r5)
   2ae18:	00c01c84 	movi	r3,114
   2ae1c:	10c02426 	beq	r2,r3,2aeb0 <__sflags+0x9c>
   2ae20:	00c01dc4 	movi	r3,119
   2ae24:	10c01e26 	beq	r2,r3,2aea0 <__sflags+0x8c>
   2ae28:	00c01844 	movi	r3,97
   2ae2c:	10c00426 	beq	r2,r3,2ae40 <__sflags+0x2c>
   2ae30:	00800584 	movi	r2,22
   2ae34:	20800015 	stw	r2,0(r4)
   2ae38:	0005883a 	mov	r2,zero
   2ae3c:	f800283a 	ret
   2ae40:	02c08204 	movi	r11,520
   2ae44:	01000044 	movi	r4,1
   2ae48:	00804204 	movi	r2,264
   2ae4c:	01c00ac4 	movi	r7,43
   2ae50:	02bff8c4 	movi	r10,-29
   2ae54:	027fff04 	movi	r9,-4
   2ae58:	02001e04 	movi	r8,120
   2ae5c:	29400044 	addi	r5,r5,1
   2ae60:	28c00007 	ldb	r3,0(r5)
   2ae64:	18000626 	beq	r3,zero,2ae80 <__sflags+0x6c>
   2ae68:	19c00826 	beq	r3,r7,2ae8c <__sflags+0x78>
   2ae6c:	1a3ffb1e 	bne	r3,r8,2ae5c <__alt_data_end+0xfffeae5c>
   2ae70:	29400044 	addi	r5,r5,1
   2ae74:	28c00007 	ldb	r3,0(r5)
   2ae78:	21020014 	ori	r4,r4,2048
   2ae7c:	183ffa1e 	bne	r3,zero,2ae68 <__alt_data_end+0xfffeae68>
   2ae80:	22c8b03a 	or	r4,r4,r11
   2ae84:	31000015 	stw	r4,0(r6)
   2ae88:	f800283a 	ret
   2ae8c:	1284703a 	and	r2,r2,r10
   2ae90:	2248703a 	and	r4,r4,r9
   2ae94:	10800414 	ori	r2,r2,16
   2ae98:	21000094 	ori	r4,r4,2
   2ae9c:	003fef06 	br	2ae5c <__alt_data_end+0xfffeae5c>
   2aea0:	02c18004 	movi	r11,1536
   2aea4:	01000044 	movi	r4,1
   2aea8:	00800204 	movi	r2,8
   2aeac:	003fe706 	br	2ae4c <__alt_data_end+0xfffeae4c>
   2aeb0:	0017883a 	mov	r11,zero
   2aeb4:	0009883a 	mov	r4,zero
   2aeb8:	00800104 	movi	r2,4
   2aebc:	003fe306 	br	2ae4c <__alt_data_end+0xfffeae4c>

0002aec0 <_malloc_trim_r>:
   2aec0:	defffb04 	addi	sp,sp,-20
   2aec4:	dcc00315 	stw	r19,12(sp)
   2aec8:	04c000f4 	movhi	r19,3
   2aecc:	dc800215 	stw	r18,8(sp)
   2aed0:	dc400115 	stw	r17,4(sp)
   2aed4:	dc000015 	stw	r16,0(sp)
   2aed8:	dfc00415 	stw	ra,16(sp)
   2aedc:	2821883a 	mov	r16,r5
   2aee0:	9cd8f204 	addi	r19,r19,25544
   2aee4:	2025883a 	mov	r18,r4
   2aee8:	0033db80 	call	33db8 <__malloc_lock>
   2aeec:	98800217 	ldw	r2,8(r19)
   2aef0:	14400117 	ldw	r17,4(r2)
   2aef4:	00bfff04 	movi	r2,-4
   2aef8:	88a2703a 	and	r17,r17,r2
   2aefc:	8c21c83a 	sub	r16,r17,r16
   2af00:	8403fbc4 	addi	r16,r16,4079
   2af04:	8020d33a 	srli	r16,r16,12
   2af08:	0083ffc4 	movi	r2,4095
   2af0c:	843fffc4 	addi	r16,r16,-1
   2af10:	8020933a 	slli	r16,r16,12
   2af14:	1400060e 	bge	r2,r16,2af30 <_malloc_trim_r+0x70>
   2af18:	000b883a 	mov	r5,zero
   2af1c:	9009883a 	mov	r4,r18
   2af20:	00244b00 	call	244b0 <_sbrk_r>
   2af24:	98c00217 	ldw	r3,8(r19)
   2af28:	1c47883a 	add	r3,r3,r17
   2af2c:	10c00a26 	beq	r2,r3,2af58 <_malloc_trim_r+0x98>
   2af30:	9009883a 	mov	r4,r18
   2af34:	0033dbc0 	call	33dbc <__malloc_unlock>
   2af38:	0005883a 	mov	r2,zero
   2af3c:	dfc00417 	ldw	ra,16(sp)
   2af40:	dcc00317 	ldw	r19,12(sp)
   2af44:	dc800217 	ldw	r18,8(sp)
   2af48:	dc400117 	ldw	r17,4(sp)
   2af4c:	dc000017 	ldw	r16,0(sp)
   2af50:	dec00504 	addi	sp,sp,20
   2af54:	f800283a 	ret
   2af58:	040bc83a 	sub	r5,zero,r16
   2af5c:	9009883a 	mov	r4,r18
   2af60:	00244b00 	call	244b0 <_sbrk_r>
   2af64:	00ffffc4 	movi	r3,-1
   2af68:	10c00d26 	beq	r2,r3,2afa0 <_malloc_trim_r+0xe0>
   2af6c:	00c000f4 	movhi	r3,3
   2af70:	18df6004 	addi	r3,r3,32128
   2af74:	18800017 	ldw	r2,0(r3)
   2af78:	99000217 	ldw	r4,8(r19)
   2af7c:	8c23c83a 	sub	r17,r17,r16
   2af80:	8c400054 	ori	r17,r17,1
   2af84:	1421c83a 	sub	r16,r2,r16
   2af88:	24400115 	stw	r17,4(r4)
   2af8c:	9009883a 	mov	r4,r18
   2af90:	1c000015 	stw	r16,0(r3)
   2af94:	0033dbc0 	call	33dbc <__malloc_unlock>
   2af98:	00800044 	movi	r2,1
   2af9c:	003fe706 	br	2af3c <__alt_data_end+0xfffeaf3c>
   2afa0:	000b883a 	mov	r5,zero
   2afa4:	9009883a 	mov	r4,r18
   2afa8:	00244b00 	call	244b0 <_sbrk_r>
   2afac:	99000217 	ldw	r4,8(r19)
   2afb0:	014003c4 	movi	r5,15
   2afb4:	1107c83a 	sub	r3,r2,r4
   2afb8:	28ffdd0e 	bge	r5,r3,2af30 <__alt_data_end+0xfffeaf30>
   2afbc:	014000f4 	movhi	r5,3
   2afc0:	295a9704 	addi	r5,r5,27228
   2afc4:	29400017 	ldw	r5,0(r5)
   2afc8:	18c00054 	ori	r3,r3,1
   2afcc:	20c00115 	stw	r3,4(r4)
   2afd0:	00c000f4 	movhi	r3,3
   2afd4:	1145c83a 	sub	r2,r2,r5
   2afd8:	18df6004 	addi	r3,r3,32128
   2afdc:	18800015 	stw	r2,0(r3)
   2afe0:	003fd306 	br	2af30 <__alt_data_end+0xfffeaf30>

0002afe4 <_free_r>:
   2afe4:	28004126 	beq	r5,zero,2b0ec <_free_r+0x108>
   2afe8:	defffd04 	addi	sp,sp,-12
   2afec:	dc400115 	stw	r17,4(sp)
   2aff0:	dc000015 	stw	r16,0(sp)
   2aff4:	2023883a 	mov	r17,r4
   2aff8:	2821883a 	mov	r16,r5
   2affc:	dfc00215 	stw	ra,8(sp)
   2b000:	0033db80 	call	33db8 <__malloc_lock>
   2b004:	81ffff17 	ldw	r7,-4(r16)
   2b008:	00bfff84 	movi	r2,-2
   2b00c:	010000f4 	movhi	r4,3
   2b010:	81bffe04 	addi	r6,r16,-8
   2b014:	3884703a 	and	r2,r7,r2
   2b018:	2118f204 	addi	r4,r4,25544
   2b01c:	308b883a 	add	r5,r6,r2
   2b020:	2a400117 	ldw	r9,4(r5)
   2b024:	22000217 	ldw	r8,8(r4)
   2b028:	00ffff04 	movi	r3,-4
   2b02c:	48c6703a 	and	r3,r9,r3
   2b030:	2a005726 	beq	r5,r8,2b190 <_free_r+0x1ac>
   2b034:	28c00115 	stw	r3,4(r5)
   2b038:	39c0004c 	andi	r7,r7,1
   2b03c:	3800091e 	bne	r7,zero,2b064 <_free_r+0x80>
   2b040:	823ffe17 	ldw	r8,-8(r16)
   2b044:	22400204 	addi	r9,r4,8
   2b048:	320dc83a 	sub	r6,r6,r8
   2b04c:	31c00217 	ldw	r7,8(r6)
   2b050:	1205883a 	add	r2,r2,r8
   2b054:	3a406526 	beq	r7,r9,2b1ec <_free_r+0x208>
   2b058:	32000317 	ldw	r8,12(r6)
   2b05c:	3a000315 	stw	r8,12(r7)
   2b060:	41c00215 	stw	r7,8(r8)
   2b064:	28cf883a 	add	r7,r5,r3
   2b068:	39c00117 	ldw	r7,4(r7)
   2b06c:	39c0004c 	andi	r7,r7,1
   2b070:	38003a26 	beq	r7,zero,2b15c <_free_r+0x178>
   2b074:	10c00054 	ori	r3,r2,1
   2b078:	30c00115 	stw	r3,4(r6)
   2b07c:	3087883a 	add	r3,r6,r2
   2b080:	18800015 	stw	r2,0(r3)
   2b084:	00c07fc4 	movi	r3,511
   2b088:	18801936 	bltu	r3,r2,2b0f0 <_free_r+0x10c>
   2b08c:	1004d0fa 	srli	r2,r2,3
   2b090:	01c00044 	movi	r7,1
   2b094:	21400117 	ldw	r5,4(r4)
   2b098:	10c00044 	addi	r3,r2,1
   2b09c:	18c7883a 	add	r3,r3,r3
   2b0a0:	1005d0ba 	srai	r2,r2,2
   2b0a4:	18c7883a 	add	r3,r3,r3
   2b0a8:	18c7883a 	add	r3,r3,r3
   2b0ac:	1907883a 	add	r3,r3,r4
   2b0b0:	3884983a 	sll	r2,r7,r2
   2b0b4:	19c00017 	ldw	r7,0(r3)
   2b0b8:	1a3ffe04 	addi	r8,r3,-8
   2b0bc:	1144b03a 	or	r2,r2,r5
   2b0c0:	32000315 	stw	r8,12(r6)
   2b0c4:	31c00215 	stw	r7,8(r6)
   2b0c8:	20800115 	stw	r2,4(r4)
   2b0cc:	19800015 	stw	r6,0(r3)
   2b0d0:	39800315 	stw	r6,12(r7)
   2b0d4:	8809883a 	mov	r4,r17
   2b0d8:	dfc00217 	ldw	ra,8(sp)
   2b0dc:	dc400117 	ldw	r17,4(sp)
   2b0e0:	dc000017 	ldw	r16,0(sp)
   2b0e4:	dec00304 	addi	sp,sp,12
   2b0e8:	0033dbc1 	jmpi	33dbc <__malloc_unlock>
   2b0ec:	f800283a 	ret
   2b0f0:	100ad27a 	srli	r5,r2,9
   2b0f4:	00c00104 	movi	r3,4
   2b0f8:	19404a36 	bltu	r3,r5,2b224 <_free_r+0x240>
   2b0fc:	100ad1ba 	srli	r5,r2,6
   2b100:	28c00e44 	addi	r3,r5,57
   2b104:	18c7883a 	add	r3,r3,r3
   2b108:	29400e04 	addi	r5,r5,56
   2b10c:	18c7883a 	add	r3,r3,r3
   2b110:	18c7883a 	add	r3,r3,r3
   2b114:	1909883a 	add	r4,r3,r4
   2b118:	20c00017 	ldw	r3,0(r4)
   2b11c:	01c000f4 	movhi	r7,3
   2b120:	213ffe04 	addi	r4,r4,-8
   2b124:	39d8f204 	addi	r7,r7,25544
   2b128:	20c04426 	beq	r4,r3,2b23c <_free_r+0x258>
   2b12c:	01ffff04 	movi	r7,-4
   2b130:	19400117 	ldw	r5,4(r3)
   2b134:	29ca703a 	and	r5,r5,r7
   2b138:	1140022e 	bgeu	r2,r5,2b144 <_free_r+0x160>
   2b13c:	18c00217 	ldw	r3,8(r3)
   2b140:	20fffb1e 	bne	r4,r3,2b130 <__alt_data_end+0xfffeb130>
   2b144:	19000317 	ldw	r4,12(r3)
   2b148:	31000315 	stw	r4,12(r6)
   2b14c:	30c00215 	stw	r3,8(r6)
   2b150:	21800215 	stw	r6,8(r4)
   2b154:	19800315 	stw	r6,12(r3)
   2b158:	003fde06 	br	2b0d4 <__alt_data_end+0xfffeb0d4>
   2b15c:	29c00217 	ldw	r7,8(r5)
   2b160:	10c5883a 	add	r2,r2,r3
   2b164:	00c000f4 	movhi	r3,3
   2b168:	18d8f404 	addi	r3,r3,25552
   2b16c:	38c03b26 	beq	r7,r3,2b25c <_free_r+0x278>
   2b170:	2a000317 	ldw	r8,12(r5)
   2b174:	11400054 	ori	r5,r2,1
   2b178:	3087883a 	add	r3,r6,r2
   2b17c:	3a000315 	stw	r8,12(r7)
   2b180:	41c00215 	stw	r7,8(r8)
   2b184:	31400115 	stw	r5,4(r6)
   2b188:	18800015 	stw	r2,0(r3)
   2b18c:	003fbd06 	br	2b084 <__alt_data_end+0xfffeb084>
   2b190:	39c0004c 	andi	r7,r7,1
   2b194:	10c5883a 	add	r2,r2,r3
   2b198:	3800071e 	bne	r7,zero,2b1b8 <_free_r+0x1d4>
   2b19c:	81fffe17 	ldw	r7,-8(r16)
   2b1a0:	31cdc83a 	sub	r6,r6,r7
   2b1a4:	30c00317 	ldw	r3,12(r6)
   2b1a8:	31400217 	ldw	r5,8(r6)
   2b1ac:	11c5883a 	add	r2,r2,r7
   2b1b0:	28c00315 	stw	r3,12(r5)
   2b1b4:	19400215 	stw	r5,8(r3)
   2b1b8:	10c00054 	ori	r3,r2,1
   2b1bc:	30c00115 	stw	r3,4(r6)
   2b1c0:	00c000f4 	movhi	r3,3
   2b1c4:	18da9804 	addi	r3,r3,27232
   2b1c8:	18c00017 	ldw	r3,0(r3)
   2b1cc:	21800215 	stw	r6,8(r4)
   2b1d0:	10ffc036 	bltu	r2,r3,2b0d4 <__alt_data_end+0xfffeb0d4>
   2b1d4:	008000f4 	movhi	r2,3
   2b1d8:	109f5504 	addi	r2,r2,32084
   2b1dc:	11400017 	ldw	r5,0(r2)
   2b1e0:	8809883a 	mov	r4,r17
   2b1e4:	002aec00 	call	2aec0 <_malloc_trim_r>
   2b1e8:	003fba06 	br	2b0d4 <__alt_data_end+0xfffeb0d4>
   2b1ec:	28c9883a 	add	r4,r5,r3
   2b1f0:	21000117 	ldw	r4,4(r4)
   2b1f4:	2100004c 	andi	r4,r4,1
   2b1f8:	2000391e 	bne	r4,zero,2b2e0 <_free_r+0x2fc>
   2b1fc:	29c00217 	ldw	r7,8(r5)
   2b200:	29000317 	ldw	r4,12(r5)
   2b204:	1885883a 	add	r2,r3,r2
   2b208:	10c00054 	ori	r3,r2,1
   2b20c:	39000315 	stw	r4,12(r7)
   2b210:	21c00215 	stw	r7,8(r4)
   2b214:	30c00115 	stw	r3,4(r6)
   2b218:	308d883a 	add	r6,r6,r2
   2b21c:	30800015 	stw	r2,0(r6)
   2b220:	003fac06 	br	2b0d4 <__alt_data_end+0xfffeb0d4>
   2b224:	00c00504 	movi	r3,20
   2b228:	19401536 	bltu	r3,r5,2b280 <_free_r+0x29c>
   2b22c:	28c01704 	addi	r3,r5,92
   2b230:	18c7883a 	add	r3,r3,r3
   2b234:	294016c4 	addi	r5,r5,91
   2b238:	003fb406 	br	2b10c <__alt_data_end+0xfffeb10c>
   2b23c:	280bd0ba 	srai	r5,r5,2
   2b240:	00c00044 	movi	r3,1
   2b244:	38800117 	ldw	r2,4(r7)
   2b248:	194a983a 	sll	r5,r3,r5
   2b24c:	2007883a 	mov	r3,r4
   2b250:	2884b03a 	or	r2,r5,r2
   2b254:	38800115 	stw	r2,4(r7)
   2b258:	003fbb06 	br	2b148 <__alt_data_end+0xfffeb148>
   2b25c:	21800515 	stw	r6,20(r4)
   2b260:	21800415 	stw	r6,16(r4)
   2b264:	10c00054 	ori	r3,r2,1
   2b268:	31c00315 	stw	r7,12(r6)
   2b26c:	31c00215 	stw	r7,8(r6)
   2b270:	30c00115 	stw	r3,4(r6)
   2b274:	308d883a 	add	r6,r6,r2
   2b278:	30800015 	stw	r2,0(r6)
   2b27c:	003f9506 	br	2b0d4 <__alt_data_end+0xfffeb0d4>
   2b280:	00c01504 	movi	r3,84
   2b284:	19400536 	bltu	r3,r5,2b29c <_free_r+0x2b8>
   2b288:	100ad33a 	srli	r5,r2,12
   2b28c:	28c01bc4 	addi	r3,r5,111
   2b290:	18c7883a 	add	r3,r3,r3
   2b294:	29401b84 	addi	r5,r5,110
   2b298:	003f9c06 	br	2b10c <__alt_data_end+0xfffeb10c>
   2b29c:	00c05504 	movi	r3,340
   2b2a0:	19400536 	bltu	r3,r5,2b2b8 <_free_r+0x2d4>
   2b2a4:	100ad3fa 	srli	r5,r2,15
   2b2a8:	28c01e04 	addi	r3,r5,120
   2b2ac:	18c7883a 	add	r3,r3,r3
   2b2b0:	29401dc4 	addi	r5,r5,119
   2b2b4:	003f9506 	br	2b10c <__alt_data_end+0xfffeb10c>
   2b2b8:	00c15504 	movi	r3,1364
   2b2bc:	19400536 	bltu	r3,r5,2b2d4 <_free_r+0x2f0>
   2b2c0:	100ad4ba 	srli	r5,r2,18
   2b2c4:	28c01f44 	addi	r3,r5,125
   2b2c8:	18c7883a 	add	r3,r3,r3
   2b2cc:	29401f04 	addi	r5,r5,124
   2b2d0:	003f8e06 	br	2b10c <__alt_data_end+0xfffeb10c>
   2b2d4:	00c03f84 	movi	r3,254
   2b2d8:	01401f84 	movi	r5,126
   2b2dc:	003f8b06 	br	2b10c <__alt_data_end+0xfffeb10c>
   2b2e0:	10c00054 	ori	r3,r2,1
   2b2e4:	30c00115 	stw	r3,4(r6)
   2b2e8:	308d883a 	add	r6,r6,r2
   2b2ec:	30800015 	stw	r2,0(r6)
   2b2f0:	003f7806 	br	2b0d4 <__alt_data_end+0xfffeb0d4>

0002b2f4 <__sfvwrite_r>:
   2b2f4:	30800217 	ldw	r2,8(r6)
   2b2f8:	10006726 	beq	r2,zero,2b498 <__sfvwrite_r+0x1a4>
   2b2fc:	28c0030b 	ldhu	r3,12(r5)
   2b300:	defff404 	addi	sp,sp,-48
   2b304:	dd400715 	stw	r21,28(sp)
   2b308:	dd000615 	stw	r20,24(sp)
   2b30c:	dc000215 	stw	r16,8(sp)
   2b310:	dfc00b15 	stw	ra,44(sp)
   2b314:	df000a15 	stw	fp,40(sp)
   2b318:	ddc00915 	stw	r23,36(sp)
   2b31c:	dd800815 	stw	r22,32(sp)
   2b320:	dcc00515 	stw	r19,20(sp)
   2b324:	dc800415 	stw	r18,16(sp)
   2b328:	dc400315 	stw	r17,12(sp)
   2b32c:	1880020c 	andi	r2,r3,8
   2b330:	2821883a 	mov	r16,r5
   2b334:	202b883a 	mov	r21,r4
   2b338:	3029883a 	mov	r20,r6
   2b33c:	10002726 	beq	r2,zero,2b3dc <__sfvwrite_r+0xe8>
   2b340:	28800417 	ldw	r2,16(r5)
   2b344:	10002526 	beq	r2,zero,2b3dc <__sfvwrite_r+0xe8>
   2b348:	1880008c 	andi	r2,r3,2
   2b34c:	a4400017 	ldw	r17,0(r20)
   2b350:	10002a26 	beq	r2,zero,2b3fc <__sfvwrite_r+0x108>
   2b354:	05a00034 	movhi	r22,32768
   2b358:	0027883a 	mov	r19,zero
   2b35c:	0025883a 	mov	r18,zero
   2b360:	b5bf0004 	addi	r22,r22,-1024
   2b364:	980d883a 	mov	r6,r19
   2b368:	a809883a 	mov	r4,r21
   2b36c:	90004626 	beq	r18,zero,2b488 <__sfvwrite_r+0x194>
   2b370:	900f883a 	mov	r7,r18
   2b374:	b480022e 	bgeu	r22,r18,2b380 <__sfvwrite_r+0x8c>
   2b378:	01e00034 	movhi	r7,32768
   2b37c:	39ff0004 	addi	r7,r7,-1024
   2b380:	80800917 	ldw	r2,36(r16)
   2b384:	81400717 	ldw	r5,28(r16)
   2b388:	103ee83a 	callr	r2
   2b38c:	0080570e 	bge	zero,r2,2b4ec <__sfvwrite_r+0x1f8>
   2b390:	a0c00217 	ldw	r3,8(r20)
   2b394:	98a7883a 	add	r19,r19,r2
   2b398:	90a5c83a 	sub	r18,r18,r2
   2b39c:	1885c83a 	sub	r2,r3,r2
   2b3a0:	a0800215 	stw	r2,8(r20)
   2b3a4:	103fef1e 	bne	r2,zero,2b364 <__alt_data_end+0xfffeb364>
   2b3a8:	0005883a 	mov	r2,zero
   2b3ac:	dfc00b17 	ldw	ra,44(sp)
   2b3b0:	df000a17 	ldw	fp,40(sp)
   2b3b4:	ddc00917 	ldw	r23,36(sp)
   2b3b8:	dd800817 	ldw	r22,32(sp)
   2b3bc:	dd400717 	ldw	r21,28(sp)
   2b3c0:	dd000617 	ldw	r20,24(sp)
   2b3c4:	dcc00517 	ldw	r19,20(sp)
   2b3c8:	dc800417 	ldw	r18,16(sp)
   2b3cc:	dc400317 	ldw	r17,12(sp)
   2b3d0:	dc000217 	ldw	r16,8(sp)
   2b3d4:	dec00c04 	addi	sp,sp,48
   2b3d8:	f800283a 	ret
   2b3dc:	800b883a 	mov	r5,r16
   2b3e0:	a809883a 	mov	r4,r21
   2b3e4:	0028d9c0 	call	28d9c <__swsetup_r>
   2b3e8:	1000eb1e 	bne	r2,zero,2b798 <__sfvwrite_r+0x4a4>
   2b3ec:	80c0030b 	ldhu	r3,12(r16)
   2b3f0:	a4400017 	ldw	r17,0(r20)
   2b3f4:	1880008c 	andi	r2,r3,2
   2b3f8:	103fd61e 	bne	r2,zero,2b354 <__alt_data_end+0xfffeb354>
   2b3fc:	1880004c 	andi	r2,r3,1
   2b400:	10003f1e 	bne	r2,zero,2b500 <__sfvwrite_r+0x20c>
   2b404:	0039883a 	mov	fp,zero
   2b408:	0025883a 	mov	r18,zero
   2b40c:	90001a26 	beq	r18,zero,2b478 <__sfvwrite_r+0x184>
   2b410:	1880800c 	andi	r2,r3,512
   2b414:	84c00217 	ldw	r19,8(r16)
   2b418:	10002126 	beq	r2,zero,2b4a0 <__sfvwrite_r+0x1ac>
   2b41c:	982f883a 	mov	r23,r19
   2b420:	94c09336 	bltu	r18,r19,2b670 <__sfvwrite_r+0x37c>
   2b424:	1881200c 	andi	r2,r3,1152
   2b428:	10009e1e 	bne	r2,zero,2b6a4 <__sfvwrite_r+0x3b0>
   2b42c:	81000017 	ldw	r4,0(r16)
   2b430:	b80d883a 	mov	r6,r23
   2b434:	e00b883a 	mov	r5,fp
   2b438:	002bcf40 	call	2bcf4 <memmove>
   2b43c:	80c00217 	ldw	r3,8(r16)
   2b440:	81000017 	ldw	r4,0(r16)
   2b444:	9005883a 	mov	r2,r18
   2b448:	1ce7c83a 	sub	r19,r3,r19
   2b44c:	25cf883a 	add	r7,r4,r23
   2b450:	84c00215 	stw	r19,8(r16)
   2b454:	81c00015 	stw	r7,0(r16)
   2b458:	a0c00217 	ldw	r3,8(r20)
   2b45c:	e0b9883a 	add	fp,fp,r2
   2b460:	90a5c83a 	sub	r18,r18,r2
   2b464:	18a7c83a 	sub	r19,r3,r2
   2b468:	a4c00215 	stw	r19,8(r20)
   2b46c:	983fce26 	beq	r19,zero,2b3a8 <__alt_data_end+0xfffeb3a8>
   2b470:	80c0030b 	ldhu	r3,12(r16)
   2b474:	903fe61e 	bne	r18,zero,2b410 <__alt_data_end+0xfffeb410>
   2b478:	8f000017 	ldw	fp,0(r17)
   2b47c:	8c800117 	ldw	r18,4(r17)
   2b480:	8c400204 	addi	r17,r17,8
   2b484:	003fe106 	br	2b40c <__alt_data_end+0xfffeb40c>
   2b488:	8cc00017 	ldw	r19,0(r17)
   2b48c:	8c800117 	ldw	r18,4(r17)
   2b490:	8c400204 	addi	r17,r17,8
   2b494:	003fb306 	br	2b364 <__alt_data_end+0xfffeb364>
   2b498:	0005883a 	mov	r2,zero
   2b49c:	f800283a 	ret
   2b4a0:	81000017 	ldw	r4,0(r16)
   2b4a4:	80800417 	ldw	r2,16(r16)
   2b4a8:	11005736 	bltu	r2,r4,2b608 <__sfvwrite_r+0x314>
   2b4ac:	85c00517 	ldw	r23,20(r16)
   2b4b0:	95c05536 	bltu	r18,r23,2b608 <__sfvwrite_r+0x314>
   2b4b4:	00a00034 	movhi	r2,32768
   2b4b8:	10bfffc4 	addi	r2,r2,-1
   2b4bc:	9009883a 	mov	r4,r18
   2b4c0:	1480012e 	bgeu	r2,r18,2b4c8 <__sfvwrite_r+0x1d4>
   2b4c4:	1009883a 	mov	r4,r2
   2b4c8:	b80b883a 	mov	r5,r23
   2b4cc:	0022ccc0 	call	22ccc <__divsi3>
   2b4d0:	15cf383a 	mul	r7,r2,r23
   2b4d4:	81400717 	ldw	r5,28(r16)
   2b4d8:	80800917 	ldw	r2,36(r16)
   2b4dc:	e00d883a 	mov	r6,fp
   2b4e0:	a809883a 	mov	r4,r21
   2b4e4:	103ee83a 	callr	r2
   2b4e8:	00bfdb16 	blt	zero,r2,2b458 <__alt_data_end+0xfffeb458>
   2b4ec:	8080030b 	ldhu	r2,12(r16)
   2b4f0:	10801014 	ori	r2,r2,64
   2b4f4:	8080030d 	sth	r2,12(r16)
   2b4f8:	00bfffc4 	movi	r2,-1
   2b4fc:	003fab06 	br	2b3ac <__alt_data_end+0xfffeb3ac>
   2b500:	0027883a 	mov	r19,zero
   2b504:	0011883a 	mov	r8,zero
   2b508:	0039883a 	mov	fp,zero
   2b50c:	0025883a 	mov	r18,zero
   2b510:	90001f26 	beq	r18,zero,2b590 <__sfvwrite_r+0x29c>
   2b514:	40005a26 	beq	r8,zero,2b680 <__sfvwrite_r+0x38c>
   2b518:	982d883a 	mov	r22,r19
   2b51c:	94c0012e 	bgeu	r18,r19,2b524 <__sfvwrite_r+0x230>
   2b520:	902d883a 	mov	r22,r18
   2b524:	81000017 	ldw	r4,0(r16)
   2b528:	80800417 	ldw	r2,16(r16)
   2b52c:	b02f883a 	mov	r23,r22
   2b530:	81c00517 	ldw	r7,20(r16)
   2b534:	1100032e 	bgeu	r2,r4,2b544 <__sfvwrite_r+0x250>
   2b538:	80c00217 	ldw	r3,8(r16)
   2b53c:	38c7883a 	add	r3,r7,r3
   2b540:	1d801816 	blt	r3,r22,2b5a4 <__sfvwrite_r+0x2b0>
   2b544:	b1c03e16 	blt	r22,r7,2b640 <__sfvwrite_r+0x34c>
   2b548:	80800917 	ldw	r2,36(r16)
   2b54c:	81400717 	ldw	r5,28(r16)
   2b550:	e00d883a 	mov	r6,fp
   2b554:	da000115 	stw	r8,4(sp)
   2b558:	a809883a 	mov	r4,r21
   2b55c:	103ee83a 	callr	r2
   2b560:	102f883a 	mov	r23,r2
   2b564:	da000117 	ldw	r8,4(sp)
   2b568:	00bfe00e 	bge	zero,r2,2b4ec <__alt_data_end+0xfffeb4ec>
   2b56c:	9de7c83a 	sub	r19,r19,r23
   2b570:	98001f26 	beq	r19,zero,2b5f0 <__sfvwrite_r+0x2fc>
   2b574:	a0800217 	ldw	r2,8(r20)
   2b578:	e5f9883a 	add	fp,fp,r23
   2b57c:	95e5c83a 	sub	r18,r18,r23
   2b580:	15efc83a 	sub	r23,r2,r23
   2b584:	a5c00215 	stw	r23,8(r20)
   2b588:	b83f8726 	beq	r23,zero,2b3a8 <__alt_data_end+0xfffeb3a8>
   2b58c:	903fe11e 	bne	r18,zero,2b514 <__alt_data_end+0xfffeb514>
   2b590:	8f000017 	ldw	fp,0(r17)
   2b594:	8c800117 	ldw	r18,4(r17)
   2b598:	0011883a 	mov	r8,zero
   2b59c:	8c400204 	addi	r17,r17,8
   2b5a0:	003fdb06 	br	2b510 <__alt_data_end+0xfffeb510>
   2b5a4:	180d883a 	mov	r6,r3
   2b5a8:	e00b883a 	mov	r5,fp
   2b5ac:	da000115 	stw	r8,4(sp)
   2b5b0:	d8c00015 	stw	r3,0(sp)
   2b5b4:	002bcf40 	call	2bcf4 <memmove>
   2b5b8:	d8c00017 	ldw	r3,0(sp)
   2b5bc:	80800017 	ldw	r2,0(r16)
   2b5c0:	800b883a 	mov	r5,r16
   2b5c4:	a809883a 	mov	r4,r21
   2b5c8:	10c5883a 	add	r2,r2,r3
   2b5cc:	80800015 	stw	r2,0(r16)
   2b5d0:	d8c00015 	stw	r3,0(sp)
   2b5d4:	002a9e80 	call	2a9e8 <_fflush_r>
   2b5d8:	d8c00017 	ldw	r3,0(sp)
   2b5dc:	da000117 	ldw	r8,4(sp)
   2b5e0:	103fc21e 	bne	r2,zero,2b4ec <__alt_data_end+0xfffeb4ec>
   2b5e4:	182f883a 	mov	r23,r3
   2b5e8:	9de7c83a 	sub	r19,r19,r23
   2b5ec:	983fe11e 	bne	r19,zero,2b574 <__alt_data_end+0xfffeb574>
   2b5f0:	800b883a 	mov	r5,r16
   2b5f4:	a809883a 	mov	r4,r21
   2b5f8:	002a9e80 	call	2a9e8 <_fflush_r>
   2b5fc:	103fbb1e 	bne	r2,zero,2b4ec <__alt_data_end+0xfffeb4ec>
   2b600:	0011883a 	mov	r8,zero
   2b604:	003fdb06 	br	2b574 <__alt_data_end+0xfffeb574>
   2b608:	94c0012e 	bgeu	r18,r19,2b610 <__sfvwrite_r+0x31c>
   2b60c:	9027883a 	mov	r19,r18
   2b610:	980d883a 	mov	r6,r19
   2b614:	e00b883a 	mov	r5,fp
   2b618:	002bcf40 	call	2bcf4 <memmove>
   2b61c:	80800217 	ldw	r2,8(r16)
   2b620:	80c00017 	ldw	r3,0(r16)
   2b624:	14c5c83a 	sub	r2,r2,r19
   2b628:	1cc7883a 	add	r3,r3,r19
   2b62c:	80800215 	stw	r2,8(r16)
   2b630:	80c00015 	stw	r3,0(r16)
   2b634:	10004326 	beq	r2,zero,2b744 <__sfvwrite_r+0x450>
   2b638:	9805883a 	mov	r2,r19
   2b63c:	003f8606 	br	2b458 <__alt_data_end+0xfffeb458>
   2b640:	b00d883a 	mov	r6,r22
   2b644:	e00b883a 	mov	r5,fp
   2b648:	da000115 	stw	r8,4(sp)
   2b64c:	002bcf40 	call	2bcf4 <memmove>
   2b650:	80800217 	ldw	r2,8(r16)
   2b654:	80c00017 	ldw	r3,0(r16)
   2b658:	da000117 	ldw	r8,4(sp)
   2b65c:	1585c83a 	sub	r2,r2,r22
   2b660:	1dad883a 	add	r22,r3,r22
   2b664:	80800215 	stw	r2,8(r16)
   2b668:	85800015 	stw	r22,0(r16)
   2b66c:	003fbf06 	br	2b56c <__alt_data_end+0xfffeb56c>
   2b670:	81000017 	ldw	r4,0(r16)
   2b674:	9027883a 	mov	r19,r18
   2b678:	902f883a 	mov	r23,r18
   2b67c:	003f6c06 	br	2b430 <__alt_data_end+0xfffeb430>
   2b680:	900d883a 	mov	r6,r18
   2b684:	01400284 	movi	r5,10
   2b688:	e009883a 	mov	r4,fp
   2b68c:	002bac80 	call	2bac8 <memchr>
   2b690:	10003e26 	beq	r2,zero,2b78c <__sfvwrite_r+0x498>
   2b694:	10800044 	addi	r2,r2,1
   2b698:	1727c83a 	sub	r19,r2,fp
   2b69c:	02000044 	movi	r8,1
   2b6a0:	003f9d06 	br	2b518 <__alt_data_end+0xfffeb518>
   2b6a4:	80800517 	ldw	r2,20(r16)
   2b6a8:	81400417 	ldw	r5,16(r16)
   2b6ac:	81c00017 	ldw	r7,0(r16)
   2b6b0:	10a7883a 	add	r19,r2,r2
   2b6b4:	9885883a 	add	r2,r19,r2
   2b6b8:	1026d7fa 	srli	r19,r2,31
   2b6bc:	396dc83a 	sub	r22,r7,r5
   2b6c0:	b1000044 	addi	r4,r22,1
   2b6c4:	9885883a 	add	r2,r19,r2
   2b6c8:	1027d07a 	srai	r19,r2,1
   2b6cc:	2485883a 	add	r2,r4,r18
   2b6d0:	980d883a 	mov	r6,r19
   2b6d4:	9880022e 	bgeu	r19,r2,2b6e0 <__sfvwrite_r+0x3ec>
   2b6d8:	1027883a 	mov	r19,r2
   2b6dc:	100d883a 	mov	r6,r2
   2b6e0:	18c1000c 	andi	r3,r3,1024
   2b6e4:	18001c26 	beq	r3,zero,2b758 <__sfvwrite_r+0x464>
   2b6e8:	300b883a 	mov	r5,r6
   2b6ec:	a809883a 	mov	r4,r21
   2b6f0:	00237440 	call	23744 <_malloc_r>
   2b6f4:	102f883a 	mov	r23,r2
   2b6f8:	10002926 	beq	r2,zero,2b7a0 <__sfvwrite_r+0x4ac>
   2b6fc:	81400417 	ldw	r5,16(r16)
   2b700:	b00d883a 	mov	r6,r22
   2b704:	1009883a 	mov	r4,r2
   2b708:	002bbac0 	call	2bbac <memcpy>
   2b70c:	8080030b 	ldhu	r2,12(r16)
   2b710:	00fedfc4 	movi	r3,-1153
   2b714:	10c4703a 	and	r2,r2,r3
   2b718:	10802014 	ori	r2,r2,128
   2b71c:	8080030d 	sth	r2,12(r16)
   2b720:	bd89883a 	add	r4,r23,r22
   2b724:	9d8fc83a 	sub	r7,r19,r22
   2b728:	85c00415 	stw	r23,16(r16)
   2b72c:	84c00515 	stw	r19,20(r16)
   2b730:	81000015 	stw	r4,0(r16)
   2b734:	9027883a 	mov	r19,r18
   2b738:	81c00215 	stw	r7,8(r16)
   2b73c:	902f883a 	mov	r23,r18
   2b740:	003f3b06 	br	2b430 <__alt_data_end+0xfffeb430>
   2b744:	800b883a 	mov	r5,r16
   2b748:	a809883a 	mov	r4,r21
   2b74c:	002a9e80 	call	2a9e8 <_fflush_r>
   2b750:	103fb926 	beq	r2,zero,2b638 <__alt_data_end+0xfffeb638>
   2b754:	003f6506 	br	2b4ec <__alt_data_end+0xfffeb4ec>
   2b758:	a809883a 	mov	r4,r21
   2b75c:	002d0140 	call	2d014 <_realloc_r>
   2b760:	102f883a 	mov	r23,r2
   2b764:	103fee1e 	bne	r2,zero,2b720 <__alt_data_end+0xfffeb720>
   2b768:	81400417 	ldw	r5,16(r16)
   2b76c:	a809883a 	mov	r4,r21
   2b770:	002afe40 	call	2afe4 <_free_r>
   2b774:	8080030b 	ldhu	r2,12(r16)
   2b778:	00ffdfc4 	movi	r3,-129
   2b77c:	1884703a 	and	r2,r3,r2
   2b780:	00c00304 	movi	r3,12
   2b784:	a8c00015 	stw	r3,0(r21)
   2b788:	003f5906 	br	2b4f0 <__alt_data_end+0xfffeb4f0>
   2b78c:	94c00044 	addi	r19,r18,1
   2b790:	02000044 	movi	r8,1
   2b794:	003f6006 	br	2b518 <__alt_data_end+0xfffeb518>
   2b798:	00bfffc4 	movi	r2,-1
   2b79c:	003f0306 	br	2b3ac <__alt_data_end+0xfffeb3ac>
   2b7a0:	00800304 	movi	r2,12
   2b7a4:	a8800015 	stw	r2,0(r21)
   2b7a8:	8080030b 	ldhu	r2,12(r16)
   2b7ac:	003f5006 	br	2b4f0 <__alt_data_end+0xfffeb4f0>

0002b7b0 <_fwalk>:
   2b7b0:	defff704 	addi	sp,sp,-36
   2b7b4:	dd000415 	stw	r20,16(sp)
   2b7b8:	dfc00815 	stw	ra,32(sp)
   2b7bc:	ddc00715 	stw	r23,28(sp)
   2b7c0:	dd800615 	stw	r22,24(sp)
   2b7c4:	dd400515 	stw	r21,20(sp)
   2b7c8:	dcc00315 	stw	r19,12(sp)
   2b7cc:	dc800215 	stw	r18,8(sp)
   2b7d0:	dc400115 	stw	r17,4(sp)
   2b7d4:	dc000015 	stw	r16,0(sp)
   2b7d8:	2500b804 	addi	r20,r4,736
   2b7dc:	a0002326 	beq	r20,zero,2b86c <_fwalk+0xbc>
   2b7e0:	282b883a 	mov	r21,r5
   2b7e4:	002f883a 	mov	r23,zero
   2b7e8:	05800044 	movi	r22,1
   2b7ec:	04ffffc4 	movi	r19,-1
   2b7f0:	a4400117 	ldw	r17,4(r20)
   2b7f4:	a4800217 	ldw	r18,8(r20)
   2b7f8:	8c7fffc4 	addi	r17,r17,-1
   2b7fc:	88000d16 	blt	r17,zero,2b834 <_fwalk+0x84>
   2b800:	94000304 	addi	r16,r18,12
   2b804:	94800384 	addi	r18,r18,14
   2b808:	8080000b 	ldhu	r2,0(r16)
   2b80c:	8c7fffc4 	addi	r17,r17,-1
   2b810:	813ffd04 	addi	r4,r16,-12
   2b814:	b080042e 	bgeu	r22,r2,2b828 <_fwalk+0x78>
   2b818:	9080000f 	ldh	r2,0(r18)
   2b81c:	14c00226 	beq	r2,r19,2b828 <_fwalk+0x78>
   2b820:	a83ee83a 	callr	r21
   2b824:	b8aeb03a 	or	r23,r23,r2
   2b828:	84001a04 	addi	r16,r16,104
   2b82c:	94801a04 	addi	r18,r18,104
   2b830:	8cfff51e 	bne	r17,r19,2b808 <__alt_data_end+0xfffeb808>
   2b834:	a5000017 	ldw	r20,0(r20)
   2b838:	a03fed1e 	bne	r20,zero,2b7f0 <__alt_data_end+0xfffeb7f0>
   2b83c:	b805883a 	mov	r2,r23
   2b840:	dfc00817 	ldw	ra,32(sp)
   2b844:	ddc00717 	ldw	r23,28(sp)
   2b848:	dd800617 	ldw	r22,24(sp)
   2b84c:	dd400517 	ldw	r21,20(sp)
   2b850:	dd000417 	ldw	r20,16(sp)
   2b854:	dcc00317 	ldw	r19,12(sp)
   2b858:	dc800217 	ldw	r18,8(sp)
   2b85c:	dc400117 	ldw	r17,4(sp)
   2b860:	dc000017 	ldw	r16,0(sp)
   2b864:	dec00904 	addi	sp,sp,36
   2b868:	f800283a 	ret
   2b86c:	002f883a 	mov	r23,zero
   2b870:	003ff206 	br	2b83c <__alt_data_end+0xfffeb83c>

0002b874 <_fwalk_reent>:
   2b874:	defff704 	addi	sp,sp,-36
   2b878:	dd000415 	stw	r20,16(sp)
   2b87c:	dfc00815 	stw	ra,32(sp)
   2b880:	ddc00715 	stw	r23,28(sp)
   2b884:	dd800615 	stw	r22,24(sp)
   2b888:	dd400515 	stw	r21,20(sp)
   2b88c:	dcc00315 	stw	r19,12(sp)
   2b890:	dc800215 	stw	r18,8(sp)
   2b894:	dc400115 	stw	r17,4(sp)
   2b898:	dc000015 	stw	r16,0(sp)
   2b89c:	2500b804 	addi	r20,r4,736
   2b8a0:	a0002326 	beq	r20,zero,2b930 <_fwalk_reent+0xbc>
   2b8a4:	282b883a 	mov	r21,r5
   2b8a8:	2027883a 	mov	r19,r4
   2b8ac:	002f883a 	mov	r23,zero
   2b8b0:	05800044 	movi	r22,1
   2b8b4:	04bfffc4 	movi	r18,-1
   2b8b8:	a4400117 	ldw	r17,4(r20)
   2b8bc:	a4000217 	ldw	r16,8(r20)
   2b8c0:	8c7fffc4 	addi	r17,r17,-1
   2b8c4:	88000c16 	blt	r17,zero,2b8f8 <_fwalk_reent+0x84>
   2b8c8:	84000304 	addi	r16,r16,12
   2b8cc:	8080000b 	ldhu	r2,0(r16)
   2b8d0:	8c7fffc4 	addi	r17,r17,-1
   2b8d4:	817ffd04 	addi	r5,r16,-12
   2b8d8:	b080052e 	bgeu	r22,r2,2b8f0 <_fwalk_reent+0x7c>
   2b8dc:	8080008f 	ldh	r2,2(r16)
   2b8e0:	9809883a 	mov	r4,r19
   2b8e4:	14800226 	beq	r2,r18,2b8f0 <_fwalk_reent+0x7c>
   2b8e8:	a83ee83a 	callr	r21
   2b8ec:	b8aeb03a 	or	r23,r23,r2
   2b8f0:	84001a04 	addi	r16,r16,104
   2b8f4:	8cbff51e 	bne	r17,r18,2b8cc <__alt_data_end+0xfffeb8cc>
   2b8f8:	a5000017 	ldw	r20,0(r20)
   2b8fc:	a03fee1e 	bne	r20,zero,2b8b8 <__alt_data_end+0xfffeb8b8>
   2b900:	b805883a 	mov	r2,r23
   2b904:	dfc00817 	ldw	ra,32(sp)
   2b908:	ddc00717 	ldw	r23,28(sp)
   2b90c:	dd800617 	ldw	r22,24(sp)
   2b910:	dd400517 	ldw	r21,20(sp)
   2b914:	dd000417 	ldw	r20,16(sp)
   2b918:	dcc00317 	ldw	r19,12(sp)
   2b91c:	dc800217 	ldw	r18,8(sp)
   2b920:	dc400117 	ldw	r17,4(sp)
   2b924:	dc000017 	ldw	r16,0(sp)
   2b928:	dec00904 	addi	sp,sp,36
   2b92c:	f800283a 	ret
   2b930:	002f883a 	mov	r23,zero
   2b934:	003ff206 	br	2b900 <__alt_data_end+0xfffeb900>

0002b938 <_isatty_r>:
   2b938:	defffd04 	addi	sp,sp,-12
   2b93c:	dc000015 	stw	r16,0(sp)
   2b940:	040000f4 	movhi	r16,3
   2b944:	dc400115 	stw	r17,4(sp)
   2b948:	841f5204 	addi	r16,r16,32072
   2b94c:	2023883a 	mov	r17,r4
   2b950:	2809883a 	mov	r4,r5
   2b954:	dfc00215 	stw	ra,8(sp)
   2b958:	80000015 	stw	zero,0(r16)
   2b95c:	0033b640 	call	33b64 <isatty>
   2b960:	00ffffc4 	movi	r3,-1
   2b964:	10c00526 	beq	r2,r3,2b97c <_isatty_r+0x44>
   2b968:	dfc00217 	ldw	ra,8(sp)
   2b96c:	dc400117 	ldw	r17,4(sp)
   2b970:	dc000017 	ldw	r16,0(sp)
   2b974:	dec00304 	addi	sp,sp,12
   2b978:	f800283a 	ret
   2b97c:	80c00017 	ldw	r3,0(r16)
   2b980:	183ff926 	beq	r3,zero,2b968 <__alt_data_end+0xfffeb968>
   2b984:	88c00015 	stw	r3,0(r17)
   2b988:	003ff706 	br	2b968 <__alt_data_end+0xfffeb968>

0002b98c <_setlocale_r>:
   2b98c:	30001b26 	beq	r6,zero,2b9fc <_setlocale_r+0x70>
   2b990:	014000f4 	movhi	r5,3
   2b994:	defffe04 	addi	sp,sp,-8
   2b998:	29555904 	addi	r5,r5,21860
   2b99c:	3009883a 	mov	r4,r6
   2b9a0:	dc000015 	stw	r16,0(sp)
   2b9a4:	dfc00115 	stw	ra,4(sp)
   2b9a8:	3021883a 	mov	r16,r6
   2b9ac:	002d5ec0 	call	2d5ec <strcmp>
   2b9b0:	1000061e 	bne	r2,zero,2b9cc <_setlocale_r+0x40>
   2b9b4:	008000f4 	movhi	r2,3
   2b9b8:	10953204 	addi	r2,r2,21704
   2b9bc:	dfc00117 	ldw	ra,4(sp)
   2b9c0:	dc000017 	ldw	r16,0(sp)
   2b9c4:	dec00204 	addi	sp,sp,8
   2b9c8:	f800283a 	ret
   2b9cc:	014000f4 	movhi	r5,3
   2b9d0:	29553204 	addi	r5,r5,21704
   2b9d4:	8009883a 	mov	r4,r16
   2b9d8:	002d5ec0 	call	2d5ec <strcmp>
   2b9dc:	103ff526 	beq	r2,zero,2b9b4 <__alt_data_end+0xfffeb9b4>
   2b9e0:	014000f4 	movhi	r5,3
   2b9e4:	29553c04 	addi	r5,r5,21744
   2b9e8:	8009883a 	mov	r4,r16
   2b9ec:	002d5ec0 	call	2d5ec <strcmp>
   2b9f0:	103ff026 	beq	r2,zero,2b9b4 <__alt_data_end+0xfffeb9b4>
   2b9f4:	0005883a 	mov	r2,zero
   2b9f8:	003ff006 	br	2b9bc <__alt_data_end+0xfffeb9bc>
   2b9fc:	008000f4 	movhi	r2,3
   2ba00:	10953204 	addi	r2,r2,21704
   2ba04:	f800283a 	ret

0002ba08 <__locale_charset>:
   2ba08:	008000f4 	movhi	r2,3
   2ba0c:	1099fc04 	addi	r2,r2,26608
   2ba10:	f800283a 	ret

0002ba14 <__locale_mb_cur_max>:
   2ba14:	008000f4 	movhi	r2,3
   2ba18:	109a9904 	addi	r2,r2,27236
   2ba1c:	10800017 	ldw	r2,0(r2)
   2ba20:	f800283a 	ret

0002ba24 <__locale_msgcharset>:
   2ba24:	008000f4 	movhi	r2,3
   2ba28:	1099f404 	addi	r2,r2,26576
   2ba2c:	f800283a 	ret

0002ba30 <__locale_cjk_lang>:
   2ba30:	0005883a 	mov	r2,zero
   2ba34:	f800283a 	ret

0002ba38 <_localeconv_r>:
   2ba38:	008000f4 	movhi	r2,3
   2ba3c:	109a0404 	addi	r2,r2,26640
   2ba40:	f800283a 	ret

0002ba44 <setlocale>:
   2ba44:	008000f4 	movhi	r2,3
   2ba48:	109a9604 	addi	r2,r2,27224
   2ba4c:	280d883a 	mov	r6,r5
   2ba50:	200b883a 	mov	r5,r4
   2ba54:	11000017 	ldw	r4,0(r2)
   2ba58:	002b98c1 	jmpi	2b98c <_setlocale_r>

0002ba5c <localeconv>:
   2ba5c:	008000f4 	movhi	r2,3
   2ba60:	109a0404 	addi	r2,r2,26640
   2ba64:	f800283a 	ret

0002ba68 <_lseek_r>:
   2ba68:	defffd04 	addi	sp,sp,-12
   2ba6c:	2805883a 	mov	r2,r5
   2ba70:	dc000015 	stw	r16,0(sp)
   2ba74:	040000f4 	movhi	r16,3
   2ba78:	dc400115 	stw	r17,4(sp)
   2ba7c:	300b883a 	mov	r5,r6
   2ba80:	841f5204 	addi	r16,r16,32072
   2ba84:	2023883a 	mov	r17,r4
   2ba88:	380d883a 	mov	r6,r7
   2ba8c:	1009883a 	mov	r4,r2
   2ba90:	dfc00215 	stw	ra,8(sp)
   2ba94:	80000015 	stw	zero,0(r16)
   2ba98:	0033cc40 	call	33cc4 <lseek>
   2ba9c:	00ffffc4 	movi	r3,-1
   2baa0:	10c00526 	beq	r2,r3,2bab8 <_lseek_r+0x50>
   2baa4:	dfc00217 	ldw	ra,8(sp)
   2baa8:	dc400117 	ldw	r17,4(sp)
   2baac:	dc000017 	ldw	r16,0(sp)
   2bab0:	dec00304 	addi	sp,sp,12
   2bab4:	f800283a 	ret
   2bab8:	80c00017 	ldw	r3,0(r16)
   2babc:	183ff926 	beq	r3,zero,2baa4 <__alt_data_end+0xfffebaa4>
   2bac0:	88c00015 	stw	r3,0(r17)
   2bac4:	003ff706 	br	2baa4 <__alt_data_end+0xfffebaa4>

0002bac8 <memchr>:
   2bac8:	208000cc 	andi	r2,r4,3
   2bacc:	280f883a 	mov	r7,r5
   2bad0:	10003426 	beq	r2,zero,2bba4 <memchr+0xdc>
   2bad4:	30bfffc4 	addi	r2,r6,-1
   2bad8:	30001a26 	beq	r6,zero,2bb44 <memchr+0x7c>
   2badc:	20c00003 	ldbu	r3,0(r4)
   2bae0:	29803fcc 	andi	r6,r5,255
   2bae4:	30c0051e 	bne	r6,r3,2bafc <memchr+0x34>
   2bae8:	00001806 	br	2bb4c <memchr+0x84>
   2baec:	10001526 	beq	r2,zero,2bb44 <memchr+0x7c>
   2baf0:	20c00003 	ldbu	r3,0(r4)
   2baf4:	10bfffc4 	addi	r2,r2,-1
   2baf8:	30c01426 	beq	r6,r3,2bb4c <memchr+0x84>
   2bafc:	21000044 	addi	r4,r4,1
   2bb00:	20c000cc 	andi	r3,r4,3
   2bb04:	183ff91e 	bne	r3,zero,2baec <__alt_data_end+0xfffebaec>
   2bb08:	020000c4 	movi	r8,3
   2bb0c:	40801136 	bltu	r8,r2,2bb54 <memchr+0x8c>
   2bb10:	10000c26 	beq	r2,zero,2bb44 <memchr+0x7c>
   2bb14:	20c00003 	ldbu	r3,0(r4)
   2bb18:	29403fcc 	andi	r5,r5,255
   2bb1c:	28c00b26 	beq	r5,r3,2bb4c <memchr+0x84>
   2bb20:	20c00044 	addi	r3,r4,1
   2bb24:	39803fcc 	andi	r6,r7,255
   2bb28:	2089883a 	add	r4,r4,r2
   2bb2c:	00000306 	br	2bb3c <memchr+0x74>
   2bb30:	18c00044 	addi	r3,r3,1
   2bb34:	197fffc3 	ldbu	r5,-1(r3)
   2bb38:	31400526 	beq	r6,r5,2bb50 <memchr+0x88>
   2bb3c:	1805883a 	mov	r2,r3
   2bb40:	20fffb1e 	bne	r4,r3,2bb30 <__alt_data_end+0xfffebb30>
   2bb44:	0005883a 	mov	r2,zero
   2bb48:	f800283a 	ret
   2bb4c:	2005883a 	mov	r2,r4
   2bb50:	f800283a 	ret
   2bb54:	28c03fcc 	andi	r3,r5,255
   2bb58:	1812923a 	slli	r9,r3,8
   2bb5c:	02ffbff4 	movhi	r11,65279
   2bb60:	02a02074 	movhi	r10,32897
   2bb64:	48d2b03a 	or	r9,r9,r3
   2bb68:	4806943a 	slli	r3,r9,16
   2bb6c:	5affbfc4 	addi	r11,r11,-257
   2bb70:	52a02004 	addi	r10,r10,-32640
   2bb74:	48d2b03a 	or	r9,r9,r3
   2bb78:	20c00017 	ldw	r3,0(r4)
   2bb7c:	48c6f03a 	xor	r3,r9,r3
   2bb80:	1acd883a 	add	r6,r3,r11
   2bb84:	00c6303a 	nor	r3,zero,r3
   2bb88:	30c6703a 	and	r3,r6,r3
   2bb8c:	1a86703a 	and	r3,r3,r10
   2bb90:	183fe01e 	bne	r3,zero,2bb14 <__alt_data_end+0xfffebb14>
   2bb94:	10bfff04 	addi	r2,r2,-4
   2bb98:	21000104 	addi	r4,r4,4
   2bb9c:	40bff636 	bltu	r8,r2,2bb78 <__alt_data_end+0xfffebb78>
   2bba0:	003fdb06 	br	2bb10 <__alt_data_end+0xfffebb10>
   2bba4:	3005883a 	mov	r2,r6
   2bba8:	003fd706 	br	2bb08 <__alt_data_end+0xfffebb08>

0002bbac <memcpy>:
   2bbac:	defffd04 	addi	sp,sp,-12
   2bbb0:	dfc00215 	stw	ra,8(sp)
   2bbb4:	dc400115 	stw	r17,4(sp)
   2bbb8:	dc000015 	stw	r16,0(sp)
   2bbbc:	00c003c4 	movi	r3,15
   2bbc0:	2005883a 	mov	r2,r4
   2bbc4:	1980452e 	bgeu	r3,r6,2bcdc <memcpy+0x130>
   2bbc8:	2906b03a 	or	r3,r5,r4
   2bbcc:	18c000cc 	andi	r3,r3,3
   2bbd0:	1800441e 	bne	r3,zero,2bce4 <memcpy+0x138>
   2bbd4:	347ffc04 	addi	r17,r6,-16
   2bbd8:	8822d13a 	srli	r17,r17,4
   2bbdc:	28c00104 	addi	r3,r5,4
   2bbe0:	23400104 	addi	r13,r4,4
   2bbe4:	8820913a 	slli	r16,r17,4
   2bbe8:	2b000204 	addi	r12,r5,8
   2bbec:	22c00204 	addi	r11,r4,8
   2bbf0:	84000504 	addi	r16,r16,20
   2bbf4:	2a800304 	addi	r10,r5,12
   2bbf8:	22400304 	addi	r9,r4,12
   2bbfc:	2c21883a 	add	r16,r5,r16
   2bc00:	2811883a 	mov	r8,r5
   2bc04:	200f883a 	mov	r7,r4
   2bc08:	41000017 	ldw	r4,0(r8)
   2bc0c:	1fc00017 	ldw	ra,0(r3)
   2bc10:	63c00017 	ldw	r15,0(r12)
   2bc14:	39000015 	stw	r4,0(r7)
   2bc18:	53800017 	ldw	r14,0(r10)
   2bc1c:	6fc00015 	stw	ra,0(r13)
   2bc20:	5bc00015 	stw	r15,0(r11)
   2bc24:	4b800015 	stw	r14,0(r9)
   2bc28:	18c00404 	addi	r3,r3,16
   2bc2c:	39c00404 	addi	r7,r7,16
   2bc30:	42000404 	addi	r8,r8,16
   2bc34:	6b400404 	addi	r13,r13,16
   2bc38:	63000404 	addi	r12,r12,16
   2bc3c:	5ac00404 	addi	r11,r11,16
   2bc40:	52800404 	addi	r10,r10,16
   2bc44:	4a400404 	addi	r9,r9,16
   2bc48:	1c3fef1e 	bne	r3,r16,2bc08 <__alt_data_end+0xfffebc08>
   2bc4c:	89c00044 	addi	r7,r17,1
   2bc50:	380e913a 	slli	r7,r7,4
   2bc54:	310003cc 	andi	r4,r6,15
   2bc58:	02c000c4 	movi	r11,3
   2bc5c:	11c7883a 	add	r3,r2,r7
   2bc60:	29cb883a 	add	r5,r5,r7
   2bc64:	5900212e 	bgeu	r11,r4,2bcec <memcpy+0x140>
   2bc68:	1813883a 	mov	r9,r3
   2bc6c:	2811883a 	mov	r8,r5
   2bc70:	200f883a 	mov	r7,r4
   2bc74:	42800017 	ldw	r10,0(r8)
   2bc78:	4a400104 	addi	r9,r9,4
   2bc7c:	39ffff04 	addi	r7,r7,-4
   2bc80:	4abfff15 	stw	r10,-4(r9)
   2bc84:	42000104 	addi	r8,r8,4
   2bc88:	59fffa36 	bltu	r11,r7,2bc74 <__alt_data_end+0xfffebc74>
   2bc8c:	213fff04 	addi	r4,r4,-4
   2bc90:	2008d0ba 	srli	r4,r4,2
   2bc94:	318000cc 	andi	r6,r6,3
   2bc98:	21000044 	addi	r4,r4,1
   2bc9c:	2109883a 	add	r4,r4,r4
   2bca0:	2109883a 	add	r4,r4,r4
   2bca4:	1907883a 	add	r3,r3,r4
   2bca8:	290b883a 	add	r5,r5,r4
   2bcac:	30000626 	beq	r6,zero,2bcc8 <memcpy+0x11c>
   2bcb0:	198d883a 	add	r6,r3,r6
   2bcb4:	29c00003 	ldbu	r7,0(r5)
   2bcb8:	18c00044 	addi	r3,r3,1
   2bcbc:	29400044 	addi	r5,r5,1
   2bcc0:	19ffffc5 	stb	r7,-1(r3)
   2bcc4:	19bffb1e 	bne	r3,r6,2bcb4 <__alt_data_end+0xfffebcb4>
   2bcc8:	dfc00217 	ldw	ra,8(sp)
   2bccc:	dc400117 	ldw	r17,4(sp)
   2bcd0:	dc000017 	ldw	r16,0(sp)
   2bcd4:	dec00304 	addi	sp,sp,12
   2bcd8:	f800283a 	ret
   2bcdc:	2007883a 	mov	r3,r4
   2bce0:	003ff206 	br	2bcac <__alt_data_end+0xfffebcac>
   2bce4:	2007883a 	mov	r3,r4
   2bce8:	003ff106 	br	2bcb0 <__alt_data_end+0xfffebcb0>
   2bcec:	200d883a 	mov	r6,r4
   2bcf0:	003fee06 	br	2bcac <__alt_data_end+0xfffebcac>

0002bcf4 <memmove>:
   2bcf4:	2005883a 	mov	r2,r4
   2bcf8:	29000b2e 	bgeu	r5,r4,2bd28 <memmove+0x34>
   2bcfc:	298f883a 	add	r7,r5,r6
   2bd00:	21c0092e 	bgeu	r4,r7,2bd28 <memmove+0x34>
   2bd04:	2187883a 	add	r3,r4,r6
   2bd08:	198bc83a 	sub	r5,r3,r6
   2bd0c:	30004826 	beq	r6,zero,2be30 <memmove+0x13c>
   2bd10:	39ffffc4 	addi	r7,r7,-1
   2bd14:	39000003 	ldbu	r4,0(r7)
   2bd18:	18ffffc4 	addi	r3,r3,-1
   2bd1c:	19000005 	stb	r4,0(r3)
   2bd20:	28fffb1e 	bne	r5,r3,2bd10 <__alt_data_end+0xfffebd10>
   2bd24:	f800283a 	ret
   2bd28:	00c003c4 	movi	r3,15
   2bd2c:	1980412e 	bgeu	r3,r6,2be34 <memmove+0x140>
   2bd30:	2886b03a 	or	r3,r5,r2
   2bd34:	18c000cc 	andi	r3,r3,3
   2bd38:	1800401e 	bne	r3,zero,2be3c <memmove+0x148>
   2bd3c:	33fffc04 	addi	r15,r6,-16
   2bd40:	781ed13a 	srli	r15,r15,4
   2bd44:	28c00104 	addi	r3,r5,4
   2bd48:	13400104 	addi	r13,r2,4
   2bd4c:	781c913a 	slli	r14,r15,4
   2bd50:	2b000204 	addi	r12,r5,8
   2bd54:	12c00204 	addi	r11,r2,8
   2bd58:	73800504 	addi	r14,r14,20
   2bd5c:	2a800304 	addi	r10,r5,12
   2bd60:	12400304 	addi	r9,r2,12
   2bd64:	2b9d883a 	add	r14,r5,r14
   2bd68:	2811883a 	mov	r8,r5
   2bd6c:	100f883a 	mov	r7,r2
   2bd70:	41000017 	ldw	r4,0(r8)
   2bd74:	39c00404 	addi	r7,r7,16
   2bd78:	18c00404 	addi	r3,r3,16
   2bd7c:	393ffc15 	stw	r4,-16(r7)
   2bd80:	193ffc17 	ldw	r4,-16(r3)
   2bd84:	6b400404 	addi	r13,r13,16
   2bd88:	5ac00404 	addi	r11,r11,16
   2bd8c:	693ffc15 	stw	r4,-16(r13)
   2bd90:	61000017 	ldw	r4,0(r12)
   2bd94:	4a400404 	addi	r9,r9,16
   2bd98:	42000404 	addi	r8,r8,16
   2bd9c:	593ffc15 	stw	r4,-16(r11)
   2bda0:	51000017 	ldw	r4,0(r10)
   2bda4:	63000404 	addi	r12,r12,16
   2bda8:	52800404 	addi	r10,r10,16
   2bdac:	493ffc15 	stw	r4,-16(r9)
   2bdb0:	1bbfef1e 	bne	r3,r14,2bd70 <__alt_data_end+0xfffebd70>
   2bdb4:	79000044 	addi	r4,r15,1
   2bdb8:	2008913a 	slli	r4,r4,4
   2bdbc:	328003cc 	andi	r10,r6,15
   2bdc0:	02c000c4 	movi	r11,3
   2bdc4:	1107883a 	add	r3,r2,r4
   2bdc8:	290b883a 	add	r5,r5,r4
   2bdcc:	5a801e2e 	bgeu	r11,r10,2be48 <memmove+0x154>
   2bdd0:	1813883a 	mov	r9,r3
   2bdd4:	2811883a 	mov	r8,r5
   2bdd8:	500f883a 	mov	r7,r10
   2bddc:	41000017 	ldw	r4,0(r8)
   2bde0:	4a400104 	addi	r9,r9,4
   2bde4:	39ffff04 	addi	r7,r7,-4
   2bde8:	493fff15 	stw	r4,-4(r9)
   2bdec:	42000104 	addi	r8,r8,4
   2bdf0:	59fffa36 	bltu	r11,r7,2bddc <__alt_data_end+0xfffebddc>
   2bdf4:	513fff04 	addi	r4,r10,-4
   2bdf8:	2008d0ba 	srli	r4,r4,2
   2bdfc:	318000cc 	andi	r6,r6,3
   2be00:	21000044 	addi	r4,r4,1
   2be04:	2109883a 	add	r4,r4,r4
   2be08:	2109883a 	add	r4,r4,r4
   2be0c:	1907883a 	add	r3,r3,r4
   2be10:	290b883a 	add	r5,r5,r4
   2be14:	30000b26 	beq	r6,zero,2be44 <memmove+0x150>
   2be18:	198d883a 	add	r6,r3,r6
   2be1c:	29c00003 	ldbu	r7,0(r5)
   2be20:	18c00044 	addi	r3,r3,1
   2be24:	29400044 	addi	r5,r5,1
   2be28:	19ffffc5 	stb	r7,-1(r3)
   2be2c:	19bffb1e 	bne	r3,r6,2be1c <__alt_data_end+0xfffebe1c>
   2be30:	f800283a 	ret
   2be34:	1007883a 	mov	r3,r2
   2be38:	003ff606 	br	2be14 <__alt_data_end+0xfffebe14>
   2be3c:	1007883a 	mov	r3,r2
   2be40:	003ff506 	br	2be18 <__alt_data_end+0xfffebe18>
   2be44:	f800283a 	ret
   2be48:	500d883a 	mov	r6,r10
   2be4c:	003ff106 	br	2be14 <__alt_data_end+0xfffebe14>

0002be50 <_Balloc>:
   2be50:	20801317 	ldw	r2,76(r4)
   2be54:	defffc04 	addi	sp,sp,-16
   2be58:	dc400115 	stw	r17,4(sp)
   2be5c:	dc000015 	stw	r16,0(sp)
   2be60:	dfc00315 	stw	ra,12(sp)
   2be64:	dc800215 	stw	r18,8(sp)
   2be68:	2023883a 	mov	r17,r4
   2be6c:	2821883a 	mov	r16,r5
   2be70:	10000f26 	beq	r2,zero,2beb0 <_Balloc+0x60>
   2be74:	8407883a 	add	r3,r16,r16
   2be78:	18c7883a 	add	r3,r3,r3
   2be7c:	10c7883a 	add	r3,r2,r3
   2be80:	18800017 	ldw	r2,0(r3)
   2be84:	10001126 	beq	r2,zero,2becc <_Balloc+0x7c>
   2be88:	11000017 	ldw	r4,0(r2)
   2be8c:	19000015 	stw	r4,0(r3)
   2be90:	10000415 	stw	zero,16(r2)
   2be94:	10000315 	stw	zero,12(r2)
   2be98:	dfc00317 	ldw	ra,12(sp)
   2be9c:	dc800217 	ldw	r18,8(sp)
   2bea0:	dc400117 	ldw	r17,4(sp)
   2bea4:	dc000017 	ldw	r16,0(sp)
   2bea8:	dec00404 	addi	sp,sp,16
   2beac:	f800283a 	ret
   2beb0:	01800844 	movi	r6,33
   2beb4:	01400104 	movi	r5,4
   2beb8:	00302740 	call	30274 <_calloc_r>
   2bebc:	88801315 	stw	r2,76(r17)
   2bec0:	103fec1e 	bne	r2,zero,2be74 <__alt_data_end+0xfffebe74>
   2bec4:	0005883a 	mov	r2,zero
   2bec8:	003ff306 	br	2be98 <__alt_data_end+0xfffebe98>
   2becc:	01400044 	movi	r5,1
   2bed0:	2c24983a 	sll	r18,r5,r16
   2bed4:	8809883a 	mov	r4,r17
   2bed8:	91800144 	addi	r6,r18,5
   2bedc:	318d883a 	add	r6,r6,r6
   2bee0:	318d883a 	add	r6,r6,r6
   2bee4:	00302740 	call	30274 <_calloc_r>
   2bee8:	103ff626 	beq	r2,zero,2bec4 <__alt_data_end+0xfffebec4>
   2beec:	14000115 	stw	r16,4(r2)
   2bef0:	14800215 	stw	r18,8(r2)
   2bef4:	003fe606 	br	2be90 <__alt_data_end+0xfffebe90>

0002bef8 <_Bfree>:
   2bef8:	28000826 	beq	r5,zero,2bf1c <_Bfree+0x24>
   2befc:	28c00117 	ldw	r3,4(r5)
   2bf00:	20801317 	ldw	r2,76(r4)
   2bf04:	18c7883a 	add	r3,r3,r3
   2bf08:	18c7883a 	add	r3,r3,r3
   2bf0c:	10c5883a 	add	r2,r2,r3
   2bf10:	10c00017 	ldw	r3,0(r2)
   2bf14:	28c00015 	stw	r3,0(r5)
   2bf18:	11400015 	stw	r5,0(r2)
   2bf1c:	f800283a 	ret

0002bf20 <__multadd>:
   2bf20:	defffa04 	addi	sp,sp,-24
   2bf24:	dc800315 	stw	r18,12(sp)
   2bf28:	dc400215 	stw	r17,8(sp)
   2bf2c:	dc000115 	stw	r16,4(sp)
   2bf30:	2823883a 	mov	r17,r5
   2bf34:	2c000417 	ldw	r16,16(r5)
   2bf38:	dfc00515 	stw	ra,20(sp)
   2bf3c:	dcc00415 	stw	r19,16(sp)
   2bf40:	2025883a 	mov	r18,r4
   2bf44:	29400504 	addi	r5,r5,20
   2bf48:	0011883a 	mov	r8,zero
   2bf4c:	28c00017 	ldw	r3,0(r5)
   2bf50:	29400104 	addi	r5,r5,4
   2bf54:	42000044 	addi	r8,r8,1
   2bf58:	18bfffcc 	andi	r2,r3,65535
   2bf5c:	1185383a 	mul	r2,r2,r6
   2bf60:	1806d43a 	srli	r3,r3,16
   2bf64:	11cf883a 	add	r7,r2,r7
   2bf68:	3808d43a 	srli	r4,r7,16
   2bf6c:	1987383a 	mul	r3,r3,r6
   2bf70:	38bfffcc 	andi	r2,r7,65535
   2bf74:	1907883a 	add	r3,r3,r4
   2bf78:	1808943a 	slli	r4,r3,16
   2bf7c:	180ed43a 	srli	r7,r3,16
   2bf80:	2085883a 	add	r2,r4,r2
   2bf84:	28bfff15 	stw	r2,-4(r5)
   2bf88:	443ff016 	blt	r8,r16,2bf4c <__alt_data_end+0xfffebf4c>
   2bf8c:	38000926 	beq	r7,zero,2bfb4 <__multadd+0x94>
   2bf90:	88800217 	ldw	r2,8(r17)
   2bf94:	80800f0e 	bge	r16,r2,2bfd4 <__multadd+0xb4>
   2bf98:	80800144 	addi	r2,r16,5
   2bf9c:	1085883a 	add	r2,r2,r2
   2bfa0:	1085883a 	add	r2,r2,r2
   2bfa4:	8885883a 	add	r2,r17,r2
   2bfa8:	11c00015 	stw	r7,0(r2)
   2bfac:	84000044 	addi	r16,r16,1
   2bfb0:	8c000415 	stw	r16,16(r17)
   2bfb4:	8805883a 	mov	r2,r17
   2bfb8:	dfc00517 	ldw	ra,20(sp)
   2bfbc:	dcc00417 	ldw	r19,16(sp)
   2bfc0:	dc800317 	ldw	r18,12(sp)
   2bfc4:	dc400217 	ldw	r17,8(sp)
   2bfc8:	dc000117 	ldw	r16,4(sp)
   2bfcc:	dec00604 	addi	sp,sp,24
   2bfd0:	f800283a 	ret
   2bfd4:	89400117 	ldw	r5,4(r17)
   2bfd8:	9009883a 	mov	r4,r18
   2bfdc:	d9c00015 	stw	r7,0(sp)
   2bfe0:	29400044 	addi	r5,r5,1
   2bfe4:	002be500 	call	2be50 <_Balloc>
   2bfe8:	89800417 	ldw	r6,16(r17)
   2bfec:	89400304 	addi	r5,r17,12
   2bff0:	11000304 	addi	r4,r2,12
   2bff4:	31800084 	addi	r6,r6,2
   2bff8:	318d883a 	add	r6,r6,r6
   2bffc:	318d883a 	add	r6,r6,r6
   2c000:	1027883a 	mov	r19,r2
   2c004:	002bbac0 	call	2bbac <memcpy>
   2c008:	d9c00017 	ldw	r7,0(sp)
   2c00c:	88000a26 	beq	r17,zero,2c038 <__multadd+0x118>
   2c010:	88c00117 	ldw	r3,4(r17)
   2c014:	90801317 	ldw	r2,76(r18)
   2c018:	18c7883a 	add	r3,r3,r3
   2c01c:	18c7883a 	add	r3,r3,r3
   2c020:	10c5883a 	add	r2,r2,r3
   2c024:	10c00017 	ldw	r3,0(r2)
   2c028:	88c00015 	stw	r3,0(r17)
   2c02c:	14400015 	stw	r17,0(r2)
   2c030:	9823883a 	mov	r17,r19
   2c034:	003fd806 	br	2bf98 <__alt_data_end+0xfffebf98>
   2c038:	9823883a 	mov	r17,r19
   2c03c:	003fd606 	br	2bf98 <__alt_data_end+0xfffebf98>

0002c040 <__s2b>:
   2c040:	defff904 	addi	sp,sp,-28
   2c044:	dc400115 	stw	r17,4(sp)
   2c048:	dc000015 	stw	r16,0(sp)
   2c04c:	2023883a 	mov	r17,r4
   2c050:	2821883a 	mov	r16,r5
   2c054:	39000204 	addi	r4,r7,8
   2c058:	01400244 	movi	r5,9
   2c05c:	dcc00315 	stw	r19,12(sp)
   2c060:	dc800215 	stw	r18,8(sp)
   2c064:	dfc00615 	stw	ra,24(sp)
   2c068:	dd400515 	stw	r21,20(sp)
   2c06c:	dd000415 	stw	r20,16(sp)
   2c070:	3825883a 	mov	r18,r7
   2c074:	3027883a 	mov	r19,r6
   2c078:	0022ccc0 	call	22ccc <__divsi3>
   2c07c:	00c00044 	movi	r3,1
   2c080:	000b883a 	mov	r5,zero
   2c084:	1880030e 	bge	r3,r2,2c094 <__s2b+0x54>
   2c088:	18c7883a 	add	r3,r3,r3
   2c08c:	29400044 	addi	r5,r5,1
   2c090:	18bffd16 	blt	r3,r2,2c088 <__alt_data_end+0xfffec088>
   2c094:	8809883a 	mov	r4,r17
   2c098:	002be500 	call	2be50 <_Balloc>
   2c09c:	d8c00717 	ldw	r3,28(sp)
   2c0a0:	10c00515 	stw	r3,20(r2)
   2c0a4:	00c00044 	movi	r3,1
   2c0a8:	10c00415 	stw	r3,16(r2)
   2c0ac:	00c00244 	movi	r3,9
   2c0b0:	1cc0210e 	bge	r3,r19,2c138 <__s2b+0xf8>
   2c0b4:	80eb883a 	add	r21,r16,r3
   2c0b8:	a829883a 	mov	r20,r21
   2c0bc:	84e1883a 	add	r16,r16,r19
   2c0c0:	a1c00007 	ldb	r7,0(r20)
   2c0c4:	01800284 	movi	r6,10
   2c0c8:	a5000044 	addi	r20,r20,1
   2c0cc:	100b883a 	mov	r5,r2
   2c0d0:	39fff404 	addi	r7,r7,-48
   2c0d4:	8809883a 	mov	r4,r17
   2c0d8:	002bf200 	call	2bf20 <__multadd>
   2c0dc:	a43ff81e 	bne	r20,r16,2c0c0 <__alt_data_end+0xfffec0c0>
   2c0e0:	ace1883a 	add	r16,r21,r19
   2c0e4:	843ffe04 	addi	r16,r16,-8
   2c0e8:	9c800a0e 	bge	r19,r18,2c114 <__s2b+0xd4>
   2c0ec:	94e5c83a 	sub	r18,r18,r19
   2c0f0:	84a5883a 	add	r18,r16,r18
   2c0f4:	81c00007 	ldb	r7,0(r16)
   2c0f8:	01800284 	movi	r6,10
   2c0fc:	84000044 	addi	r16,r16,1
   2c100:	100b883a 	mov	r5,r2
   2c104:	39fff404 	addi	r7,r7,-48
   2c108:	8809883a 	mov	r4,r17
   2c10c:	002bf200 	call	2bf20 <__multadd>
   2c110:	84bff81e 	bne	r16,r18,2c0f4 <__alt_data_end+0xfffec0f4>
   2c114:	dfc00617 	ldw	ra,24(sp)
   2c118:	dd400517 	ldw	r21,20(sp)
   2c11c:	dd000417 	ldw	r20,16(sp)
   2c120:	dcc00317 	ldw	r19,12(sp)
   2c124:	dc800217 	ldw	r18,8(sp)
   2c128:	dc400117 	ldw	r17,4(sp)
   2c12c:	dc000017 	ldw	r16,0(sp)
   2c130:	dec00704 	addi	sp,sp,28
   2c134:	f800283a 	ret
   2c138:	84000284 	addi	r16,r16,10
   2c13c:	1827883a 	mov	r19,r3
   2c140:	003fe906 	br	2c0e8 <__alt_data_end+0xfffec0e8>

0002c144 <__hi0bits>:
   2c144:	20bfffec 	andhi	r2,r4,65535
   2c148:	1000141e 	bne	r2,zero,2c19c <__hi0bits+0x58>
   2c14c:	2008943a 	slli	r4,r4,16
   2c150:	00800404 	movi	r2,16
   2c154:	20ffc02c 	andhi	r3,r4,65280
   2c158:	1800021e 	bne	r3,zero,2c164 <__hi0bits+0x20>
   2c15c:	2008923a 	slli	r4,r4,8
   2c160:	10800204 	addi	r2,r2,8
   2c164:	20fc002c 	andhi	r3,r4,61440
   2c168:	1800021e 	bne	r3,zero,2c174 <__hi0bits+0x30>
   2c16c:	2008913a 	slli	r4,r4,4
   2c170:	10800104 	addi	r2,r2,4
   2c174:	20f0002c 	andhi	r3,r4,49152
   2c178:	1800031e 	bne	r3,zero,2c188 <__hi0bits+0x44>
   2c17c:	2109883a 	add	r4,r4,r4
   2c180:	10800084 	addi	r2,r2,2
   2c184:	2109883a 	add	r4,r4,r4
   2c188:	20000316 	blt	r4,zero,2c198 <__hi0bits+0x54>
   2c18c:	2110002c 	andhi	r4,r4,16384
   2c190:	2000041e 	bne	r4,zero,2c1a4 <__hi0bits+0x60>
   2c194:	00800804 	movi	r2,32
   2c198:	f800283a 	ret
   2c19c:	0005883a 	mov	r2,zero
   2c1a0:	003fec06 	br	2c154 <__alt_data_end+0xfffec154>
   2c1a4:	10800044 	addi	r2,r2,1
   2c1a8:	f800283a 	ret

0002c1ac <__lo0bits>:
   2c1ac:	20c00017 	ldw	r3,0(r4)
   2c1b0:	188001cc 	andi	r2,r3,7
   2c1b4:	10000826 	beq	r2,zero,2c1d8 <__lo0bits+0x2c>
   2c1b8:	1880004c 	andi	r2,r3,1
   2c1bc:	1000211e 	bne	r2,zero,2c244 <__lo0bits+0x98>
   2c1c0:	1880008c 	andi	r2,r3,2
   2c1c4:	1000211e 	bne	r2,zero,2c24c <__lo0bits+0xa0>
   2c1c8:	1806d0ba 	srli	r3,r3,2
   2c1cc:	00800084 	movi	r2,2
   2c1d0:	20c00015 	stw	r3,0(r4)
   2c1d4:	f800283a 	ret
   2c1d8:	18bfffcc 	andi	r2,r3,65535
   2c1dc:	10001326 	beq	r2,zero,2c22c <__lo0bits+0x80>
   2c1e0:	0005883a 	mov	r2,zero
   2c1e4:	19403fcc 	andi	r5,r3,255
   2c1e8:	2800021e 	bne	r5,zero,2c1f4 <__lo0bits+0x48>
   2c1ec:	1806d23a 	srli	r3,r3,8
   2c1f0:	10800204 	addi	r2,r2,8
   2c1f4:	194003cc 	andi	r5,r3,15
   2c1f8:	2800021e 	bne	r5,zero,2c204 <__lo0bits+0x58>
   2c1fc:	1806d13a 	srli	r3,r3,4
   2c200:	10800104 	addi	r2,r2,4
   2c204:	194000cc 	andi	r5,r3,3
   2c208:	2800021e 	bne	r5,zero,2c214 <__lo0bits+0x68>
   2c20c:	1806d0ba 	srli	r3,r3,2
   2c210:	10800084 	addi	r2,r2,2
   2c214:	1940004c 	andi	r5,r3,1
   2c218:	2800081e 	bne	r5,zero,2c23c <__lo0bits+0x90>
   2c21c:	1806d07a 	srli	r3,r3,1
   2c220:	1800051e 	bne	r3,zero,2c238 <__lo0bits+0x8c>
   2c224:	00800804 	movi	r2,32
   2c228:	f800283a 	ret
   2c22c:	1806d43a 	srli	r3,r3,16
   2c230:	00800404 	movi	r2,16
   2c234:	003feb06 	br	2c1e4 <__alt_data_end+0xfffec1e4>
   2c238:	10800044 	addi	r2,r2,1
   2c23c:	20c00015 	stw	r3,0(r4)
   2c240:	f800283a 	ret
   2c244:	0005883a 	mov	r2,zero
   2c248:	f800283a 	ret
   2c24c:	1806d07a 	srli	r3,r3,1
   2c250:	00800044 	movi	r2,1
   2c254:	20c00015 	stw	r3,0(r4)
   2c258:	f800283a 	ret

0002c25c <__i2b>:
   2c25c:	defffd04 	addi	sp,sp,-12
   2c260:	dc000015 	stw	r16,0(sp)
   2c264:	04000044 	movi	r16,1
   2c268:	dc400115 	stw	r17,4(sp)
   2c26c:	2823883a 	mov	r17,r5
   2c270:	800b883a 	mov	r5,r16
   2c274:	dfc00215 	stw	ra,8(sp)
   2c278:	002be500 	call	2be50 <_Balloc>
   2c27c:	14400515 	stw	r17,20(r2)
   2c280:	14000415 	stw	r16,16(r2)
   2c284:	dfc00217 	ldw	ra,8(sp)
   2c288:	dc400117 	ldw	r17,4(sp)
   2c28c:	dc000017 	ldw	r16,0(sp)
   2c290:	dec00304 	addi	sp,sp,12
   2c294:	f800283a 	ret

0002c298 <__multiply>:
   2c298:	defffa04 	addi	sp,sp,-24
   2c29c:	dcc00315 	stw	r19,12(sp)
   2c2a0:	dc800215 	stw	r18,8(sp)
   2c2a4:	34c00417 	ldw	r19,16(r6)
   2c2a8:	2c800417 	ldw	r18,16(r5)
   2c2ac:	dd000415 	stw	r20,16(sp)
   2c2b0:	dc400115 	stw	r17,4(sp)
   2c2b4:	dfc00515 	stw	ra,20(sp)
   2c2b8:	dc000015 	stw	r16,0(sp)
   2c2bc:	2829883a 	mov	r20,r5
   2c2c0:	3023883a 	mov	r17,r6
   2c2c4:	94c0050e 	bge	r18,r19,2c2dc <__multiply+0x44>
   2c2c8:	9007883a 	mov	r3,r18
   2c2cc:	3029883a 	mov	r20,r6
   2c2d0:	9825883a 	mov	r18,r19
   2c2d4:	2823883a 	mov	r17,r5
   2c2d8:	1827883a 	mov	r19,r3
   2c2dc:	a0800217 	ldw	r2,8(r20)
   2c2e0:	94e1883a 	add	r16,r18,r19
   2c2e4:	a1400117 	ldw	r5,4(r20)
   2c2e8:	1400010e 	bge	r2,r16,2c2f0 <__multiply+0x58>
   2c2ec:	29400044 	addi	r5,r5,1
   2c2f0:	002be500 	call	2be50 <_Balloc>
   2c2f4:	8415883a 	add	r10,r16,r16
   2c2f8:	12c00504 	addi	r11,r2,20
   2c2fc:	5295883a 	add	r10,r10,r10
   2c300:	5a95883a 	add	r10,r11,r10
   2c304:	5807883a 	mov	r3,r11
   2c308:	5a80032e 	bgeu	r11,r10,2c318 <__multiply+0x80>
   2c30c:	18000015 	stw	zero,0(r3)
   2c310:	18c00104 	addi	r3,r3,4
   2c314:	1abffd36 	bltu	r3,r10,2c30c <__alt_data_end+0xfffec30c>
   2c318:	9ce7883a 	add	r19,r19,r19
   2c31c:	94a5883a 	add	r18,r18,r18
   2c320:	89800504 	addi	r6,r17,20
   2c324:	9ce7883a 	add	r19,r19,r19
   2c328:	a3400504 	addi	r13,r20,20
   2c32c:	94a5883a 	add	r18,r18,r18
   2c330:	34d9883a 	add	r12,r6,r19
   2c334:	6c93883a 	add	r9,r13,r18
   2c338:	3300422e 	bgeu	r6,r12,2c444 <__multiply+0x1ac>
   2c33c:	37c00017 	ldw	ra,0(r6)
   2c340:	fbffffcc 	andi	r15,ra,65535
   2c344:	78001b26 	beq	r15,zero,2c3b4 <__multiply+0x11c>
   2c348:	5811883a 	mov	r8,r11
   2c34c:	681d883a 	mov	r14,r13
   2c350:	000f883a 	mov	r7,zero
   2c354:	71000017 	ldw	r4,0(r14)
   2c358:	40c00017 	ldw	r3,0(r8)
   2c35c:	73800104 	addi	r14,r14,4
   2c360:	217fffcc 	andi	r5,r4,65535
   2c364:	2bcb383a 	mul	r5,r5,r15
   2c368:	2008d43a 	srli	r4,r4,16
   2c36c:	1c7fffcc 	andi	r17,r3,65535
   2c370:	2c4b883a 	add	r5,r5,r17
   2c374:	29cb883a 	add	r5,r5,r7
   2c378:	23c9383a 	mul	r4,r4,r15
   2c37c:	1806d43a 	srli	r3,r3,16
   2c380:	280ed43a 	srli	r7,r5,16
   2c384:	297fffcc 	andi	r5,r5,65535
   2c388:	20c7883a 	add	r3,r4,r3
   2c38c:	19c7883a 	add	r3,r3,r7
   2c390:	1808943a 	slli	r4,r3,16
   2c394:	4023883a 	mov	r17,r8
   2c398:	180ed43a 	srli	r7,r3,16
   2c39c:	214ab03a 	or	r5,r4,r5
   2c3a0:	41400015 	stw	r5,0(r8)
   2c3a4:	42000104 	addi	r8,r8,4
   2c3a8:	727fea36 	bltu	r14,r9,2c354 <__alt_data_end+0xfffec354>
   2c3ac:	89c00115 	stw	r7,4(r17)
   2c3b0:	37c00017 	ldw	ra,0(r6)
   2c3b4:	f83ed43a 	srli	ra,ra,16
   2c3b8:	f8001f26 	beq	ra,zero,2c438 <__multiply+0x1a0>
   2c3bc:	58c00017 	ldw	r3,0(r11)
   2c3c0:	681d883a 	mov	r14,r13
   2c3c4:	581f883a 	mov	r15,r11
   2c3c8:	1811883a 	mov	r8,r3
   2c3cc:	5825883a 	mov	r18,r11
   2c3d0:	000f883a 	mov	r7,zero
   2c3d4:	00000106 	br	2c3dc <__multiply+0x144>
   2c3d8:	8825883a 	mov	r18,r17
   2c3dc:	7140000b 	ldhu	r5,0(r14)
   2c3e0:	4010d43a 	srli	r8,r8,16
   2c3e4:	193fffcc 	andi	r4,r3,65535
   2c3e8:	2fcb383a 	mul	r5,r5,ra
   2c3ec:	7bc00104 	addi	r15,r15,4
   2c3f0:	73800104 	addi	r14,r14,4
   2c3f4:	2a0b883a 	add	r5,r5,r8
   2c3f8:	29cb883a 	add	r5,r5,r7
   2c3fc:	2806943a 	slli	r3,r5,16
   2c400:	94400104 	addi	r17,r18,4
   2c404:	280ad43a 	srli	r5,r5,16
   2c408:	1908b03a 	or	r4,r3,r4
   2c40c:	793fff15 	stw	r4,-4(r15)
   2c410:	70ffff17 	ldw	r3,-4(r14)
   2c414:	8a000017 	ldw	r8,0(r17)
   2c418:	1806d43a 	srli	r3,r3,16
   2c41c:	413fffcc 	andi	r4,r8,65535
   2c420:	1fc7383a 	mul	r3,r3,ra
   2c424:	1907883a 	add	r3,r3,r4
   2c428:	1947883a 	add	r3,r3,r5
   2c42c:	180ed43a 	srli	r7,r3,16
   2c430:	727fe936 	bltu	r14,r9,2c3d8 <__alt_data_end+0xfffec3d8>
   2c434:	90c00115 	stw	r3,4(r18)
   2c438:	31800104 	addi	r6,r6,4
   2c43c:	5ac00104 	addi	r11,r11,4
   2c440:	333fbe36 	bltu	r6,r12,2c33c <__alt_data_end+0xfffec33c>
   2c444:	0400090e 	bge	zero,r16,2c46c <__multiply+0x1d4>
   2c448:	50ffff17 	ldw	r3,-4(r10)
   2c44c:	52bfff04 	addi	r10,r10,-4
   2c450:	18000326 	beq	r3,zero,2c460 <__multiply+0x1c8>
   2c454:	00000506 	br	2c46c <__multiply+0x1d4>
   2c458:	50c00017 	ldw	r3,0(r10)
   2c45c:	1800031e 	bne	r3,zero,2c46c <__multiply+0x1d4>
   2c460:	843fffc4 	addi	r16,r16,-1
   2c464:	52bfff04 	addi	r10,r10,-4
   2c468:	803ffb1e 	bne	r16,zero,2c458 <__alt_data_end+0xfffec458>
   2c46c:	14000415 	stw	r16,16(r2)
   2c470:	dfc00517 	ldw	ra,20(sp)
   2c474:	dd000417 	ldw	r20,16(sp)
   2c478:	dcc00317 	ldw	r19,12(sp)
   2c47c:	dc800217 	ldw	r18,8(sp)
   2c480:	dc400117 	ldw	r17,4(sp)
   2c484:	dc000017 	ldw	r16,0(sp)
   2c488:	dec00604 	addi	sp,sp,24
   2c48c:	f800283a 	ret

0002c490 <__pow5mult>:
   2c490:	defffa04 	addi	sp,sp,-24
   2c494:	dcc00315 	stw	r19,12(sp)
   2c498:	dc000015 	stw	r16,0(sp)
   2c49c:	dfc00515 	stw	ra,20(sp)
   2c4a0:	dd000415 	stw	r20,16(sp)
   2c4a4:	dc800215 	stw	r18,8(sp)
   2c4a8:	dc400115 	stw	r17,4(sp)
   2c4ac:	308000cc 	andi	r2,r6,3
   2c4b0:	3021883a 	mov	r16,r6
   2c4b4:	2027883a 	mov	r19,r4
   2c4b8:	10002f1e 	bne	r2,zero,2c578 <__pow5mult+0xe8>
   2c4bc:	2825883a 	mov	r18,r5
   2c4c0:	8021d0ba 	srai	r16,r16,2
   2c4c4:	80001a26 	beq	r16,zero,2c530 <__pow5mult+0xa0>
   2c4c8:	9c401217 	ldw	r17,72(r19)
   2c4cc:	8800061e 	bne	r17,zero,2c4e8 <__pow5mult+0x58>
   2c4d0:	00003406 	br	2c5a4 <__pow5mult+0x114>
   2c4d4:	8021d07a 	srai	r16,r16,1
   2c4d8:	80001526 	beq	r16,zero,2c530 <__pow5mult+0xa0>
   2c4dc:	88800017 	ldw	r2,0(r17)
   2c4e0:	10001c26 	beq	r2,zero,2c554 <__pow5mult+0xc4>
   2c4e4:	1023883a 	mov	r17,r2
   2c4e8:	8080004c 	andi	r2,r16,1
   2c4ec:	103ff926 	beq	r2,zero,2c4d4 <__alt_data_end+0xfffec4d4>
   2c4f0:	880d883a 	mov	r6,r17
   2c4f4:	900b883a 	mov	r5,r18
   2c4f8:	9809883a 	mov	r4,r19
   2c4fc:	002c2980 	call	2c298 <__multiply>
   2c500:	90001b26 	beq	r18,zero,2c570 <__pow5mult+0xe0>
   2c504:	91000117 	ldw	r4,4(r18)
   2c508:	98c01317 	ldw	r3,76(r19)
   2c50c:	8021d07a 	srai	r16,r16,1
   2c510:	2109883a 	add	r4,r4,r4
   2c514:	2109883a 	add	r4,r4,r4
   2c518:	1907883a 	add	r3,r3,r4
   2c51c:	19000017 	ldw	r4,0(r3)
   2c520:	91000015 	stw	r4,0(r18)
   2c524:	1c800015 	stw	r18,0(r3)
   2c528:	1025883a 	mov	r18,r2
   2c52c:	803feb1e 	bne	r16,zero,2c4dc <__alt_data_end+0xfffec4dc>
   2c530:	9005883a 	mov	r2,r18
   2c534:	dfc00517 	ldw	ra,20(sp)
   2c538:	dd000417 	ldw	r20,16(sp)
   2c53c:	dcc00317 	ldw	r19,12(sp)
   2c540:	dc800217 	ldw	r18,8(sp)
   2c544:	dc400117 	ldw	r17,4(sp)
   2c548:	dc000017 	ldw	r16,0(sp)
   2c54c:	dec00604 	addi	sp,sp,24
   2c550:	f800283a 	ret
   2c554:	880d883a 	mov	r6,r17
   2c558:	880b883a 	mov	r5,r17
   2c55c:	9809883a 	mov	r4,r19
   2c560:	002c2980 	call	2c298 <__multiply>
   2c564:	88800015 	stw	r2,0(r17)
   2c568:	10000015 	stw	zero,0(r2)
   2c56c:	003fdd06 	br	2c4e4 <__alt_data_end+0xfffec4e4>
   2c570:	1025883a 	mov	r18,r2
   2c574:	003fd706 	br	2c4d4 <__alt_data_end+0xfffec4d4>
   2c578:	10bfffc4 	addi	r2,r2,-1
   2c57c:	1085883a 	add	r2,r2,r2
   2c580:	00c000f4 	movhi	r3,3
   2c584:	18d55c04 	addi	r3,r3,21872
   2c588:	1085883a 	add	r2,r2,r2
   2c58c:	1885883a 	add	r2,r3,r2
   2c590:	11800017 	ldw	r6,0(r2)
   2c594:	000f883a 	mov	r7,zero
   2c598:	002bf200 	call	2bf20 <__multadd>
   2c59c:	1025883a 	mov	r18,r2
   2c5a0:	003fc706 	br	2c4c0 <__alt_data_end+0xfffec4c0>
   2c5a4:	05000044 	movi	r20,1
   2c5a8:	a00b883a 	mov	r5,r20
   2c5ac:	9809883a 	mov	r4,r19
   2c5b0:	002be500 	call	2be50 <_Balloc>
   2c5b4:	1023883a 	mov	r17,r2
   2c5b8:	00809c44 	movi	r2,625
   2c5bc:	88800515 	stw	r2,20(r17)
   2c5c0:	8d000415 	stw	r20,16(r17)
   2c5c4:	9c401215 	stw	r17,72(r19)
   2c5c8:	88000015 	stw	zero,0(r17)
   2c5cc:	003fc606 	br	2c4e8 <__alt_data_end+0xfffec4e8>

0002c5d0 <__lshift>:
   2c5d0:	defff904 	addi	sp,sp,-28
   2c5d4:	dd400515 	stw	r21,20(sp)
   2c5d8:	dcc00315 	stw	r19,12(sp)
   2c5dc:	302bd17a 	srai	r21,r6,5
   2c5e0:	2cc00417 	ldw	r19,16(r5)
   2c5e4:	28800217 	ldw	r2,8(r5)
   2c5e8:	dd000415 	stw	r20,16(sp)
   2c5ec:	ace7883a 	add	r19,r21,r19
   2c5f0:	dc800215 	stw	r18,8(sp)
   2c5f4:	dc400115 	stw	r17,4(sp)
   2c5f8:	dc000015 	stw	r16,0(sp)
   2c5fc:	dfc00615 	stw	ra,24(sp)
   2c600:	9c000044 	addi	r16,r19,1
   2c604:	2823883a 	mov	r17,r5
   2c608:	3029883a 	mov	r20,r6
   2c60c:	2025883a 	mov	r18,r4
   2c610:	29400117 	ldw	r5,4(r5)
   2c614:	1400030e 	bge	r2,r16,2c624 <__lshift+0x54>
   2c618:	1085883a 	add	r2,r2,r2
   2c61c:	29400044 	addi	r5,r5,1
   2c620:	143ffd16 	blt	r2,r16,2c618 <__alt_data_end+0xfffec618>
   2c624:	9009883a 	mov	r4,r18
   2c628:	002be500 	call	2be50 <_Balloc>
   2c62c:	10c00504 	addi	r3,r2,20
   2c630:	0540070e 	bge	zero,r21,2c650 <__lshift+0x80>
   2c634:	ad6b883a 	add	r21,r21,r21
   2c638:	ad6b883a 	add	r21,r21,r21
   2c63c:	1809883a 	mov	r4,r3
   2c640:	1d47883a 	add	r3,r3,r21
   2c644:	20000015 	stw	zero,0(r4)
   2c648:	21000104 	addi	r4,r4,4
   2c64c:	193ffd1e 	bne	r3,r4,2c644 <__alt_data_end+0xfffec644>
   2c650:	8a000417 	ldw	r8,16(r17)
   2c654:	89000504 	addi	r4,r17,20
   2c658:	a18007cc 	andi	r6,r20,31
   2c65c:	4211883a 	add	r8,r8,r8
   2c660:	4211883a 	add	r8,r8,r8
   2c664:	2211883a 	add	r8,r4,r8
   2c668:	30002326 	beq	r6,zero,2c6f8 <__lshift+0x128>
   2c66c:	02400804 	movi	r9,32
   2c670:	4993c83a 	sub	r9,r9,r6
   2c674:	000b883a 	mov	r5,zero
   2c678:	21c00017 	ldw	r7,0(r4)
   2c67c:	1815883a 	mov	r10,r3
   2c680:	18c00104 	addi	r3,r3,4
   2c684:	398e983a 	sll	r7,r7,r6
   2c688:	21000104 	addi	r4,r4,4
   2c68c:	394ab03a 	or	r5,r7,r5
   2c690:	197fff15 	stw	r5,-4(r3)
   2c694:	217fff17 	ldw	r5,-4(r4)
   2c698:	2a4ad83a 	srl	r5,r5,r9
   2c69c:	223ff636 	bltu	r4,r8,2c678 <__alt_data_end+0xfffec678>
   2c6a0:	51400115 	stw	r5,4(r10)
   2c6a4:	28001a1e 	bne	r5,zero,2c710 <__lshift+0x140>
   2c6a8:	843fffc4 	addi	r16,r16,-1
   2c6ac:	14000415 	stw	r16,16(r2)
   2c6b0:	88000826 	beq	r17,zero,2c6d4 <__lshift+0x104>
   2c6b4:	89000117 	ldw	r4,4(r17)
   2c6b8:	90c01317 	ldw	r3,76(r18)
   2c6bc:	2109883a 	add	r4,r4,r4
   2c6c0:	2109883a 	add	r4,r4,r4
   2c6c4:	1907883a 	add	r3,r3,r4
   2c6c8:	19000017 	ldw	r4,0(r3)
   2c6cc:	89000015 	stw	r4,0(r17)
   2c6d0:	1c400015 	stw	r17,0(r3)
   2c6d4:	dfc00617 	ldw	ra,24(sp)
   2c6d8:	dd400517 	ldw	r21,20(sp)
   2c6dc:	dd000417 	ldw	r20,16(sp)
   2c6e0:	dcc00317 	ldw	r19,12(sp)
   2c6e4:	dc800217 	ldw	r18,8(sp)
   2c6e8:	dc400117 	ldw	r17,4(sp)
   2c6ec:	dc000017 	ldw	r16,0(sp)
   2c6f0:	dec00704 	addi	sp,sp,28
   2c6f4:	f800283a 	ret
   2c6f8:	21400017 	ldw	r5,0(r4)
   2c6fc:	18c00104 	addi	r3,r3,4
   2c700:	21000104 	addi	r4,r4,4
   2c704:	197fff15 	stw	r5,-4(r3)
   2c708:	223ffb36 	bltu	r4,r8,2c6f8 <__alt_data_end+0xfffec6f8>
   2c70c:	003fe606 	br	2c6a8 <__alt_data_end+0xfffec6a8>
   2c710:	9c000084 	addi	r16,r19,2
   2c714:	003fe406 	br	2c6a8 <__alt_data_end+0xfffec6a8>

0002c718 <__mcmp>:
   2c718:	20800417 	ldw	r2,16(r4)
   2c71c:	28c00417 	ldw	r3,16(r5)
   2c720:	10c5c83a 	sub	r2,r2,r3
   2c724:	1000111e 	bne	r2,zero,2c76c <__mcmp+0x54>
   2c728:	18c7883a 	add	r3,r3,r3
   2c72c:	18c7883a 	add	r3,r3,r3
   2c730:	21000504 	addi	r4,r4,20
   2c734:	29400504 	addi	r5,r5,20
   2c738:	20c5883a 	add	r2,r4,r3
   2c73c:	28cb883a 	add	r5,r5,r3
   2c740:	00000106 	br	2c748 <__mcmp+0x30>
   2c744:	20800a2e 	bgeu	r4,r2,2c770 <__mcmp+0x58>
   2c748:	10bfff04 	addi	r2,r2,-4
   2c74c:	297fff04 	addi	r5,r5,-4
   2c750:	11800017 	ldw	r6,0(r2)
   2c754:	28c00017 	ldw	r3,0(r5)
   2c758:	30fffa26 	beq	r6,r3,2c744 <__alt_data_end+0xfffec744>
   2c75c:	30c00236 	bltu	r6,r3,2c768 <__mcmp+0x50>
   2c760:	00800044 	movi	r2,1
   2c764:	f800283a 	ret
   2c768:	00bfffc4 	movi	r2,-1
   2c76c:	f800283a 	ret
   2c770:	0005883a 	mov	r2,zero
   2c774:	f800283a 	ret

0002c778 <__mdiff>:
   2c778:	28c00417 	ldw	r3,16(r5)
   2c77c:	30800417 	ldw	r2,16(r6)
   2c780:	defffa04 	addi	sp,sp,-24
   2c784:	dcc00315 	stw	r19,12(sp)
   2c788:	dc800215 	stw	r18,8(sp)
   2c78c:	dfc00515 	stw	ra,20(sp)
   2c790:	dd000415 	stw	r20,16(sp)
   2c794:	dc400115 	stw	r17,4(sp)
   2c798:	dc000015 	stw	r16,0(sp)
   2c79c:	1887c83a 	sub	r3,r3,r2
   2c7a0:	2825883a 	mov	r18,r5
   2c7a4:	3027883a 	mov	r19,r6
   2c7a8:	1800141e 	bne	r3,zero,2c7fc <__mdiff+0x84>
   2c7ac:	1085883a 	add	r2,r2,r2
   2c7b0:	1085883a 	add	r2,r2,r2
   2c7b4:	2a000504 	addi	r8,r5,20
   2c7b8:	34000504 	addi	r16,r6,20
   2c7bc:	4087883a 	add	r3,r8,r2
   2c7c0:	8085883a 	add	r2,r16,r2
   2c7c4:	00000106 	br	2c7cc <__mdiff+0x54>
   2c7c8:	40c0592e 	bgeu	r8,r3,2c930 <__mdiff+0x1b8>
   2c7cc:	18ffff04 	addi	r3,r3,-4
   2c7d0:	10bfff04 	addi	r2,r2,-4
   2c7d4:	19c00017 	ldw	r7,0(r3)
   2c7d8:	11400017 	ldw	r5,0(r2)
   2c7dc:	397ffa26 	beq	r7,r5,2c7c8 <__alt_data_end+0xfffec7c8>
   2c7e0:	3940592e 	bgeu	r7,r5,2c948 <__mdiff+0x1d0>
   2c7e4:	9005883a 	mov	r2,r18
   2c7e8:	4023883a 	mov	r17,r8
   2c7ec:	9825883a 	mov	r18,r19
   2c7f0:	05000044 	movi	r20,1
   2c7f4:	1027883a 	mov	r19,r2
   2c7f8:	00000406 	br	2c80c <__mdiff+0x94>
   2c7fc:	18005616 	blt	r3,zero,2c958 <__mdiff+0x1e0>
   2c800:	34400504 	addi	r17,r6,20
   2c804:	2c000504 	addi	r16,r5,20
   2c808:	0029883a 	mov	r20,zero
   2c80c:	91400117 	ldw	r5,4(r18)
   2c810:	002be500 	call	2be50 <_Balloc>
   2c814:	92400417 	ldw	r9,16(r18)
   2c818:	9b000417 	ldw	r12,16(r19)
   2c81c:	12c00504 	addi	r11,r2,20
   2c820:	4a51883a 	add	r8,r9,r9
   2c824:	6319883a 	add	r12,r12,r12
   2c828:	4211883a 	add	r8,r8,r8
   2c82c:	6319883a 	add	r12,r12,r12
   2c830:	15000315 	stw	r20,12(r2)
   2c834:	8211883a 	add	r8,r16,r8
   2c838:	8b19883a 	add	r12,r17,r12
   2c83c:	0007883a 	mov	r3,zero
   2c840:	81400017 	ldw	r5,0(r16)
   2c844:	89c00017 	ldw	r7,0(r17)
   2c848:	59800104 	addi	r6,r11,4
   2c84c:	293fffcc 	andi	r4,r5,65535
   2c850:	20c7883a 	add	r3,r4,r3
   2c854:	393fffcc 	andi	r4,r7,65535
   2c858:	1909c83a 	sub	r4,r3,r4
   2c85c:	280ad43a 	srli	r5,r5,16
   2c860:	380ed43a 	srli	r7,r7,16
   2c864:	2007d43a 	srai	r3,r4,16
   2c868:	213fffcc 	andi	r4,r4,65535
   2c86c:	29cbc83a 	sub	r5,r5,r7
   2c870:	28c7883a 	add	r3,r5,r3
   2c874:	180a943a 	slli	r5,r3,16
   2c878:	8c400104 	addi	r17,r17,4
   2c87c:	84000104 	addi	r16,r16,4
   2c880:	2908b03a 	or	r4,r5,r4
   2c884:	59000015 	stw	r4,0(r11)
   2c888:	1807d43a 	srai	r3,r3,16
   2c88c:	3015883a 	mov	r10,r6
   2c890:	3017883a 	mov	r11,r6
   2c894:	8b3fea36 	bltu	r17,r12,2c840 <__alt_data_end+0xfffec840>
   2c898:	8200162e 	bgeu	r16,r8,2c8f4 <__mdiff+0x17c>
   2c89c:	8017883a 	mov	r11,r16
   2c8a0:	59400017 	ldw	r5,0(r11)
   2c8a4:	31800104 	addi	r6,r6,4
   2c8a8:	5ac00104 	addi	r11,r11,4
   2c8ac:	293fffcc 	andi	r4,r5,65535
   2c8b0:	20c7883a 	add	r3,r4,r3
   2c8b4:	280ed43a 	srli	r7,r5,16
   2c8b8:	180bd43a 	srai	r5,r3,16
   2c8bc:	193fffcc 	andi	r4,r3,65535
   2c8c0:	3947883a 	add	r3,r7,r5
   2c8c4:	180a943a 	slli	r5,r3,16
   2c8c8:	1807d43a 	srai	r3,r3,16
   2c8cc:	2908b03a 	or	r4,r5,r4
   2c8d0:	313fff15 	stw	r4,-4(r6)
   2c8d4:	5a3ff236 	bltu	r11,r8,2c8a0 <__alt_data_end+0xfffec8a0>
   2c8d8:	0406303a 	nor	r3,zero,r16
   2c8dc:	1a07883a 	add	r3,r3,r8
   2c8e0:	1806d0ba 	srli	r3,r3,2
   2c8e4:	18c00044 	addi	r3,r3,1
   2c8e8:	18c7883a 	add	r3,r3,r3
   2c8ec:	18c7883a 	add	r3,r3,r3
   2c8f0:	50d5883a 	add	r10,r10,r3
   2c8f4:	50ffff04 	addi	r3,r10,-4
   2c8f8:	2000041e 	bne	r4,zero,2c90c <__mdiff+0x194>
   2c8fc:	18ffff04 	addi	r3,r3,-4
   2c900:	19000017 	ldw	r4,0(r3)
   2c904:	4a7fffc4 	addi	r9,r9,-1
   2c908:	203ffc26 	beq	r4,zero,2c8fc <__alt_data_end+0xfffec8fc>
   2c90c:	12400415 	stw	r9,16(r2)
   2c910:	dfc00517 	ldw	ra,20(sp)
   2c914:	dd000417 	ldw	r20,16(sp)
   2c918:	dcc00317 	ldw	r19,12(sp)
   2c91c:	dc800217 	ldw	r18,8(sp)
   2c920:	dc400117 	ldw	r17,4(sp)
   2c924:	dc000017 	ldw	r16,0(sp)
   2c928:	dec00604 	addi	sp,sp,24
   2c92c:	f800283a 	ret
   2c930:	000b883a 	mov	r5,zero
   2c934:	002be500 	call	2be50 <_Balloc>
   2c938:	00c00044 	movi	r3,1
   2c93c:	10c00415 	stw	r3,16(r2)
   2c940:	10000515 	stw	zero,20(r2)
   2c944:	003ff206 	br	2c910 <__alt_data_end+0xfffec910>
   2c948:	8023883a 	mov	r17,r16
   2c94c:	0029883a 	mov	r20,zero
   2c950:	4021883a 	mov	r16,r8
   2c954:	003fad06 	br	2c80c <__alt_data_end+0xfffec80c>
   2c958:	9005883a 	mov	r2,r18
   2c95c:	94400504 	addi	r17,r18,20
   2c960:	9c000504 	addi	r16,r19,20
   2c964:	9825883a 	mov	r18,r19
   2c968:	05000044 	movi	r20,1
   2c96c:	1027883a 	mov	r19,r2
   2c970:	003fa606 	br	2c80c <__alt_data_end+0xfffec80c>

0002c974 <__ulp>:
   2c974:	295ffc2c 	andhi	r5,r5,32752
   2c978:	00bf3034 	movhi	r2,64704
   2c97c:	2887883a 	add	r3,r5,r2
   2c980:	00c0020e 	bge	zero,r3,2c98c <__ulp+0x18>
   2c984:	0005883a 	mov	r2,zero
   2c988:	f800283a 	ret
   2c98c:	00c7c83a 	sub	r3,zero,r3
   2c990:	1807d53a 	srai	r3,r3,20
   2c994:	008004c4 	movi	r2,19
   2c998:	10c00b0e 	bge	r2,r3,2c9c8 <__ulp+0x54>
   2c99c:	18bffb04 	addi	r2,r3,-20
   2c9a0:	01000784 	movi	r4,30
   2c9a4:	0007883a 	mov	r3,zero
   2c9a8:	20800516 	blt	r4,r2,2c9c0 <__ulp+0x4c>
   2c9ac:	010007c4 	movi	r4,31
   2c9b0:	2089c83a 	sub	r4,r4,r2
   2c9b4:	00800044 	movi	r2,1
   2c9b8:	1104983a 	sll	r2,r2,r4
   2c9bc:	f800283a 	ret
   2c9c0:	00800044 	movi	r2,1
   2c9c4:	f800283a 	ret
   2c9c8:	01400234 	movhi	r5,8
   2c9cc:	28c7d83a 	sra	r3,r5,r3
   2c9d0:	0005883a 	mov	r2,zero
   2c9d4:	f800283a 	ret

0002c9d8 <__b2d>:
   2c9d8:	defffa04 	addi	sp,sp,-24
   2c9dc:	dc000015 	stw	r16,0(sp)
   2c9e0:	24000417 	ldw	r16,16(r4)
   2c9e4:	dc400115 	stw	r17,4(sp)
   2c9e8:	24400504 	addi	r17,r4,20
   2c9ec:	8421883a 	add	r16,r16,r16
   2c9f0:	8421883a 	add	r16,r16,r16
   2c9f4:	8c21883a 	add	r16,r17,r16
   2c9f8:	dc800215 	stw	r18,8(sp)
   2c9fc:	84bfff17 	ldw	r18,-4(r16)
   2ca00:	dd000415 	stw	r20,16(sp)
   2ca04:	dcc00315 	stw	r19,12(sp)
   2ca08:	9009883a 	mov	r4,r18
   2ca0c:	2829883a 	mov	r20,r5
   2ca10:	dfc00515 	stw	ra,20(sp)
   2ca14:	002c1440 	call	2c144 <__hi0bits>
   2ca18:	00c00804 	movi	r3,32
   2ca1c:	1889c83a 	sub	r4,r3,r2
   2ca20:	a1000015 	stw	r4,0(r20)
   2ca24:	01000284 	movi	r4,10
   2ca28:	84ffff04 	addi	r19,r16,-4
   2ca2c:	20801216 	blt	r4,r2,2ca78 <__b2d+0xa0>
   2ca30:	018002c4 	movi	r6,11
   2ca34:	308dc83a 	sub	r6,r6,r2
   2ca38:	9186d83a 	srl	r3,r18,r6
   2ca3c:	18cffc34 	orhi	r3,r3,16368
   2ca40:	8cc0212e 	bgeu	r17,r19,2cac8 <__b2d+0xf0>
   2ca44:	813ffe17 	ldw	r4,-8(r16)
   2ca48:	218cd83a 	srl	r6,r4,r6
   2ca4c:	10800544 	addi	r2,r2,21
   2ca50:	9084983a 	sll	r2,r18,r2
   2ca54:	1184b03a 	or	r2,r2,r6
   2ca58:	dfc00517 	ldw	ra,20(sp)
   2ca5c:	dd000417 	ldw	r20,16(sp)
   2ca60:	dcc00317 	ldw	r19,12(sp)
   2ca64:	dc800217 	ldw	r18,8(sp)
   2ca68:	dc400117 	ldw	r17,4(sp)
   2ca6c:	dc000017 	ldw	r16,0(sp)
   2ca70:	dec00604 	addi	sp,sp,24
   2ca74:	f800283a 	ret
   2ca78:	8cc00f2e 	bgeu	r17,r19,2cab8 <__b2d+0xe0>
   2ca7c:	117ffd44 	addi	r5,r2,-11
   2ca80:	80bffe17 	ldw	r2,-8(r16)
   2ca84:	28000e26 	beq	r5,zero,2cac0 <__b2d+0xe8>
   2ca88:	1949c83a 	sub	r4,r3,r5
   2ca8c:	9164983a 	sll	r18,r18,r5
   2ca90:	1106d83a 	srl	r3,r2,r4
   2ca94:	81bffe04 	addi	r6,r16,-8
   2ca98:	948ffc34 	orhi	r18,r18,16368
   2ca9c:	90c6b03a 	or	r3,r18,r3
   2caa0:	89800e2e 	bgeu	r17,r6,2cadc <__b2d+0x104>
   2caa4:	81bffd17 	ldw	r6,-12(r16)
   2caa8:	1144983a 	sll	r2,r2,r5
   2caac:	310ad83a 	srl	r5,r6,r4
   2cab0:	2884b03a 	or	r2,r5,r2
   2cab4:	003fe806 	br	2ca58 <__alt_data_end+0xfffeca58>
   2cab8:	10bffd44 	addi	r2,r2,-11
   2cabc:	1000041e 	bne	r2,zero,2cad0 <__b2d+0xf8>
   2cac0:	90cffc34 	orhi	r3,r18,16368
   2cac4:	003fe406 	br	2ca58 <__alt_data_end+0xfffeca58>
   2cac8:	000d883a 	mov	r6,zero
   2cacc:	003fdf06 	br	2ca4c <__alt_data_end+0xfffeca4c>
   2cad0:	90a4983a 	sll	r18,r18,r2
   2cad4:	0005883a 	mov	r2,zero
   2cad8:	003ff906 	br	2cac0 <__alt_data_end+0xfffecac0>
   2cadc:	1144983a 	sll	r2,r2,r5
   2cae0:	003fdd06 	br	2ca58 <__alt_data_end+0xfffeca58>

0002cae4 <__d2b>:
   2cae4:	defff804 	addi	sp,sp,-32
   2cae8:	dc000215 	stw	r16,8(sp)
   2caec:	3021883a 	mov	r16,r6
   2caf0:	dc400315 	stw	r17,12(sp)
   2caf4:	8022907a 	slli	r17,r16,1
   2caf8:	dd000615 	stw	r20,24(sp)
   2cafc:	2829883a 	mov	r20,r5
   2cb00:	01400044 	movi	r5,1
   2cb04:	dcc00515 	stw	r19,20(sp)
   2cb08:	dc800415 	stw	r18,16(sp)
   2cb0c:	dfc00715 	stw	ra,28(sp)
   2cb10:	3825883a 	mov	r18,r7
   2cb14:	8822d57a 	srli	r17,r17,21
   2cb18:	002be500 	call	2be50 <_Balloc>
   2cb1c:	1027883a 	mov	r19,r2
   2cb20:	00800434 	movhi	r2,16
   2cb24:	10bfffc4 	addi	r2,r2,-1
   2cb28:	808c703a 	and	r6,r16,r2
   2cb2c:	88000126 	beq	r17,zero,2cb34 <__d2b+0x50>
   2cb30:	31800434 	orhi	r6,r6,16
   2cb34:	d9800015 	stw	r6,0(sp)
   2cb38:	a0002426 	beq	r20,zero,2cbcc <__d2b+0xe8>
   2cb3c:	d9000104 	addi	r4,sp,4
   2cb40:	dd000115 	stw	r20,4(sp)
   2cb44:	002c1ac0 	call	2c1ac <__lo0bits>
   2cb48:	d8c00017 	ldw	r3,0(sp)
   2cb4c:	10002f1e 	bne	r2,zero,2cc0c <__d2b+0x128>
   2cb50:	d9000117 	ldw	r4,4(sp)
   2cb54:	99000515 	stw	r4,20(r19)
   2cb58:	1821003a 	cmpeq	r16,r3,zero
   2cb5c:	01000084 	movi	r4,2
   2cb60:	2421c83a 	sub	r16,r4,r16
   2cb64:	98c00615 	stw	r3,24(r19)
   2cb68:	9c000415 	stw	r16,16(r19)
   2cb6c:	88001f1e 	bne	r17,zero,2cbec <__d2b+0x108>
   2cb70:	10bef384 	addi	r2,r2,-1074
   2cb74:	90800015 	stw	r2,0(r18)
   2cb78:	00900034 	movhi	r2,16384
   2cb7c:	10bfffc4 	addi	r2,r2,-1
   2cb80:	8085883a 	add	r2,r16,r2
   2cb84:	1085883a 	add	r2,r2,r2
   2cb88:	1085883a 	add	r2,r2,r2
   2cb8c:	9885883a 	add	r2,r19,r2
   2cb90:	11000517 	ldw	r4,20(r2)
   2cb94:	8020917a 	slli	r16,r16,5
   2cb98:	002c1440 	call	2c144 <__hi0bits>
   2cb9c:	d8c00817 	ldw	r3,32(sp)
   2cba0:	8085c83a 	sub	r2,r16,r2
   2cba4:	18800015 	stw	r2,0(r3)
   2cba8:	9805883a 	mov	r2,r19
   2cbac:	dfc00717 	ldw	ra,28(sp)
   2cbb0:	dd000617 	ldw	r20,24(sp)
   2cbb4:	dcc00517 	ldw	r19,20(sp)
   2cbb8:	dc800417 	ldw	r18,16(sp)
   2cbbc:	dc400317 	ldw	r17,12(sp)
   2cbc0:	dc000217 	ldw	r16,8(sp)
   2cbc4:	dec00804 	addi	sp,sp,32
   2cbc8:	f800283a 	ret
   2cbcc:	d809883a 	mov	r4,sp
   2cbd0:	002c1ac0 	call	2c1ac <__lo0bits>
   2cbd4:	d8c00017 	ldw	r3,0(sp)
   2cbd8:	04000044 	movi	r16,1
   2cbdc:	9c000415 	stw	r16,16(r19)
   2cbe0:	98c00515 	stw	r3,20(r19)
   2cbe4:	10800804 	addi	r2,r2,32
   2cbe8:	883fe126 	beq	r17,zero,2cb70 <__alt_data_end+0xfffecb70>
   2cbec:	00c00d44 	movi	r3,53
   2cbf0:	8c7ef344 	addi	r17,r17,-1075
   2cbf4:	88a3883a 	add	r17,r17,r2
   2cbf8:	1885c83a 	sub	r2,r3,r2
   2cbfc:	d8c00817 	ldw	r3,32(sp)
   2cc00:	94400015 	stw	r17,0(r18)
   2cc04:	18800015 	stw	r2,0(r3)
   2cc08:	003fe706 	br	2cba8 <__alt_data_end+0xfffecba8>
   2cc0c:	01000804 	movi	r4,32
   2cc10:	2089c83a 	sub	r4,r4,r2
   2cc14:	1908983a 	sll	r4,r3,r4
   2cc18:	d9400117 	ldw	r5,4(sp)
   2cc1c:	1886d83a 	srl	r3,r3,r2
   2cc20:	2148b03a 	or	r4,r4,r5
   2cc24:	99000515 	stw	r4,20(r19)
   2cc28:	d8c00015 	stw	r3,0(sp)
   2cc2c:	003fca06 	br	2cb58 <__alt_data_end+0xfffecb58>

0002cc30 <__ratio>:
   2cc30:	defff904 	addi	sp,sp,-28
   2cc34:	dc400315 	stw	r17,12(sp)
   2cc38:	2823883a 	mov	r17,r5
   2cc3c:	d9400104 	addi	r5,sp,4
   2cc40:	dfc00615 	stw	ra,24(sp)
   2cc44:	dcc00515 	stw	r19,20(sp)
   2cc48:	dc800415 	stw	r18,16(sp)
   2cc4c:	2027883a 	mov	r19,r4
   2cc50:	dc000215 	stw	r16,8(sp)
   2cc54:	002c9d80 	call	2c9d8 <__b2d>
   2cc58:	d80b883a 	mov	r5,sp
   2cc5c:	8809883a 	mov	r4,r17
   2cc60:	1025883a 	mov	r18,r2
   2cc64:	1821883a 	mov	r16,r3
   2cc68:	002c9d80 	call	2c9d8 <__b2d>
   2cc6c:	8a000417 	ldw	r8,16(r17)
   2cc70:	99000417 	ldw	r4,16(r19)
   2cc74:	d9400117 	ldw	r5,4(sp)
   2cc78:	2209c83a 	sub	r4,r4,r8
   2cc7c:	2010917a 	slli	r8,r4,5
   2cc80:	d9000017 	ldw	r4,0(sp)
   2cc84:	2909c83a 	sub	r4,r5,r4
   2cc88:	4109883a 	add	r4,r8,r4
   2cc8c:	01000e0e 	bge	zero,r4,2ccc8 <__ratio+0x98>
   2cc90:	2008953a 	slli	r4,r4,20
   2cc94:	2421883a 	add	r16,r4,r16
   2cc98:	100d883a 	mov	r6,r2
   2cc9c:	180f883a 	mov	r7,r3
   2cca0:	9009883a 	mov	r4,r18
   2cca4:	800b883a 	mov	r5,r16
   2cca8:	0031b880 	call	31b88 <__divdf3>
   2ccac:	dfc00617 	ldw	ra,24(sp)
   2ccb0:	dcc00517 	ldw	r19,20(sp)
   2ccb4:	dc800417 	ldw	r18,16(sp)
   2ccb8:	dc400317 	ldw	r17,12(sp)
   2ccbc:	dc000217 	ldw	r16,8(sp)
   2ccc0:	dec00704 	addi	sp,sp,28
   2ccc4:	f800283a 	ret
   2ccc8:	2008953a 	slli	r4,r4,20
   2cccc:	1907c83a 	sub	r3,r3,r4
   2ccd0:	003ff106 	br	2cc98 <__alt_data_end+0xfffecc98>

0002ccd4 <_mprec_log10>:
   2ccd4:	defffe04 	addi	sp,sp,-8
   2ccd8:	dc000015 	stw	r16,0(sp)
   2ccdc:	dfc00115 	stw	ra,4(sp)
   2cce0:	008005c4 	movi	r2,23
   2cce4:	2021883a 	mov	r16,r4
   2cce8:	11000d0e 	bge	r2,r4,2cd20 <_mprec_log10+0x4c>
   2ccec:	0005883a 	mov	r2,zero
   2ccf0:	00cffc34 	movhi	r3,16368
   2ccf4:	843fffc4 	addi	r16,r16,-1
   2ccf8:	000d883a 	mov	r6,zero
   2ccfc:	01d00934 	movhi	r7,16420
   2cd00:	1009883a 	mov	r4,r2
   2cd04:	180b883a 	mov	r5,r3
   2cd08:	00326c80 	call	326c8 <__muldf3>
   2cd0c:	803ff91e 	bne	r16,zero,2ccf4 <__alt_data_end+0xfffeccf4>
   2cd10:	dfc00117 	ldw	ra,4(sp)
   2cd14:	dc000017 	ldw	r16,0(sp)
   2cd18:	dec00204 	addi	sp,sp,8
   2cd1c:	f800283a 	ret
   2cd20:	202090fa 	slli	r16,r4,3
   2cd24:	008000f4 	movhi	r2,3
   2cd28:	10957304 	addi	r2,r2,21964
   2cd2c:	1421883a 	add	r16,r2,r16
   2cd30:	80800017 	ldw	r2,0(r16)
   2cd34:	80c00117 	ldw	r3,4(r16)
   2cd38:	dfc00117 	ldw	ra,4(sp)
   2cd3c:	dc000017 	ldw	r16,0(sp)
   2cd40:	dec00204 	addi	sp,sp,8
   2cd44:	f800283a 	ret

0002cd48 <__copybits>:
   2cd48:	297fffc4 	addi	r5,r5,-1
   2cd4c:	280fd17a 	srai	r7,r5,5
   2cd50:	30c00417 	ldw	r3,16(r6)
   2cd54:	30800504 	addi	r2,r6,20
   2cd58:	39c00044 	addi	r7,r7,1
   2cd5c:	18c7883a 	add	r3,r3,r3
   2cd60:	39cf883a 	add	r7,r7,r7
   2cd64:	18c7883a 	add	r3,r3,r3
   2cd68:	39cf883a 	add	r7,r7,r7
   2cd6c:	10c7883a 	add	r3,r2,r3
   2cd70:	21cf883a 	add	r7,r4,r7
   2cd74:	10c00d2e 	bgeu	r2,r3,2cdac <__copybits+0x64>
   2cd78:	200b883a 	mov	r5,r4
   2cd7c:	12000017 	ldw	r8,0(r2)
   2cd80:	29400104 	addi	r5,r5,4
   2cd84:	10800104 	addi	r2,r2,4
   2cd88:	2a3fff15 	stw	r8,-4(r5)
   2cd8c:	10fffb36 	bltu	r2,r3,2cd7c <__alt_data_end+0xfffecd7c>
   2cd90:	1985c83a 	sub	r2,r3,r6
   2cd94:	10bffac4 	addi	r2,r2,-21
   2cd98:	1004d0ba 	srli	r2,r2,2
   2cd9c:	10800044 	addi	r2,r2,1
   2cda0:	1085883a 	add	r2,r2,r2
   2cda4:	1085883a 	add	r2,r2,r2
   2cda8:	2089883a 	add	r4,r4,r2
   2cdac:	21c0032e 	bgeu	r4,r7,2cdbc <__copybits+0x74>
   2cdb0:	20000015 	stw	zero,0(r4)
   2cdb4:	21000104 	addi	r4,r4,4
   2cdb8:	21fffd36 	bltu	r4,r7,2cdb0 <__alt_data_end+0xfffecdb0>
   2cdbc:	f800283a 	ret

0002cdc0 <__any_on>:
   2cdc0:	20c00417 	ldw	r3,16(r4)
   2cdc4:	2805d17a 	srai	r2,r5,5
   2cdc8:	21000504 	addi	r4,r4,20
   2cdcc:	18800d0e 	bge	r3,r2,2ce04 <__any_on+0x44>
   2cdd0:	18c7883a 	add	r3,r3,r3
   2cdd4:	18c7883a 	add	r3,r3,r3
   2cdd8:	20c7883a 	add	r3,r4,r3
   2cddc:	20c0192e 	bgeu	r4,r3,2ce44 <__any_on+0x84>
   2cde0:	18bfff17 	ldw	r2,-4(r3)
   2cde4:	18ffff04 	addi	r3,r3,-4
   2cde8:	1000041e 	bne	r2,zero,2cdfc <__any_on+0x3c>
   2cdec:	20c0142e 	bgeu	r4,r3,2ce40 <__any_on+0x80>
   2cdf0:	18ffff04 	addi	r3,r3,-4
   2cdf4:	19400017 	ldw	r5,0(r3)
   2cdf8:	283ffc26 	beq	r5,zero,2cdec <__alt_data_end+0xfffecdec>
   2cdfc:	00800044 	movi	r2,1
   2ce00:	f800283a 	ret
   2ce04:	10c00a0e 	bge	r2,r3,2ce30 <__any_on+0x70>
   2ce08:	1085883a 	add	r2,r2,r2
   2ce0c:	1085883a 	add	r2,r2,r2
   2ce10:	294007cc 	andi	r5,r5,31
   2ce14:	2087883a 	add	r3,r4,r2
   2ce18:	283ff026 	beq	r5,zero,2cddc <__alt_data_end+0xfffecddc>
   2ce1c:	19800017 	ldw	r6,0(r3)
   2ce20:	3144d83a 	srl	r2,r6,r5
   2ce24:	114a983a 	sll	r5,r2,r5
   2ce28:	317ff41e 	bne	r6,r5,2cdfc <__alt_data_end+0xfffecdfc>
   2ce2c:	003feb06 	br	2cddc <__alt_data_end+0xfffecddc>
   2ce30:	1085883a 	add	r2,r2,r2
   2ce34:	1085883a 	add	r2,r2,r2
   2ce38:	2087883a 	add	r3,r4,r2
   2ce3c:	003fe706 	br	2cddc <__alt_data_end+0xfffecddc>
   2ce40:	f800283a 	ret
   2ce44:	0005883a 	mov	r2,zero
   2ce48:	f800283a 	ret

0002ce4c <_putc_r>:
   2ce4c:	defffc04 	addi	sp,sp,-16
   2ce50:	dc000215 	stw	r16,8(sp)
   2ce54:	dfc00315 	stw	ra,12(sp)
   2ce58:	2021883a 	mov	r16,r4
   2ce5c:	20000226 	beq	r4,zero,2ce68 <_putc_r+0x1c>
   2ce60:	20800e17 	ldw	r2,56(r4)
   2ce64:	10001b26 	beq	r2,zero,2ced4 <_putc_r+0x88>
   2ce68:	30800217 	ldw	r2,8(r6)
   2ce6c:	10bfffc4 	addi	r2,r2,-1
   2ce70:	30800215 	stw	r2,8(r6)
   2ce74:	10000a16 	blt	r2,zero,2cea0 <_putc_r+0x54>
   2ce78:	30800017 	ldw	r2,0(r6)
   2ce7c:	11400005 	stb	r5,0(r2)
   2ce80:	30800017 	ldw	r2,0(r6)
   2ce84:	10c00044 	addi	r3,r2,1
   2ce88:	30c00015 	stw	r3,0(r6)
   2ce8c:	10800003 	ldbu	r2,0(r2)
   2ce90:	dfc00317 	ldw	ra,12(sp)
   2ce94:	dc000217 	ldw	r16,8(sp)
   2ce98:	dec00404 	addi	sp,sp,16
   2ce9c:	f800283a 	ret
   2cea0:	30c00617 	ldw	r3,24(r6)
   2cea4:	10c00616 	blt	r2,r3,2cec0 <_putc_r+0x74>
   2cea8:	30800017 	ldw	r2,0(r6)
   2ceac:	00c00284 	movi	r3,10
   2ceb0:	11400005 	stb	r5,0(r2)
   2ceb4:	30800017 	ldw	r2,0(r6)
   2ceb8:	11400003 	ldbu	r5,0(r2)
   2cebc:	28fff11e 	bne	r5,r3,2ce84 <__alt_data_end+0xfffece84>
   2cec0:	8009883a 	mov	r4,r16
   2cec4:	dfc00317 	ldw	ra,12(sp)
   2cec8:	dc000217 	ldw	r16,8(sp)
   2cecc:	dec00404 	addi	sp,sp,16
   2ced0:	003011c1 	jmpi	3011c <__swbuf_r>
   2ced4:	d9400015 	stw	r5,0(sp)
   2ced8:	d9800115 	stw	r6,4(sp)
   2cedc:	002adc40 	call	2adc4 <__sinit>
   2cee0:	d9800117 	ldw	r6,4(sp)
   2cee4:	d9400017 	ldw	r5,0(sp)
   2cee8:	003fdf06 	br	2ce68 <__alt_data_end+0xfffece68>

0002ceec <putc>:
   2ceec:	008000f4 	movhi	r2,3
   2cef0:	defffc04 	addi	sp,sp,-16
   2cef4:	109a9604 	addi	r2,r2,27224
   2cef8:	dc000115 	stw	r16,4(sp)
   2cefc:	14000017 	ldw	r16,0(r2)
   2cf00:	dc400215 	stw	r17,8(sp)
   2cf04:	dfc00315 	stw	ra,12(sp)
   2cf08:	2023883a 	mov	r17,r4
   2cf0c:	80000226 	beq	r16,zero,2cf18 <putc+0x2c>
   2cf10:	80800e17 	ldw	r2,56(r16)
   2cf14:	10001a26 	beq	r2,zero,2cf80 <putc+0x94>
   2cf18:	28800217 	ldw	r2,8(r5)
   2cf1c:	10bfffc4 	addi	r2,r2,-1
   2cf20:	28800215 	stw	r2,8(r5)
   2cf24:	10000b16 	blt	r2,zero,2cf54 <putc+0x68>
   2cf28:	28800017 	ldw	r2,0(r5)
   2cf2c:	14400005 	stb	r17,0(r2)
   2cf30:	28800017 	ldw	r2,0(r5)
   2cf34:	10c00044 	addi	r3,r2,1
   2cf38:	28c00015 	stw	r3,0(r5)
   2cf3c:	10800003 	ldbu	r2,0(r2)
   2cf40:	dfc00317 	ldw	ra,12(sp)
   2cf44:	dc400217 	ldw	r17,8(sp)
   2cf48:	dc000117 	ldw	r16,4(sp)
   2cf4c:	dec00404 	addi	sp,sp,16
   2cf50:	f800283a 	ret
   2cf54:	28c00617 	ldw	r3,24(r5)
   2cf58:	10c00e16 	blt	r2,r3,2cf94 <putc+0xa8>
   2cf5c:	28800017 	ldw	r2,0(r5)
   2cf60:	01000284 	movi	r4,10
   2cf64:	14400005 	stb	r17,0(r2)
   2cf68:	28800017 	ldw	r2,0(r5)
   2cf6c:	10c00003 	ldbu	r3,0(r2)
   2cf70:	193ff01e 	bne	r3,r4,2cf34 <__alt_data_end+0xfffecf34>
   2cf74:	280d883a 	mov	r6,r5
   2cf78:	180b883a 	mov	r5,r3
   2cf7c:	00000706 	br	2cf9c <putc+0xb0>
   2cf80:	8009883a 	mov	r4,r16
   2cf84:	d9400015 	stw	r5,0(sp)
   2cf88:	002adc40 	call	2adc4 <__sinit>
   2cf8c:	d9400017 	ldw	r5,0(sp)
   2cf90:	003fe106 	br	2cf18 <__alt_data_end+0xfffecf18>
   2cf94:	280d883a 	mov	r6,r5
   2cf98:	880b883a 	mov	r5,r17
   2cf9c:	8009883a 	mov	r4,r16
   2cfa0:	dfc00317 	ldw	ra,12(sp)
   2cfa4:	dc400217 	ldw	r17,8(sp)
   2cfa8:	dc000117 	ldw	r16,4(sp)
   2cfac:	dec00404 	addi	sp,sp,16
   2cfb0:	003011c1 	jmpi	3011c <__swbuf_r>

0002cfb4 <_read_r>:
   2cfb4:	defffd04 	addi	sp,sp,-12
   2cfb8:	2805883a 	mov	r2,r5
   2cfbc:	dc000015 	stw	r16,0(sp)
   2cfc0:	040000f4 	movhi	r16,3
   2cfc4:	dc400115 	stw	r17,4(sp)
   2cfc8:	300b883a 	mov	r5,r6
   2cfcc:	841f5204 	addi	r16,r16,32072
   2cfd0:	2023883a 	mov	r17,r4
   2cfd4:	380d883a 	mov	r6,r7
   2cfd8:	1009883a 	mov	r4,r2
   2cfdc:	dfc00215 	stw	ra,8(sp)
   2cfe0:	80000015 	stw	zero,0(r16)
   2cfe4:	0033f700 	call	33f70 <read>
   2cfe8:	00ffffc4 	movi	r3,-1
   2cfec:	10c00526 	beq	r2,r3,2d004 <_read_r+0x50>
   2cff0:	dfc00217 	ldw	ra,8(sp)
   2cff4:	dc400117 	ldw	r17,4(sp)
   2cff8:	dc000017 	ldw	r16,0(sp)
   2cffc:	dec00304 	addi	sp,sp,12
   2d000:	f800283a 	ret
   2d004:	80c00017 	ldw	r3,0(r16)
   2d008:	183ff926 	beq	r3,zero,2cff0 <__alt_data_end+0xfffecff0>
   2d00c:	88c00015 	stw	r3,0(r17)
   2d010:	003ff706 	br	2cff0 <__alt_data_end+0xfffecff0>

0002d014 <_realloc_r>:
   2d014:	defff604 	addi	sp,sp,-40
   2d018:	dc800215 	stw	r18,8(sp)
   2d01c:	dfc00915 	stw	ra,36(sp)
   2d020:	df000815 	stw	fp,32(sp)
   2d024:	ddc00715 	stw	r23,28(sp)
   2d028:	dd800615 	stw	r22,24(sp)
   2d02c:	dd400515 	stw	r21,20(sp)
   2d030:	dd000415 	stw	r20,16(sp)
   2d034:	dcc00315 	stw	r19,12(sp)
   2d038:	dc400115 	stw	r17,4(sp)
   2d03c:	dc000015 	stw	r16,0(sp)
   2d040:	3025883a 	mov	r18,r6
   2d044:	2800b726 	beq	r5,zero,2d324 <_realloc_r+0x310>
   2d048:	282b883a 	mov	r21,r5
   2d04c:	2029883a 	mov	r20,r4
   2d050:	0033db80 	call	33db8 <__malloc_lock>
   2d054:	a8bfff17 	ldw	r2,-4(r21)
   2d058:	043fff04 	movi	r16,-4
   2d05c:	90c002c4 	addi	r3,r18,11
   2d060:	01000584 	movi	r4,22
   2d064:	acfffe04 	addi	r19,r21,-8
   2d068:	1420703a 	and	r16,r2,r16
   2d06c:	20c0332e 	bgeu	r4,r3,2d13c <_realloc_r+0x128>
   2d070:	047ffe04 	movi	r17,-8
   2d074:	1c62703a 	and	r17,r3,r17
   2d078:	8807883a 	mov	r3,r17
   2d07c:	88005816 	blt	r17,zero,2d1e0 <_realloc_r+0x1cc>
   2d080:	8c805736 	bltu	r17,r18,2d1e0 <_realloc_r+0x1cc>
   2d084:	80c0300e 	bge	r16,r3,2d148 <_realloc_r+0x134>
   2d088:	070000f4 	movhi	fp,3
   2d08c:	e718f204 	addi	fp,fp,25544
   2d090:	e1c00217 	ldw	r7,8(fp)
   2d094:	9c09883a 	add	r4,r19,r16
   2d098:	22000117 	ldw	r8,4(r4)
   2d09c:	21c06326 	beq	r4,r7,2d22c <_realloc_r+0x218>
   2d0a0:	017fff84 	movi	r5,-2
   2d0a4:	414a703a 	and	r5,r8,r5
   2d0a8:	214b883a 	add	r5,r4,r5
   2d0ac:	29800117 	ldw	r6,4(r5)
   2d0b0:	3180004c 	andi	r6,r6,1
   2d0b4:	30003f26 	beq	r6,zero,2d1b4 <_realloc_r+0x1a0>
   2d0b8:	1080004c 	andi	r2,r2,1
   2d0bc:	10008326 	beq	r2,zero,2d2cc <_realloc_r+0x2b8>
   2d0c0:	900b883a 	mov	r5,r18
   2d0c4:	a009883a 	mov	r4,r20
   2d0c8:	00237440 	call	23744 <_malloc_r>
   2d0cc:	1025883a 	mov	r18,r2
   2d0d0:	10011e26 	beq	r2,zero,2d54c <_realloc_r+0x538>
   2d0d4:	a93fff17 	ldw	r4,-4(r21)
   2d0d8:	10fffe04 	addi	r3,r2,-8
   2d0dc:	00bfff84 	movi	r2,-2
   2d0e0:	2084703a 	and	r2,r4,r2
   2d0e4:	9885883a 	add	r2,r19,r2
   2d0e8:	1880ee26 	beq	r3,r2,2d4a4 <_realloc_r+0x490>
   2d0ec:	81bfff04 	addi	r6,r16,-4
   2d0f0:	00800904 	movi	r2,36
   2d0f4:	1180b836 	bltu	r2,r6,2d3d8 <_realloc_r+0x3c4>
   2d0f8:	00c004c4 	movi	r3,19
   2d0fc:	19809636 	bltu	r3,r6,2d358 <_realloc_r+0x344>
   2d100:	9005883a 	mov	r2,r18
   2d104:	a807883a 	mov	r3,r21
   2d108:	19000017 	ldw	r4,0(r3)
   2d10c:	11000015 	stw	r4,0(r2)
   2d110:	19000117 	ldw	r4,4(r3)
   2d114:	11000115 	stw	r4,4(r2)
   2d118:	18c00217 	ldw	r3,8(r3)
   2d11c:	10c00215 	stw	r3,8(r2)
   2d120:	a80b883a 	mov	r5,r21
   2d124:	a009883a 	mov	r4,r20
   2d128:	002afe40 	call	2afe4 <_free_r>
   2d12c:	a009883a 	mov	r4,r20
   2d130:	0033dbc0 	call	33dbc <__malloc_unlock>
   2d134:	9005883a 	mov	r2,r18
   2d138:	00001206 	br	2d184 <_realloc_r+0x170>
   2d13c:	00c00404 	movi	r3,16
   2d140:	1823883a 	mov	r17,r3
   2d144:	003fce06 	br	2d080 <__alt_data_end+0xfffed080>
   2d148:	a825883a 	mov	r18,r21
   2d14c:	8445c83a 	sub	r2,r16,r17
   2d150:	00c003c4 	movi	r3,15
   2d154:	18802636 	bltu	r3,r2,2d1f0 <_realloc_r+0x1dc>
   2d158:	99800117 	ldw	r6,4(r19)
   2d15c:	9c07883a 	add	r3,r19,r16
   2d160:	3180004c 	andi	r6,r6,1
   2d164:	3420b03a 	or	r16,r6,r16
   2d168:	9c000115 	stw	r16,4(r19)
   2d16c:	18800117 	ldw	r2,4(r3)
   2d170:	10800054 	ori	r2,r2,1
   2d174:	18800115 	stw	r2,4(r3)
   2d178:	a009883a 	mov	r4,r20
   2d17c:	0033dbc0 	call	33dbc <__malloc_unlock>
   2d180:	9005883a 	mov	r2,r18
   2d184:	dfc00917 	ldw	ra,36(sp)
   2d188:	df000817 	ldw	fp,32(sp)
   2d18c:	ddc00717 	ldw	r23,28(sp)
   2d190:	dd800617 	ldw	r22,24(sp)
   2d194:	dd400517 	ldw	r21,20(sp)
   2d198:	dd000417 	ldw	r20,16(sp)
   2d19c:	dcc00317 	ldw	r19,12(sp)
   2d1a0:	dc800217 	ldw	r18,8(sp)
   2d1a4:	dc400117 	ldw	r17,4(sp)
   2d1a8:	dc000017 	ldw	r16,0(sp)
   2d1ac:	dec00a04 	addi	sp,sp,40
   2d1b0:	f800283a 	ret
   2d1b4:	017fff04 	movi	r5,-4
   2d1b8:	414a703a 	and	r5,r8,r5
   2d1bc:	814d883a 	add	r6,r16,r5
   2d1c0:	30c01f16 	blt	r6,r3,2d240 <_realloc_r+0x22c>
   2d1c4:	20800317 	ldw	r2,12(r4)
   2d1c8:	20c00217 	ldw	r3,8(r4)
   2d1cc:	a825883a 	mov	r18,r21
   2d1d0:	3021883a 	mov	r16,r6
   2d1d4:	18800315 	stw	r2,12(r3)
   2d1d8:	10c00215 	stw	r3,8(r2)
   2d1dc:	003fdb06 	br	2d14c <__alt_data_end+0xfffed14c>
   2d1e0:	00800304 	movi	r2,12
   2d1e4:	a0800015 	stw	r2,0(r20)
   2d1e8:	0005883a 	mov	r2,zero
   2d1ec:	003fe506 	br	2d184 <__alt_data_end+0xfffed184>
   2d1f0:	98c00117 	ldw	r3,4(r19)
   2d1f4:	9c4b883a 	add	r5,r19,r17
   2d1f8:	11000054 	ori	r4,r2,1
   2d1fc:	18c0004c 	andi	r3,r3,1
   2d200:	1c62b03a 	or	r17,r3,r17
   2d204:	9c400115 	stw	r17,4(r19)
   2d208:	29000115 	stw	r4,4(r5)
   2d20c:	2885883a 	add	r2,r5,r2
   2d210:	10c00117 	ldw	r3,4(r2)
   2d214:	29400204 	addi	r5,r5,8
   2d218:	a009883a 	mov	r4,r20
   2d21c:	18c00054 	ori	r3,r3,1
   2d220:	10c00115 	stw	r3,4(r2)
   2d224:	002afe40 	call	2afe4 <_free_r>
   2d228:	003fd306 	br	2d178 <__alt_data_end+0xfffed178>
   2d22c:	017fff04 	movi	r5,-4
   2d230:	414a703a 	and	r5,r8,r5
   2d234:	89800404 	addi	r6,r17,16
   2d238:	8151883a 	add	r8,r16,r5
   2d23c:	4180590e 	bge	r8,r6,2d3a4 <_realloc_r+0x390>
   2d240:	1080004c 	andi	r2,r2,1
   2d244:	103f9e1e 	bne	r2,zero,2d0c0 <__alt_data_end+0xfffed0c0>
   2d248:	adbffe17 	ldw	r22,-8(r21)
   2d24c:	00bfff04 	movi	r2,-4
   2d250:	9dadc83a 	sub	r22,r19,r22
   2d254:	b1800117 	ldw	r6,4(r22)
   2d258:	3084703a 	and	r2,r6,r2
   2d25c:	20002026 	beq	r4,zero,2d2e0 <_realloc_r+0x2cc>
   2d260:	80af883a 	add	r23,r16,r2
   2d264:	b96f883a 	add	r23,r23,r5
   2d268:	21c05f26 	beq	r4,r7,2d3e8 <_realloc_r+0x3d4>
   2d26c:	b8c01c16 	blt	r23,r3,2d2e0 <_realloc_r+0x2cc>
   2d270:	20800317 	ldw	r2,12(r4)
   2d274:	20c00217 	ldw	r3,8(r4)
   2d278:	81bfff04 	addi	r6,r16,-4
   2d27c:	01000904 	movi	r4,36
   2d280:	18800315 	stw	r2,12(r3)
   2d284:	10c00215 	stw	r3,8(r2)
   2d288:	b0c00217 	ldw	r3,8(r22)
   2d28c:	b0800317 	ldw	r2,12(r22)
   2d290:	b4800204 	addi	r18,r22,8
   2d294:	18800315 	stw	r2,12(r3)
   2d298:	10c00215 	stw	r3,8(r2)
   2d29c:	21801b36 	bltu	r4,r6,2d30c <_realloc_r+0x2f8>
   2d2a0:	008004c4 	movi	r2,19
   2d2a4:	1180352e 	bgeu	r2,r6,2d37c <_realloc_r+0x368>
   2d2a8:	a8800017 	ldw	r2,0(r21)
   2d2ac:	b0800215 	stw	r2,8(r22)
   2d2b0:	a8800117 	ldw	r2,4(r21)
   2d2b4:	b0800315 	stw	r2,12(r22)
   2d2b8:	008006c4 	movi	r2,27
   2d2bc:	11807f36 	bltu	r2,r6,2d4bc <_realloc_r+0x4a8>
   2d2c0:	b0800404 	addi	r2,r22,16
   2d2c4:	ad400204 	addi	r21,r21,8
   2d2c8:	00002d06 	br	2d380 <_realloc_r+0x36c>
   2d2cc:	adbffe17 	ldw	r22,-8(r21)
   2d2d0:	00bfff04 	movi	r2,-4
   2d2d4:	9dadc83a 	sub	r22,r19,r22
   2d2d8:	b1000117 	ldw	r4,4(r22)
   2d2dc:	2084703a 	and	r2,r4,r2
   2d2e0:	b03f7726 	beq	r22,zero,2d0c0 <__alt_data_end+0xfffed0c0>
   2d2e4:	80af883a 	add	r23,r16,r2
   2d2e8:	b8ff7516 	blt	r23,r3,2d0c0 <__alt_data_end+0xfffed0c0>
   2d2ec:	b0800317 	ldw	r2,12(r22)
   2d2f0:	b0c00217 	ldw	r3,8(r22)
   2d2f4:	81bfff04 	addi	r6,r16,-4
   2d2f8:	01000904 	movi	r4,36
   2d2fc:	18800315 	stw	r2,12(r3)
   2d300:	10c00215 	stw	r3,8(r2)
   2d304:	b4800204 	addi	r18,r22,8
   2d308:	21bfe52e 	bgeu	r4,r6,2d2a0 <__alt_data_end+0xfffed2a0>
   2d30c:	a80b883a 	mov	r5,r21
   2d310:	9009883a 	mov	r4,r18
   2d314:	002bcf40 	call	2bcf4 <memmove>
   2d318:	b821883a 	mov	r16,r23
   2d31c:	b027883a 	mov	r19,r22
   2d320:	003f8a06 	br	2d14c <__alt_data_end+0xfffed14c>
   2d324:	300b883a 	mov	r5,r6
   2d328:	dfc00917 	ldw	ra,36(sp)
   2d32c:	df000817 	ldw	fp,32(sp)
   2d330:	ddc00717 	ldw	r23,28(sp)
   2d334:	dd800617 	ldw	r22,24(sp)
   2d338:	dd400517 	ldw	r21,20(sp)
   2d33c:	dd000417 	ldw	r20,16(sp)
   2d340:	dcc00317 	ldw	r19,12(sp)
   2d344:	dc800217 	ldw	r18,8(sp)
   2d348:	dc400117 	ldw	r17,4(sp)
   2d34c:	dc000017 	ldw	r16,0(sp)
   2d350:	dec00a04 	addi	sp,sp,40
   2d354:	00237441 	jmpi	23744 <_malloc_r>
   2d358:	a8c00017 	ldw	r3,0(r21)
   2d35c:	90c00015 	stw	r3,0(r18)
   2d360:	a8c00117 	ldw	r3,4(r21)
   2d364:	90c00115 	stw	r3,4(r18)
   2d368:	00c006c4 	movi	r3,27
   2d36c:	19804536 	bltu	r3,r6,2d484 <_realloc_r+0x470>
   2d370:	90800204 	addi	r2,r18,8
   2d374:	a8c00204 	addi	r3,r21,8
   2d378:	003f6306 	br	2d108 <__alt_data_end+0xfffed108>
   2d37c:	9005883a 	mov	r2,r18
   2d380:	a8c00017 	ldw	r3,0(r21)
   2d384:	b821883a 	mov	r16,r23
   2d388:	b027883a 	mov	r19,r22
   2d38c:	10c00015 	stw	r3,0(r2)
   2d390:	a8c00117 	ldw	r3,4(r21)
   2d394:	10c00115 	stw	r3,4(r2)
   2d398:	a8c00217 	ldw	r3,8(r21)
   2d39c:	10c00215 	stw	r3,8(r2)
   2d3a0:	003f6a06 	br	2d14c <__alt_data_end+0xfffed14c>
   2d3a4:	9c67883a 	add	r19,r19,r17
   2d3a8:	4445c83a 	sub	r2,r8,r17
   2d3ac:	e4c00215 	stw	r19,8(fp)
   2d3b0:	10800054 	ori	r2,r2,1
   2d3b4:	98800115 	stw	r2,4(r19)
   2d3b8:	a8bfff17 	ldw	r2,-4(r21)
   2d3bc:	a009883a 	mov	r4,r20
   2d3c0:	1080004c 	andi	r2,r2,1
   2d3c4:	1462b03a 	or	r17,r2,r17
   2d3c8:	ac7fff15 	stw	r17,-4(r21)
   2d3cc:	0033dbc0 	call	33dbc <__malloc_unlock>
   2d3d0:	a805883a 	mov	r2,r21
   2d3d4:	003f6b06 	br	2d184 <__alt_data_end+0xfffed184>
   2d3d8:	a80b883a 	mov	r5,r21
   2d3dc:	9009883a 	mov	r4,r18
   2d3e0:	002bcf40 	call	2bcf4 <memmove>
   2d3e4:	003f4e06 	br	2d120 <__alt_data_end+0xfffed120>
   2d3e8:	89000404 	addi	r4,r17,16
   2d3ec:	b93fbc16 	blt	r23,r4,2d2e0 <__alt_data_end+0xfffed2e0>
   2d3f0:	b0800317 	ldw	r2,12(r22)
   2d3f4:	b0c00217 	ldw	r3,8(r22)
   2d3f8:	81bfff04 	addi	r6,r16,-4
   2d3fc:	01000904 	movi	r4,36
   2d400:	18800315 	stw	r2,12(r3)
   2d404:	10c00215 	stw	r3,8(r2)
   2d408:	b4800204 	addi	r18,r22,8
   2d40c:	21804336 	bltu	r4,r6,2d51c <_realloc_r+0x508>
   2d410:	008004c4 	movi	r2,19
   2d414:	11803f2e 	bgeu	r2,r6,2d514 <_realloc_r+0x500>
   2d418:	a8800017 	ldw	r2,0(r21)
   2d41c:	b0800215 	stw	r2,8(r22)
   2d420:	a8800117 	ldw	r2,4(r21)
   2d424:	b0800315 	stw	r2,12(r22)
   2d428:	008006c4 	movi	r2,27
   2d42c:	11803f36 	bltu	r2,r6,2d52c <_realloc_r+0x518>
   2d430:	b0800404 	addi	r2,r22,16
   2d434:	ad400204 	addi	r21,r21,8
   2d438:	a8c00017 	ldw	r3,0(r21)
   2d43c:	10c00015 	stw	r3,0(r2)
   2d440:	a8c00117 	ldw	r3,4(r21)
   2d444:	10c00115 	stw	r3,4(r2)
   2d448:	a8c00217 	ldw	r3,8(r21)
   2d44c:	10c00215 	stw	r3,8(r2)
   2d450:	b447883a 	add	r3,r22,r17
   2d454:	bc45c83a 	sub	r2,r23,r17
   2d458:	e0c00215 	stw	r3,8(fp)
   2d45c:	10800054 	ori	r2,r2,1
   2d460:	18800115 	stw	r2,4(r3)
   2d464:	b0800117 	ldw	r2,4(r22)
   2d468:	a009883a 	mov	r4,r20
   2d46c:	1080004c 	andi	r2,r2,1
   2d470:	1462b03a 	or	r17,r2,r17
   2d474:	b4400115 	stw	r17,4(r22)
   2d478:	0033dbc0 	call	33dbc <__malloc_unlock>
   2d47c:	9005883a 	mov	r2,r18
   2d480:	003f4006 	br	2d184 <__alt_data_end+0xfffed184>
   2d484:	a8c00217 	ldw	r3,8(r21)
   2d488:	90c00215 	stw	r3,8(r18)
   2d48c:	a8c00317 	ldw	r3,12(r21)
   2d490:	90c00315 	stw	r3,12(r18)
   2d494:	30801126 	beq	r6,r2,2d4dc <_realloc_r+0x4c8>
   2d498:	90800404 	addi	r2,r18,16
   2d49c:	a8c00404 	addi	r3,r21,16
   2d4a0:	003f1906 	br	2d108 <__alt_data_end+0xfffed108>
   2d4a4:	90ffff17 	ldw	r3,-4(r18)
   2d4a8:	00bfff04 	movi	r2,-4
   2d4ac:	a825883a 	mov	r18,r21
   2d4b0:	1884703a 	and	r2,r3,r2
   2d4b4:	80a1883a 	add	r16,r16,r2
   2d4b8:	003f2406 	br	2d14c <__alt_data_end+0xfffed14c>
   2d4bc:	a8800217 	ldw	r2,8(r21)
   2d4c0:	b0800415 	stw	r2,16(r22)
   2d4c4:	a8800317 	ldw	r2,12(r21)
   2d4c8:	b0800515 	stw	r2,20(r22)
   2d4cc:	31000a26 	beq	r6,r4,2d4f8 <_realloc_r+0x4e4>
   2d4d0:	b0800604 	addi	r2,r22,24
   2d4d4:	ad400404 	addi	r21,r21,16
   2d4d8:	003fa906 	br	2d380 <__alt_data_end+0xfffed380>
   2d4dc:	a9000417 	ldw	r4,16(r21)
   2d4e0:	90800604 	addi	r2,r18,24
   2d4e4:	a8c00604 	addi	r3,r21,24
   2d4e8:	91000415 	stw	r4,16(r18)
   2d4ec:	a9000517 	ldw	r4,20(r21)
   2d4f0:	91000515 	stw	r4,20(r18)
   2d4f4:	003f0406 	br	2d108 <__alt_data_end+0xfffed108>
   2d4f8:	a8c00417 	ldw	r3,16(r21)
   2d4fc:	ad400604 	addi	r21,r21,24
   2d500:	b0800804 	addi	r2,r22,32
   2d504:	b0c00615 	stw	r3,24(r22)
   2d508:	a8ffff17 	ldw	r3,-4(r21)
   2d50c:	b0c00715 	stw	r3,28(r22)
   2d510:	003f9b06 	br	2d380 <__alt_data_end+0xfffed380>
   2d514:	9005883a 	mov	r2,r18
   2d518:	003fc706 	br	2d438 <__alt_data_end+0xfffed438>
   2d51c:	a80b883a 	mov	r5,r21
   2d520:	9009883a 	mov	r4,r18
   2d524:	002bcf40 	call	2bcf4 <memmove>
   2d528:	003fc906 	br	2d450 <__alt_data_end+0xfffed450>
   2d52c:	a8800217 	ldw	r2,8(r21)
   2d530:	b0800415 	stw	r2,16(r22)
   2d534:	a8800317 	ldw	r2,12(r21)
   2d538:	b0800515 	stw	r2,20(r22)
   2d53c:	31000726 	beq	r6,r4,2d55c <_realloc_r+0x548>
   2d540:	b0800604 	addi	r2,r22,24
   2d544:	ad400404 	addi	r21,r21,16
   2d548:	003fbb06 	br	2d438 <__alt_data_end+0xfffed438>
   2d54c:	a009883a 	mov	r4,r20
   2d550:	0033dbc0 	call	33dbc <__malloc_unlock>
   2d554:	0005883a 	mov	r2,zero
   2d558:	003f0a06 	br	2d184 <__alt_data_end+0xfffed184>
   2d55c:	a8c00417 	ldw	r3,16(r21)
   2d560:	ad400604 	addi	r21,r21,24
   2d564:	b0800804 	addi	r2,r22,32
   2d568:	b0c00615 	stw	r3,24(r22)
   2d56c:	a8ffff17 	ldw	r3,-4(r21)
   2d570:	b0c00715 	stw	r3,28(r22)
   2d574:	003fb006 	br	2d438 <__alt_data_end+0xfffed438>

0002d578 <__fpclassifyd>:
   2d578:	00a00034 	movhi	r2,32768
   2d57c:	10bfffc4 	addi	r2,r2,-1
   2d580:	2884703a 	and	r2,r5,r2
   2d584:	10000726 	beq	r2,zero,2d5a4 <__fpclassifyd+0x2c>
   2d588:	00fffc34 	movhi	r3,65520
   2d58c:	019ff834 	movhi	r6,32736
   2d590:	28c7883a 	add	r3,r5,r3
   2d594:	31bfffc4 	addi	r6,r6,-1
   2d598:	30c00536 	bltu	r6,r3,2d5b0 <__fpclassifyd+0x38>
   2d59c:	00800104 	movi	r2,4
   2d5a0:	f800283a 	ret
   2d5a4:	2000021e 	bne	r4,zero,2d5b0 <__fpclassifyd+0x38>
   2d5a8:	00800084 	movi	r2,2
   2d5ac:	f800283a 	ret
   2d5b0:	00dffc34 	movhi	r3,32752
   2d5b4:	019ff834 	movhi	r6,32736
   2d5b8:	28cb883a 	add	r5,r5,r3
   2d5bc:	31bfffc4 	addi	r6,r6,-1
   2d5c0:	317ff62e 	bgeu	r6,r5,2d59c <__alt_data_end+0xfffed59c>
   2d5c4:	01400434 	movhi	r5,16
   2d5c8:	297fffc4 	addi	r5,r5,-1
   2d5cc:	28800236 	bltu	r5,r2,2d5d8 <__fpclassifyd+0x60>
   2d5d0:	008000c4 	movi	r2,3
   2d5d4:	f800283a 	ret
   2d5d8:	10c00226 	beq	r2,r3,2d5e4 <__fpclassifyd+0x6c>
   2d5dc:	0005883a 	mov	r2,zero
   2d5e0:	f800283a 	ret
   2d5e4:	2005003a 	cmpeq	r2,r4,zero
   2d5e8:	f800283a 	ret

0002d5ec <strcmp>:
   2d5ec:	2144b03a 	or	r2,r4,r5
   2d5f0:	108000cc 	andi	r2,r2,3
   2d5f4:	1000171e 	bne	r2,zero,2d654 <strcmp+0x68>
   2d5f8:	20800017 	ldw	r2,0(r4)
   2d5fc:	28c00017 	ldw	r3,0(r5)
   2d600:	10c0141e 	bne	r2,r3,2d654 <strcmp+0x68>
   2d604:	027fbff4 	movhi	r9,65279
   2d608:	4a7fbfc4 	addi	r9,r9,-257
   2d60c:	0086303a 	nor	r3,zero,r2
   2d610:	02202074 	movhi	r8,32897
   2d614:	1245883a 	add	r2,r2,r9
   2d618:	42202004 	addi	r8,r8,-32640
   2d61c:	10c4703a 	and	r2,r2,r3
   2d620:	1204703a 	and	r2,r2,r8
   2d624:	10000226 	beq	r2,zero,2d630 <strcmp+0x44>
   2d628:	00002306 	br	2d6b8 <strcmp+0xcc>
   2d62c:	1000221e 	bne	r2,zero,2d6b8 <strcmp+0xcc>
   2d630:	21000104 	addi	r4,r4,4
   2d634:	20c00017 	ldw	r3,0(r4)
   2d638:	29400104 	addi	r5,r5,4
   2d63c:	29800017 	ldw	r6,0(r5)
   2d640:	1a4f883a 	add	r7,r3,r9
   2d644:	00c4303a 	nor	r2,zero,r3
   2d648:	3884703a 	and	r2,r7,r2
   2d64c:	1204703a 	and	r2,r2,r8
   2d650:	19bff626 	beq	r3,r6,2d62c <__alt_data_end+0xfffed62c>
   2d654:	20800003 	ldbu	r2,0(r4)
   2d658:	10c03fcc 	andi	r3,r2,255
   2d65c:	18c0201c 	xori	r3,r3,128
   2d660:	18ffe004 	addi	r3,r3,-128
   2d664:	18000c26 	beq	r3,zero,2d698 <strcmp+0xac>
   2d668:	29800007 	ldb	r6,0(r5)
   2d66c:	19800326 	beq	r3,r6,2d67c <strcmp+0x90>
   2d670:	00001306 	br	2d6c0 <strcmp+0xd4>
   2d674:	29800007 	ldb	r6,0(r5)
   2d678:	11800b1e 	bne	r2,r6,2d6a8 <strcmp+0xbc>
   2d67c:	21000044 	addi	r4,r4,1
   2d680:	20c00003 	ldbu	r3,0(r4)
   2d684:	29400044 	addi	r5,r5,1
   2d688:	18803fcc 	andi	r2,r3,255
   2d68c:	1080201c 	xori	r2,r2,128
   2d690:	10bfe004 	addi	r2,r2,-128
   2d694:	103ff71e 	bne	r2,zero,2d674 <__alt_data_end+0xfffed674>
   2d698:	0007883a 	mov	r3,zero
   2d69c:	28800003 	ldbu	r2,0(r5)
   2d6a0:	1885c83a 	sub	r2,r3,r2
   2d6a4:	f800283a 	ret
   2d6a8:	28800003 	ldbu	r2,0(r5)
   2d6ac:	18c03fcc 	andi	r3,r3,255
   2d6b0:	1885c83a 	sub	r2,r3,r2
   2d6b4:	f800283a 	ret
   2d6b8:	0005883a 	mov	r2,zero
   2d6bc:	f800283a 	ret
   2d6c0:	10c03fcc 	andi	r3,r2,255
   2d6c4:	003ff506 	br	2d69c <__alt_data_end+0xfffed69c>

0002d6c8 <__ssprint_r>:
   2d6c8:	30800217 	ldw	r2,8(r6)
   2d6cc:	defff604 	addi	sp,sp,-40
   2d6d0:	dc800215 	stw	r18,8(sp)
   2d6d4:	dfc00915 	stw	ra,36(sp)
   2d6d8:	df000815 	stw	fp,32(sp)
   2d6dc:	ddc00715 	stw	r23,28(sp)
   2d6e0:	dd800615 	stw	r22,24(sp)
   2d6e4:	dd400515 	stw	r21,20(sp)
   2d6e8:	dd000415 	stw	r20,16(sp)
   2d6ec:	dcc00315 	stw	r19,12(sp)
   2d6f0:	dc400115 	stw	r17,4(sp)
   2d6f4:	dc000015 	stw	r16,0(sp)
   2d6f8:	3025883a 	mov	r18,r6
   2d6fc:	10005826 	beq	r2,zero,2d860 <__ssprint_r+0x198>
   2d700:	2027883a 	mov	r19,r4
   2d704:	35c00017 	ldw	r23,0(r6)
   2d708:	29000017 	ldw	r4,0(r5)
   2d70c:	28800217 	ldw	r2,8(r5)
   2d710:	2823883a 	mov	r17,r5
   2d714:	0039883a 	mov	fp,zero
   2d718:	0021883a 	mov	r16,zero
   2d71c:	80003926 	beq	r16,zero,2d804 <__ssprint_r+0x13c>
   2d720:	102b883a 	mov	r21,r2
   2d724:	102d883a 	mov	r22,r2
   2d728:	80803a36 	bltu	r16,r2,2d814 <__ssprint_r+0x14c>
   2d72c:	88c0030b 	ldhu	r3,12(r17)
   2d730:	1881200c 	andi	r2,r3,1152
   2d734:	10002626 	beq	r2,zero,2d7d0 <__ssprint_r+0x108>
   2d738:	88800517 	ldw	r2,20(r17)
   2d73c:	89400417 	ldw	r5,16(r17)
   2d740:	81800044 	addi	r6,r16,1
   2d744:	108f883a 	add	r7,r2,r2
   2d748:	3885883a 	add	r2,r7,r2
   2d74c:	100ed7fa 	srli	r7,r2,31
   2d750:	216dc83a 	sub	r22,r4,r5
   2d754:	3589883a 	add	r4,r6,r22
   2d758:	3885883a 	add	r2,r7,r2
   2d75c:	102bd07a 	srai	r21,r2,1
   2d760:	a80d883a 	mov	r6,r21
   2d764:	a900022e 	bgeu	r21,r4,2d770 <__ssprint_r+0xa8>
   2d768:	202b883a 	mov	r21,r4
   2d76c:	200d883a 	mov	r6,r4
   2d770:	18c1000c 	andi	r3,r3,1024
   2d774:	18002a26 	beq	r3,zero,2d820 <__ssprint_r+0x158>
   2d778:	300b883a 	mov	r5,r6
   2d77c:	9809883a 	mov	r4,r19
   2d780:	00237440 	call	23744 <_malloc_r>
   2d784:	1029883a 	mov	r20,r2
   2d788:	10002c26 	beq	r2,zero,2d83c <__ssprint_r+0x174>
   2d78c:	89400417 	ldw	r5,16(r17)
   2d790:	b00d883a 	mov	r6,r22
   2d794:	1009883a 	mov	r4,r2
   2d798:	002bbac0 	call	2bbac <memcpy>
   2d79c:	8880030b 	ldhu	r2,12(r17)
   2d7a0:	00fedfc4 	movi	r3,-1153
   2d7a4:	10c4703a 	and	r2,r2,r3
   2d7a8:	10802014 	ori	r2,r2,128
   2d7ac:	8880030d 	sth	r2,12(r17)
   2d7b0:	a589883a 	add	r4,r20,r22
   2d7b4:	adadc83a 	sub	r22,r21,r22
   2d7b8:	8d400515 	stw	r21,20(r17)
   2d7bc:	8d800215 	stw	r22,8(r17)
   2d7c0:	8d000415 	stw	r20,16(r17)
   2d7c4:	89000015 	stw	r4,0(r17)
   2d7c8:	802b883a 	mov	r21,r16
   2d7cc:	802d883a 	mov	r22,r16
   2d7d0:	b00d883a 	mov	r6,r22
   2d7d4:	e00b883a 	mov	r5,fp
   2d7d8:	002bcf40 	call	2bcf4 <memmove>
   2d7dc:	88800217 	ldw	r2,8(r17)
   2d7e0:	89000017 	ldw	r4,0(r17)
   2d7e4:	90c00217 	ldw	r3,8(r18)
   2d7e8:	1545c83a 	sub	r2,r2,r21
   2d7ec:	2589883a 	add	r4,r4,r22
   2d7f0:	88800215 	stw	r2,8(r17)
   2d7f4:	89000015 	stw	r4,0(r17)
   2d7f8:	1c21c83a 	sub	r16,r3,r16
   2d7fc:	94000215 	stw	r16,8(r18)
   2d800:	80001726 	beq	r16,zero,2d860 <__ssprint_r+0x198>
   2d804:	bf000017 	ldw	fp,0(r23)
   2d808:	bc000117 	ldw	r16,4(r23)
   2d80c:	bdc00204 	addi	r23,r23,8
   2d810:	003fc206 	br	2d71c <__alt_data_end+0xfffed71c>
   2d814:	802b883a 	mov	r21,r16
   2d818:	802d883a 	mov	r22,r16
   2d81c:	003fec06 	br	2d7d0 <__alt_data_end+0xfffed7d0>
   2d820:	9809883a 	mov	r4,r19
   2d824:	002d0140 	call	2d014 <_realloc_r>
   2d828:	1029883a 	mov	r20,r2
   2d82c:	103fe01e 	bne	r2,zero,2d7b0 <__alt_data_end+0xfffed7b0>
   2d830:	89400417 	ldw	r5,16(r17)
   2d834:	9809883a 	mov	r4,r19
   2d838:	002afe40 	call	2afe4 <_free_r>
   2d83c:	88c0030b 	ldhu	r3,12(r17)
   2d840:	00800304 	movi	r2,12
   2d844:	98800015 	stw	r2,0(r19)
   2d848:	18c01014 	ori	r3,r3,64
   2d84c:	88c0030d 	sth	r3,12(r17)
   2d850:	00bfffc4 	movi	r2,-1
   2d854:	90000215 	stw	zero,8(r18)
   2d858:	90000115 	stw	zero,4(r18)
   2d85c:	00000206 	br	2d868 <__ssprint_r+0x1a0>
   2d860:	90000115 	stw	zero,4(r18)
   2d864:	0005883a 	mov	r2,zero
   2d868:	dfc00917 	ldw	ra,36(sp)
   2d86c:	df000817 	ldw	fp,32(sp)
   2d870:	ddc00717 	ldw	r23,28(sp)
   2d874:	dd800617 	ldw	r22,24(sp)
   2d878:	dd400517 	ldw	r21,20(sp)
   2d87c:	dd000417 	ldw	r20,16(sp)
   2d880:	dcc00317 	ldw	r19,12(sp)
   2d884:	dc800217 	ldw	r18,8(sp)
   2d888:	dc400117 	ldw	r17,4(sp)
   2d88c:	dc000017 	ldw	r16,0(sp)
   2d890:	dec00a04 	addi	sp,sp,40
   2d894:	f800283a 	ret

0002d898 <___svfiprintf_internal_r>:
   2d898:	2880030b 	ldhu	r2,12(r5)
   2d89c:	deffc804 	addi	sp,sp,-224
   2d8a0:	dcc03115 	stw	r19,196(sp)
   2d8a4:	dfc03715 	stw	ra,220(sp)
   2d8a8:	df003615 	stw	fp,216(sp)
   2d8ac:	ddc03515 	stw	r23,212(sp)
   2d8b0:	dd803415 	stw	r22,208(sp)
   2d8b4:	dd403315 	stw	r21,204(sp)
   2d8b8:	dd003215 	stw	r20,200(sp)
   2d8bc:	dc803015 	stw	r18,192(sp)
   2d8c0:	dc402f15 	stw	r17,188(sp)
   2d8c4:	dc002e15 	stw	r16,184(sp)
   2d8c8:	d9402715 	stw	r5,156(sp)
   2d8cc:	d9002a15 	stw	r4,168(sp)
   2d8d0:	1080200c 	andi	r2,r2,128
   2d8d4:	d9c02315 	stw	r7,140(sp)
   2d8d8:	3027883a 	mov	r19,r6
   2d8dc:	10000226 	beq	r2,zero,2d8e8 <___svfiprintf_internal_r+0x50>
   2d8e0:	28800417 	ldw	r2,16(r5)
   2d8e4:	10041d26 	beq	r2,zero,2e95c <___svfiprintf_internal_r+0x10c4>
   2d8e8:	dac01a04 	addi	r11,sp,104
   2d8ec:	dac01e15 	stw	r11,120(sp)
   2d8f0:	d8801e17 	ldw	r2,120(sp)
   2d8f4:	dac019c4 	addi	r11,sp,103
   2d8f8:	dd402a17 	ldw	r21,168(sp)
   2d8fc:	ddc02717 	ldw	r23,156(sp)
   2d900:	058000f4 	movhi	r22,3
   2d904:	050000f4 	movhi	r20,3
   2d908:	dac01f15 	stw	r11,124(sp)
   2d90c:	12d7c83a 	sub	r11,r2,r11
   2d910:	b595a904 	addi	r22,r22,22180
   2d914:	a515a504 	addi	r20,r20,22164
   2d918:	dec01a15 	stw	sp,104(sp)
   2d91c:	d8001c15 	stw	zero,112(sp)
   2d920:	d8001b15 	stw	zero,108(sp)
   2d924:	d811883a 	mov	r8,sp
   2d928:	d8002915 	stw	zero,164(sp)
   2d92c:	d8002515 	stw	zero,148(sp)
   2d930:	dac02b15 	stw	r11,172(sp)
   2d934:	98800007 	ldb	r2,0(r19)
   2d938:	1002dd26 	beq	r2,zero,2e4b0 <___svfiprintf_internal_r+0xc18>
   2d93c:	00c00944 	movi	r3,37
   2d940:	9823883a 	mov	r17,r19
   2d944:	10c0021e 	bne	r2,r3,2d950 <___svfiprintf_internal_r+0xb8>
   2d948:	00001406 	br	2d99c <___svfiprintf_internal_r+0x104>
   2d94c:	10c00326 	beq	r2,r3,2d95c <___svfiprintf_internal_r+0xc4>
   2d950:	8c400044 	addi	r17,r17,1
   2d954:	88800007 	ldb	r2,0(r17)
   2d958:	103ffc1e 	bne	r2,zero,2d94c <__alt_data_end+0xfffed94c>
   2d95c:	8ce1c83a 	sub	r16,r17,r19
   2d960:	80000e26 	beq	r16,zero,2d99c <___svfiprintf_internal_r+0x104>
   2d964:	d8c01c17 	ldw	r3,112(sp)
   2d968:	d8801b17 	ldw	r2,108(sp)
   2d96c:	44c00015 	stw	r19,0(r8)
   2d970:	1c07883a 	add	r3,r3,r16
   2d974:	10800044 	addi	r2,r2,1
   2d978:	d8c01c15 	stw	r3,112(sp)
   2d97c:	44000115 	stw	r16,4(r8)
   2d980:	d8801b15 	stw	r2,108(sp)
   2d984:	00c001c4 	movi	r3,7
   2d988:	18831e16 	blt	r3,r2,2e604 <___svfiprintf_internal_r+0xd6c>
   2d98c:	42000204 	addi	r8,r8,8
   2d990:	dac02517 	ldw	r11,148(sp)
   2d994:	5c17883a 	add	r11,r11,r16
   2d998:	dac02515 	stw	r11,148(sp)
   2d99c:	88800007 	ldb	r2,0(r17)
   2d9a0:	1002c526 	beq	r2,zero,2e4b8 <___svfiprintf_internal_r+0xc20>
   2d9a4:	88c00047 	ldb	r3,1(r17)
   2d9a8:	8cc00044 	addi	r19,r17,1
   2d9ac:	d8001d85 	stb	zero,118(sp)
   2d9b0:	0009883a 	mov	r4,zero
   2d9b4:	000f883a 	mov	r7,zero
   2d9b8:	043fffc4 	movi	r16,-1
   2d9bc:	d8002415 	stw	zero,144(sp)
   2d9c0:	0025883a 	mov	r18,zero
   2d9c4:	01401604 	movi	r5,88
   2d9c8:	01800244 	movi	r6,9
   2d9cc:	02800a84 	movi	r10,42
   2d9d0:	02401b04 	movi	r9,108
   2d9d4:	9cc00044 	addi	r19,r19,1
   2d9d8:	18bff804 	addi	r2,r3,-32
   2d9dc:	2881dd36 	bltu	r5,r2,2e154 <___svfiprintf_internal_r+0x8bc>
   2d9e0:	100490ba 	slli	r2,r2,2
   2d9e4:	02c000f4 	movhi	r11,3
   2d9e8:	5af67e04 	addi	r11,r11,-9736
   2d9ec:	12c5883a 	add	r2,r2,r11
   2d9f0:	10800017 	ldw	r2,0(r2)
   2d9f4:	1000683a 	jmp	r2
   2d9f8:	0002dbf4 	movhi	zero,2927
   2d9fc:	0002e154 	movui	zero,2949
   2da00:	0002e154 	movui	zero,2949
   2da04:	0002dbe8 	cmpgeui	zero,zero,2927
   2da08:	0002e154 	movui	zero,2949
   2da0c:	0002e154 	movui	zero,2949
   2da10:	0002e154 	movui	zero,2949
   2da14:	0002e154 	movui	zero,2949
   2da18:	0002e154 	movui	zero,2949
   2da1c:	0002e154 	movui	zero,2949
   2da20:	0002db5c 	xori	zero,zero,2925
   2da24:	0002dd38 	rdprs	zero,zero,2932
   2da28:	0002e154 	movui	zero,2949
   2da2c:	0002db88 	cmpgei	zero,zero,2926
   2da30:	0002e188 	cmpgei	zero,zero,2950
   2da34:	0002e154 	movui	zero,2949
   2da38:	0002e17c 	xorhi	zero,zero,2949
   2da3c:	0002e11c 	xori	zero,zero,2948
   2da40:	0002e11c 	xori	zero,zero,2948
   2da44:	0002e11c 	xori	zero,zero,2948
   2da48:	0002e11c 	xori	zero,zero,2948
   2da4c:	0002e11c 	xori	zero,zero,2948
   2da50:	0002e11c 	xori	zero,zero,2948
   2da54:	0002e11c 	xori	zero,zero,2948
   2da58:	0002e11c 	xori	zero,zero,2948
   2da5c:	0002e11c 	xori	zero,zero,2948
   2da60:	0002e154 	movui	zero,2949
   2da64:	0002e154 	movui	zero,2949
   2da68:	0002e154 	movui	zero,2949
   2da6c:	0002e154 	movui	zero,2949
   2da70:	0002e154 	movui	zero,2949
   2da74:	0002e154 	movui	zero,2949
   2da78:	0002e154 	movui	zero,2949
   2da7c:	0002e154 	movui	zero,2949
   2da80:	0002e154 	movui	zero,2949
   2da84:	0002e154 	movui	zero,2949
   2da88:	0002e0b8 	rdprs	zero,zero,2946
   2da8c:	0002e154 	movui	zero,2949
   2da90:	0002e154 	movui	zero,2949
   2da94:	0002e154 	movui	zero,2949
   2da98:	0002e154 	movui	zero,2949
   2da9c:	0002e154 	movui	zero,2949
   2daa0:	0002e154 	movui	zero,2949
   2daa4:	0002e154 	movui	zero,2949
   2daa8:	0002e154 	movui	zero,2949
   2daac:	0002e154 	movui	zero,2949
   2dab0:	0002e154 	movui	zero,2949
   2dab4:	0002e230 	cmpltui	zero,zero,2952
   2dab8:	0002e154 	movui	zero,2949
   2dabc:	0002e154 	movui	zero,2949
   2dac0:	0002e154 	movui	zero,2949
   2dac4:	0002e154 	movui	zero,2949
   2dac8:	0002e154 	movui	zero,2949
   2dacc:	0002e1c8 	cmpgei	zero,zero,2951
   2dad0:	0002e154 	movui	zero,2949
   2dad4:	0002e154 	movui	zero,2949
   2dad8:	0002defc 	xorhi	zero,zero,2939
   2dadc:	0002e154 	movui	zero,2949
   2dae0:	0002e154 	movui	zero,2949
   2dae4:	0002e154 	movui	zero,2949
   2dae8:	0002e154 	movui	zero,2949
   2daec:	0002e154 	movui	zero,2949
   2daf0:	0002e154 	movui	zero,2949
   2daf4:	0002e154 	movui	zero,2949
   2daf8:	0002e154 	movui	zero,2949
   2dafc:	0002e154 	movui	zero,2949
   2db00:	0002e154 	movui	zero,2949
   2db04:	0002ddec 	andhi	zero,zero,2935
   2db08:	0002df98 	cmpnei	zero,zero,2942
   2db0c:	0002e154 	movui	zero,2949
   2db10:	0002e154 	movui	zero,2949
   2db14:	0002e154 	movui	zero,2949
   2db18:	0002df8c 	andi	zero,zero,2942
   2db1c:	0002df98 	cmpnei	zero,zero,2942
   2db20:	0002e154 	movui	zero,2949
   2db24:	0002e154 	movui	zero,2949
   2db28:	0002df7c 	xorhi	zero,zero,2941
   2db2c:	0002e154 	movui	zero,2949
   2db30:	0002df40 	call	2df4 <__alt_mem_onchip_memory2_0-0x1d20c>
   2db34:	0002dd48 	cmpgei	zero,zero,2933
   2db38:	0002db94 	movui	zero,2926
   2db3c:	0002e0ac 	andhi	zero,zero,2946
   2db40:	0002e154 	movui	zero,2949
   2db44:	0002e060 	cmpeqi	zero,zero,2945
   2db48:	0002e154 	movui	zero,2949
   2db4c:	0002dcb8 	rdprs	zero,zero,2930
   2db50:	0002e154 	movui	zero,2949
   2db54:	0002e154 	movui	zero,2949
   2db58:	0002dc14 	movui	zero,2928
   2db5c:	dac02317 	ldw	r11,140(sp)
   2db60:	5ac00017 	ldw	r11,0(r11)
   2db64:	dac02415 	stw	r11,144(sp)
   2db68:	dac02317 	ldw	r11,140(sp)
   2db6c:	58800104 	addi	r2,r11,4
   2db70:	dac02417 	ldw	r11,144(sp)
   2db74:	5802e90e 	bge	r11,zero,2e71c <___svfiprintf_internal_r+0xe84>
   2db78:	dac02417 	ldw	r11,144(sp)
   2db7c:	d8802315 	stw	r2,140(sp)
   2db80:	02d7c83a 	sub	r11,zero,r11
   2db84:	dac02415 	stw	r11,144(sp)
   2db88:	94800114 	ori	r18,r18,4
   2db8c:	98c00007 	ldb	r3,0(r19)
   2db90:	003f9006 	br	2d9d4 <__alt_data_end+0xfffed9d4>
   2db94:	00800c04 	movi	r2,48
   2db98:	dac02317 	ldw	r11,140(sp)
   2db9c:	d8801d05 	stb	r2,116(sp)
   2dba0:	00801e04 	movi	r2,120
   2dba4:	d8801d45 	stb	r2,117(sp)
   2dba8:	d8001d85 	stb	zero,118(sp)
   2dbac:	58c00104 	addi	r3,r11,4
   2dbb0:	5f000017 	ldw	fp,0(r11)
   2dbb4:	0013883a 	mov	r9,zero
   2dbb8:	90800094 	ori	r2,r18,2
   2dbbc:	80032b16 	blt	r16,zero,2e86c <___svfiprintf_internal_r+0xfd4>
   2dbc0:	00bfdfc4 	movi	r2,-129
   2dbc4:	90a4703a 	and	r18,r18,r2
   2dbc8:	d8c02315 	stw	r3,140(sp)
   2dbcc:	94800094 	ori	r18,r18,2
   2dbd0:	e002dc26 	beq	fp,zero,2e744 <___svfiprintf_internal_r+0xeac>
   2dbd4:	010000f4 	movhi	r4,3
   2dbd8:	21153d04 	addi	r4,r4,21748
   2dbdc:	0015883a 	mov	r10,zero
   2dbe0:	d9002915 	stw	r4,164(sp)
   2dbe4:	00002306 	br	2dc74 <___svfiprintf_internal_r+0x3dc>
   2dbe8:	94800054 	ori	r18,r18,1
   2dbec:	98c00007 	ldb	r3,0(r19)
   2dbf0:	003f7806 	br	2d9d4 <__alt_data_end+0xfffed9d4>
   2dbf4:	38803fcc 	andi	r2,r7,255
   2dbf8:	1080201c 	xori	r2,r2,128
   2dbfc:	10bfe004 	addi	r2,r2,-128
   2dc00:	1002f31e 	bne	r2,zero,2e7d0 <___svfiprintf_internal_r+0xf38>
   2dc04:	01000044 	movi	r4,1
   2dc08:	01c00804 	movi	r7,32
   2dc0c:	98c00007 	ldb	r3,0(r19)
   2dc10:	003f7006 	br	2d9d4 <__alt_data_end+0xfffed9d4>
   2dc14:	21003fcc 	andi	r4,r4,255
   2dc18:	2003aa1e 	bne	r4,zero,2eac4 <___svfiprintf_internal_r+0x122c>
   2dc1c:	008000f4 	movhi	r2,3
   2dc20:	10953d04 	addi	r2,r2,21748
   2dc24:	d8802915 	stw	r2,164(sp)
   2dc28:	9080080c 	andi	r2,r18,32
   2dc2c:	1000ba26 	beq	r2,zero,2df18 <___svfiprintf_internal_r+0x680>
   2dc30:	dac02317 	ldw	r11,140(sp)
   2dc34:	5f000017 	ldw	fp,0(r11)
   2dc38:	5a400117 	ldw	r9,4(r11)
   2dc3c:	5ac00204 	addi	r11,r11,8
   2dc40:	dac02315 	stw	r11,140(sp)
   2dc44:	9080004c 	andi	r2,r18,1
   2dc48:	10029026 	beq	r2,zero,2e68c <___svfiprintf_internal_r+0xdf4>
   2dc4c:	e244b03a 	or	r2,fp,r9
   2dc50:	1002d41e 	bne	r2,zero,2e7a4 <___svfiprintf_internal_r+0xf0c>
   2dc54:	d8001d85 	stb	zero,118(sp)
   2dc58:	80030b16 	blt	r16,zero,2e888 <___svfiprintf_internal_r+0xff0>
   2dc5c:	00bfdfc4 	movi	r2,-129
   2dc60:	90a4703a 	and	r18,r18,r2
   2dc64:	0015883a 	mov	r10,zero
   2dc68:	80002426 	beq	r16,zero,2dcfc <___svfiprintf_internal_r+0x464>
   2dc6c:	0039883a 	mov	fp,zero
   2dc70:	0013883a 	mov	r9,zero
   2dc74:	d9002917 	ldw	r4,164(sp)
   2dc78:	dc401a04 	addi	r17,sp,104
   2dc7c:	e08003cc 	andi	r2,fp,15
   2dc80:	4806973a 	slli	r3,r9,28
   2dc84:	2085883a 	add	r2,r4,r2
   2dc88:	e038d13a 	srli	fp,fp,4
   2dc8c:	10800003 	ldbu	r2,0(r2)
   2dc90:	4812d13a 	srli	r9,r9,4
   2dc94:	8c7fffc4 	addi	r17,r17,-1
   2dc98:	1f38b03a 	or	fp,r3,fp
   2dc9c:	88800005 	stb	r2,0(r17)
   2dca0:	e244b03a 	or	r2,fp,r9
   2dca4:	103ff51e 	bne	r2,zero,2dc7c <__alt_data_end+0xfffedc7c>
   2dca8:	dac01e17 	ldw	r11,120(sp)
   2dcac:	5c57c83a 	sub	r11,r11,r17
   2dcb0:	dac02115 	stw	r11,132(sp)
   2dcb4:	00001406 	br	2dd08 <___svfiprintf_internal_r+0x470>
   2dcb8:	21003fcc 	andi	r4,r4,255
   2dcbc:	2003741e 	bne	r4,zero,2ea90 <___svfiprintf_internal_r+0x11f8>
   2dcc0:	9080080c 	andi	r2,r18,32
   2dcc4:	10014526 	beq	r2,zero,2e1dc <___svfiprintf_internal_r+0x944>
   2dcc8:	dac02317 	ldw	r11,140(sp)
   2dccc:	d8001d85 	stb	zero,118(sp)
   2dcd0:	58c00204 	addi	r3,r11,8
   2dcd4:	5f000017 	ldw	fp,0(r11)
   2dcd8:	5a400117 	ldw	r9,4(r11)
   2dcdc:	8002d916 	blt	r16,zero,2e844 <___svfiprintf_internal_r+0xfac>
   2dce0:	013fdfc4 	movi	r4,-129
   2dce4:	e244b03a 	or	r2,fp,r9
   2dce8:	d8c02315 	stw	r3,140(sp)
   2dcec:	9124703a 	and	r18,r18,r4
   2dcf0:	0015883a 	mov	r10,zero
   2dcf4:	1000b91e 	bne	r2,zero,2dfdc <___svfiprintf_internal_r+0x744>
   2dcf8:	8002e61e 	bne	r16,zero,2e894 <___svfiprintf_internal_r+0xffc>
   2dcfc:	0021883a 	mov	r16,zero
   2dd00:	d8002115 	stw	zero,132(sp)
   2dd04:	dc401a04 	addi	r17,sp,104
   2dd08:	d8c02117 	ldw	r3,132(sp)
   2dd0c:	dc002015 	stw	r16,128(sp)
   2dd10:	80c0010e 	bge	r16,r3,2dd18 <___svfiprintf_internal_r+0x480>
   2dd14:	d8c02015 	stw	r3,128(sp)
   2dd18:	52803fcc 	andi	r10,r10,255
   2dd1c:	5280201c 	xori	r10,r10,128
   2dd20:	52bfe004 	addi	r10,r10,-128
   2dd24:	50003c26 	beq	r10,zero,2de18 <___svfiprintf_internal_r+0x580>
   2dd28:	dac02017 	ldw	r11,128(sp)
   2dd2c:	5ac00044 	addi	r11,r11,1
   2dd30:	dac02015 	stw	r11,128(sp)
   2dd34:	00003806 	br	2de18 <___svfiprintf_internal_r+0x580>
   2dd38:	01000044 	movi	r4,1
   2dd3c:	01c00ac4 	movi	r7,43
   2dd40:	98c00007 	ldb	r3,0(r19)
   2dd44:	003f2306 	br	2d9d4 <__alt_data_end+0xfffed9d4>
   2dd48:	21003fcc 	andi	r4,r4,255
   2dd4c:	2003481e 	bne	r4,zero,2ea70 <___svfiprintf_internal_r+0x11d8>
   2dd50:	9080080c 	andi	r2,r18,32
   2dd54:	10013b26 	beq	r2,zero,2e244 <___svfiprintf_internal_r+0x9ac>
   2dd58:	dac02317 	ldw	r11,140(sp)
   2dd5c:	d8001d85 	stb	zero,118(sp)
   2dd60:	58800204 	addi	r2,r11,8
   2dd64:	5f000017 	ldw	fp,0(r11)
   2dd68:	5a400117 	ldw	r9,4(r11)
   2dd6c:	8002a816 	blt	r16,zero,2e810 <___svfiprintf_internal_r+0xf78>
   2dd70:	013fdfc4 	movi	r4,-129
   2dd74:	e246b03a 	or	r3,fp,r9
   2dd78:	d8802315 	stw	r2,140(sp)
   2dd7c:	9124703a 	and	r18,r18,r4
   2dd80:	18013c26 	beq	r3,zero,2e274 <___svfiprintf_internal_r+0x9dc>
   2dd84:	0015883a 	mov	r10,zero
   2dd88:	dc401a04 	addi	r17,sp,104
   2dd8c:	e006d0fa 	srli	r3,fp,3
   2dd90:	4808977a 	slli	r4,r9,29
   2dd94:	4812d0fa 	srli	r9,r9,3
   2dd98:	e70001cc 	andi	fp,fp,7
   2dd9c:	e0800c04 	addi	r2,fp,48
   2dda0:	8c7fffc4 	addi	r17,r17,-1
   2dda4:	20f8b03a 	or	fp,r4,r3
   2dda8:	88800005 	stb	r2,0(r17)
   2ddac:	e246b03a 	or	r3,fp,r9
   2ddb0:	183ff61e 	bne	r3,zero,2dd8c <__alt_data_end+0xfffedd8c>
   2ddb4:	90c0004c 	andi	r3,r18,1
   2ddb8:	1800a526 	beq	r3,zero,2e050 <___svfiprintf_internal_r+0x7b8>
   2ddbc:	10803fcc 	andi	r2,r2,255
   2ddc0:	1080201c 	xori	r2,r2,128
   2ddc4:	10bfe004 	addi	r2,r2,-128
   2ddc8:	00c00c04 	movi	r3,48
   2ddcc:	10ffb626 	beq	r2,r3,2dca8 <__alt_data_end+0xfffedca8>
   2ddd0:	88ffffc5 	stb	r3,-1(r17)
   2ddd4:	d8c01e17 	ldw	r3,120(sp)
   2ddd8:	88bfffc4 	addi	r2,r17,-1
   2dddc:	1023883a 	mov	r17,r2
   2dde0:	1887c83a 	sub	r3,r3,r2
   2dde4:	d8c02115 	stw	r3,132(sp)
   2dde8:	003fc706 	br	2dd08 <__alt_data_end+0xfffedd08>
   2ddec:	dac02317 	ldw	r11,140(sp)
   2ddf0:	00c00044 	movi	r3,1
   2ddf4:	d8c02015 	stw	r3,128(sp)
   2ddf8:	58800017 	ldw	r2,0(r11)
   2ddfc:	5ac00104 	addi	r11,r11,4
   2de00:	d8001d85 	stb	zero,118(sp)
   2de04:	d8801005 	stb	r2,64(sp)
   2de08:	dac02315 	stw	r11,140(sp)
   2de0c:	d8c02115 	stw	r3,132(sp)
   2de10:	dc401004 	addi	r17,sp,64
   2de14:	0021883a 	mov	r16,zero
   2de18:	90c0008c 	andi	r3,r18,2
   2de1c:	d8c02215 	stw	r3,136(sp)
   2de20:	18000326 	beq	r3,zero,2de30 <___svfiprintf_internal_r+0x598>
   2de24:	dac02017 	ldw	r11,128(sp)
   2de28:	5ac00084 	addi	r11,r11,2
   2de2c:	dac02015 	stw	r11,128(sp)
   2de30:	90c0210c 	andi	r3,r18,132
   2de34:	d8c02615 	stw	r3,152(sp)
   2de38:	1801131e 	bne	r3,zero,2e288 <___svfiprintf_internal_r+0x9f0>
   2de3c:	dac02417 	ldw	r11,144(sp)
   2de40:	d8c02017 	ldw	r3,128(sp)
   2de44:	58f9c83a 	sub	fp,r11,r3
   2de48:	07010f0e 	bge	zero,fp,2e288 <___svfiprintf_internal_r+0x9f0>
   2de4c:	02400404 	movi	r9,16
   2de50:	d8c01c17 	ldw	r3,112(sp)
   2de54:	d8801b17 	ldw	r2,108(sp)
   2de58:	4f02d60e 	bge	r9,fp,2e9b4 <___svfiprintf_internal_r+0x111c>
   2de5c:	014000f4 	movhi	r5,3
   2de60:	2955a904 	addi	r5,r5,22180
   2de64:	d9402815 	stw	r5,160(sp)
   2de68:	028001c4 	movi	r10,7
   2de6c:	00000306 	br	2de7c <___svfiprintf_internal_r+0x5e4>
   2de70:	e73ffc04 	addi	fp,fp,-16
   2de74:	42000204 	addi	r8,r8,8
   2de78:	4f00150e 	bge	r9,fp,2ded0 <___svfiprintf_internal_r+0x638>
   2de7c:	18c00404 	addi	r3,r3,16
   2de80:	10800044 	addi	r2,r2,1
   2de84:	45800015 	stw	r22,0(r8)
   2de88:	42400115 	stw	r9,4(r8)
   2de8c:	d8c01c15 	stw	r3,112(sp)
   2de90:	d8801b15 	stw	r2,108(sp)
   2de94:	50bff60e 	bge	r10,r2,2de70 <__alt_data_end+0xfffede70>
   2de98:	d9801a04 	addi	r6,sp,104
   2de9c:	b80b883a 	mov	r5,r23
   2dea0:	a809883a 	mov	r4,r21
   2dea4:	da402c15 	stw	r9,176(sp)
   2dea8:	da802d15 	stw	r10,180(sp)
   2deac:	002d6c80 	call	2d6c8 <__ssprint_r>
   2deb0:	da402c17 	ldw	r9,176(sp)
   2deb4:	da802d17 	ldw	r10,180(sp)
   2deb8:	1001851e 	bne	r2,zero,2e4d0 <___svfiprintf_internal_r+0xc38>
   2debc:	e73ffc04 	addi	fp,fp,-16
   2dec0:	d8c01c17 	ldw	r3,112(sp)
   2dec4:	d8801b17 	ldw	r2,108(sp)
   2dec8:	d811883a 	mov	r8,sp
   2decc:	4f3feb16 	blt	r9,fp,2de7c <__alt_data_end+0xfffede7c>
   2ded0:	dac02817 	ldw	r11,160(sp)
   2ded4:	e0c7883a 	add	r3,fp,r3
   2ded8:	10800044 	addi	r2,r2,1
   2dedc:	42c00015 	stw	r11,0(r8)
   2dee0:	47000115 	stw	fp,4(r8)
   2dee4:	d8c01c15 	stw	r3,112(sp)
   2dee8:	d8801b15 	stw	r2,108(sp)
   2deec:	010001c4 	movi	r4,7
   2def0:	2081ee16 	blt	r4,r2,2e6ac <___svfiprintf_internal_r+0xe14>
   2def4:	42000204 	addi	r8,r8,8
   2def8:	0000e506 	br	2e290 <___svfiprintf_internal_r+0x9f8>
   2defc:	21003fcc 	andi	r4,r4,255
   2df00:	2002dd1e 	bne	r4,zero,2ea78 <___svfiprintf_internal_r+0x11e0>
   2df04:	008000f4 	movhi	r2,3
   2df08:	10953804 	addi	r2,r2,21728
   2df0c:	d8802915 	stw	r2,164(sp)
   2df10:	9080080c 	andi	r2,r18,32
   2df14:	103f461e 	bne	r2,zero,2dc30 <__alt_data_end+0xfffedc30>
   2df18:	9080040c 	andi	r2,r18,16
   2df1c:	10022e1e 	bne	r2,zero,2e7d8 <___svfiprintf_internal_r+0xf40>
   2df20:	9080100c 	andi	r2,r18,64
   2df24:	dac02317 	ldw	r11,140(sp)
   2df28:	10027326 	beq	r2,zero,2e8f8 <___svfiprintf_internal_r+0x1060>
   2df2c:	5f00000b 	ldhu	fp,0(r11)
   2df30:	5ac00104 	addi	r11,r11,4
   2df34:	0013883a 	mov	r9,zero
   2df38:	dac02315 	stw	r11,140(sp)
   2df3c:	003f4106 	br	2dc44 <__alt_data_end+0xfffedc44>
   2df40:	21003fcc 	andi	r4,r4,255
   2df44:	2002e11e 	bne	r4,zero,2eacc <___svfiprintf_internal_r+0x1234>
   2df48:	9080080c 	andi	r2,r18,32
   2df4c:	1002011e 	bne	r2,zero,2e754 <___svfiprintf_internal_r+0xebc>
   2df50:	9080040c 	andi	r2,r18,16
   2df54:	10023e1e 	bne	r2,zero,2e850 <___svfiprintf_internal_r+0xfb8>
   2df58:	9480100c 	andi	r18,r18,64
   2df5c:	90023c26 	beq	r18,zero,2e850 <___svfiprintf_internal_r+0xfb8>
   2df60:	dac02317 	ldw	r11,140(sp)
   2df64:	58800017 	ldw	r2,0(r11)
   2df68:	5ac00104 	addi	r11,r11,4
   2df6c:	dac02315 	stw	r11,140(sp)
   2df70:	dac02517 	ldw	r11,148(sp)
   2df74:	12c0000d 	sth	r11,0(r2)
   2df78:	003e6e06 	br	2d934 <__alt_data_end+0xfffed934>
   2df7c:	98c00007 	ldb	r3,0(r19)
   2df80:	1a422926 	beq	r3,r9,2e828 <___svfiprintf_internal_r+0xf90>
   2df84:	94800414 	ori	r18,r18,16
   2df88:	003e9206 	br	2d9d4 <__alt_data_end+0xfffed9d4>
   2df8c:	94801014 	ori	r18,r18,64
   2df90:	98c00007 	ldb	r3,0(r19)
   2df94:	003e8f06 	br	2d9d4 <__alt_data_end+0xfffed9d4>
   2df98:	21003fcc 	andi	r4,r4,255
   2df9c:	2002c71e 	bne	r4,zero,2eabc <___svfiprintf_internal_r+0x1224>
   2dfa0:	9080080c 	andi	r2,r18,32
   2dfa4:	10004926 	beq	r2,zero,2e0cc <___svfiprintf_internal_r+0x834>
   2dfa8:	dac02317 	ldw	r11,140(sp)
   2dfac:	58800117 	ldw	r2,4(r11)
   2dfb0:	5f000017 	ldw	fp,0(r11)
   2dfb4:	5ac00204 	addi	r11,r11,8
   2dfb8:	dac02315 	stw	r11,140(sp)
   2dfbc:	1013883a 	mov	r9,r2
   2dfc0:	10004b16 	blt	r2,zero,2e0f0 <___svfiprintf_internal_r+0x858>
   2dfc4:	da801d83 	ldbu	r10,118(sp)
   2dfc8:	8001cb16 	blt	r16,zero,2e6f8 <___svfiprintf_internal_r+0xe60>
   2dfcc:	00ffdfc4 	movi	r3,-129
   2dfd0:	e244b03a 	or	r2,fp,r9
   2dfd4:	90e4703a 	and	r18,r18,r3
   2dfd8:	103f4726 	beq	r2,zero,2dcf8 <__alt_data_end+0xfffedcf8>
   2dfdc:	48008c26 	beq	r9,zero,2e210 <___svfiprintf_internal_r+0x978>
   2dfe0:	dc802015 	stw	r18,128(sp)
   2dfe4:	dc002115 	stw	r16,132(sp)
   2dfe8:	dc401a04 	addi	r17,sp,104
   2dfec:	e021883a 	mov	r16,fp
   2dff0:	da002215 	stw	r8,136(sp)
   2dff4:	5039883a 	mov	fp,r10
   2dff8:	4825883a 	mov	r18,r9
   2dffc:	8009883a 	mov	r4,r16
   2e000:	900b883a 	mov	r5,r18
   2e004:	01800284 	movi	r6,10
   2e008:	000f883a 	mov	r7,zero
   2e00c:	0030da40 	call	30da4 <__umoddi3>
   2e010:	10800c04 	addi	r2,r2,48
   2e014:	8c7fffc4 	addi	r17,r17,-1
   2e018:	8009883a 	mov	r4,r16
   2e01c:	900b883a 	mov	r5,r18
   2e020:	88800005 	stb	r2,0(r17)
   2e024:	01800284 	movi	r6,10
   2e028:	000f883a 	mov	r7,zero
   2e02c:	003082c0 	call	3082c <__udivdi3>
   2e030:	1021883a 	mov	r16,r2
   2e034:	10c4b03a 	or	r2,r2,r3
   2e038:	1825883a 	mov	r18,r3
   2e03c:	103fef1e 	bne	r2,zero,2dffc <__alt_data_end+0xfffedffc>
   2e040:	dc802017 	ldw	r18,128(sp)
   2e044:	dc002117 	ldw	r16,132(sp)
   2e048:	da002217 	ldw	r8,136(sp)
   2e04c:	e015883a 	mov	r10,fp
   2e050:	d8c01e17 	ldw	r3,120(sp)
   2e054:	1c47c83a 	sub	r3,r3,r17
   2e058:	d8c02115 	stw	r3,132(sp)
   2e05c:	003f2a06 	br	2dd08 <__alt_data_end+0xfffedd08>
   2e060:	dac02317 	ldw	r11,140(sp)
   2e064:	d8001d85 	stb	zero,118(sp)
   2e068:	5c400017 	ldw	r17,0(r11)
   2e06c:	5f000104 	addi	fp,r11,4
   2e070:	88022f26 	beq	r17,zero,2e930 <___svfiprintf_internal_r+0x1098>
   2e074:	80022516 	blt	r16,zero,2e90c <___svfiprintf_internal_r+0x1074>
   2e078:	800d883a 	mov	r6,r16
   2e07c:	000b883a 	mov	r5,zero
   2e080:	8809883a 	mov	r4,r17
   2e084:	da002c15 	stw	r8,176(sp)
   2e088:	002bac80 	call	2bac8 <memchr>
   2e08c:	da002c17 	ldw	r8,176(sp)
   2e090:	10026426 	beq	r2,zero,2ea24 <___svfiprintf_internal_r+0x118c>
   2e094:	1445c83a 	sub	r2,r2,r17
   2e098:	d8802115 	stw	r2,132(sp)
   2e09c:	da801d83 	ldbu	r10,118(sp)
   2e0a0:	df002315 	stw	fp,140(sp)
   2e0a4:	0021883a 	mov	r16,zero
   2e0a8:	003f1706 	br	2dd08 <__alt_data_end+0xfffedd08>
   2e0ac:	94800814 	ori	r18,r18,32
   2e0b0:	98c00007 	ldb	r3,0(r19)
   2e0b4:	003e4706 	br	2d9d4 <__alt_data_end+0xfffed9d4>
   2e0b8:	21003fcc 	andi	r4,r4,255
   2e0bc:	2002701e 	bne	r4,zero,2ea80 <___svfiprintf_internal_r+0x11e8>
   2e0c0:	94800414 	ori	r18,r18,16
   2e0c4:	9080080c 	andi	r2,r18,32
   2e0c8:	103fb71e 	bne	r2,zero,2dfa8 <__alt_data_end+0xfffedfa8>
   2e0cc:	9080040c 	andi	r2,r18,16
   2e0d0:	1001ab26 	beq	r2,zero,2e780 <___svfiprintf_internal_r+0xee8>
   2e0d4:	dac02317 	ldw	r11,140(sp)
   2e0d8:	5f000017 	ldw	fp,0(r11)
   2e0dc:	5ac00104 	addi	r11,r11,4
   2e0e0:	dac02315 	stw	r11,140(sp)
   2e0e4:	e013d7fa 	srai	r9,fp,31
   2e0e8:	4805883a 	mov	r2,r9
   2e0ec:	103fb50e 	bge	r2,zero,2dfc4 <__alt_data_end+0xfffedfc4>
   2e0f0:	0739c83a 	sub	fp,zero,fp
   2e0f4:	02800b44 	movi	r10,45
   2e0f8:	e004c03a 	cmpne	r2,fp,zero
   2e0fc:	0253c83a 	sub	r9,zero,r9
   2e100:	da801d85 	stb	r10,118(sp)
   2e104:	4893c83a 	sub	r9,r9,r2
   2e108:	80023016 	blt	r16,zero,2e9cc <___svfiprintf_internal_r+0x1134>
   2e10c:	00bfdfc4 	movi	r2,-129
   2e110:	90a4703a 	and	r18,r18,r2
   2e114:	483fb21e 	bne	r9,zero,2dfe0 <__alt_data_end+0xfffedfe0>
   2e118:	00003d06 	br	2e210 <___svfiprintf_internal_r+0x978>
   2e11c:	9817883a 	mov	r11,r19
   2e120:	d8002415 	stw	zero,144(sp)
   2e124:	18bff404 	addi	r2,r3,-48
   2e128:	0019883a 	mov	r12,zero
   2e12c:	58c00007 	ldb	r3,0(r11)
   2e130:	630002a4 	muli	r12,r12,10
   2e134:	9cc00044 	addi	r19,r19,1
   2e138:	9817883a 	mov	r11,r19
   2e13c:	1319883a 	add	r12,r2,r12
   2e140:	18bff404 	addi	r2,r3,-48
   2e144:	30bff92e 	bgeu	r6,r2,2e12c <__alt_data_end+0xfffee12c>
   2e148:	db002415 	stw	r12,144(sp)
   2e14c:	18bff804 	addi	r2,r3,-32
   2e150:	28be232e 	bgeu	r5,r2,2d9e0 <__alt_data_end+0xfffed9e0>
   2e154:	21003fcc 	andi	r4,r4,255
   2e158:	20024b1e 	bne	r4,zero,2ea88 <___svfiprintf_internal_r+0x11f0>
   2e15c:	1800d626 	beq	r3,zero,2e4b8 <___svfiprintf_internal_r+0xc20>
   2e160:	02c00044 	movi	r11,1
   2e164:	dac02015 	stw	r11,128(sp)
   2e168:	d8c01005 	stb	r3,64(sp)
   2e16c:	d8001d85 	stb	zero,118(sp)
   2e170:	dac02115 	stw	r11,132(sp)
   2e174:	dc401004 	addi	r17,sp,64
   2e178:	003f2606 	br	2de14 <__alt_data_end+0xfffede14>
   2e17c:	94802014 	ori	r18,r18,128
   2e180:	98c00007 	ldb	r3,0(r19)
   2e184:	003e1306 	br	2d9d4 <__alt_data_end+0xfffed9d4>
   2e188:	98c00007 	ldb	r3,0(r19)
   2e18c:	9ac00044 	addi	r11,r19,1
   2e190:	1a822b26 	beq	r3,r10,2ea40 <___svfiprintf_internal_r+0x11a8>
   2e194:	18bff404 	addi	r2,r3,-48
   2e198:	0021883a 	mov	r16,zero
   2e19c:	30821e36 	bltu	r6,r2,2ea18 <___svfiprintf_internal_r+0x1180>
   2e1a0:	58c00007 	ldb	r3,0(r11)
   2e1a4:	840002a4 	muli	r16,r16,10
   2e1a8:	5cc00044 	addi	r19,r11,1
   2e1ac:	9817883a 	mov	r11,r19
   2e1b0:	80a1883a 	add	r16,r16,r2
   2e1b4:	18bff404 	addi	r2,r3,-48
   2e1b8:	30bff92e 	bgeu	r6,r2,2e1a0 <__alt_data_end+0xfffee1a0>
   2e1bc:	803e060e 	bge	r16,zero,2d9d8 <__alt_data_end+0xfffed9d8>
   2e1c0:	043fffc4 	movi	r16,-1
   2e1c4:	003e0406 	br	2d9d8 <__alt_data_end+0xfffed9d8>
   2e1c8:	21003fcc 	andi	r4,r4,255
   2e1cc:	2002371e 	bne	r4,zero,2eaac <___svfiprintf_internal_r+0x1214>
   2e1d0:	94800414 	ori	r18,r18,16
   2e1d4:	9080080c 	andi	r2,r18,32
   2e1d8:	103ebb1e 	bne	r2,zero,2dcc8 <__alt_data_end+0xfffedcc8>
   2e1dc:	9080040c 	andi	r2,r18,16
   2e1e0:	10013b26 	beq	r2,zero,2e6d0 <___svfiprintf_internal_r+0xe38>
   2e1e4:	dac02317 	ldw	r11,140(sp)
   2e1e8:	d8001d85 	stb	zero,118(sp)
   2e1ec:	0013883a 	mov	r9,zero
   2e1f0:	58800104 	addi	r2,r11,4
   2e1f4:	5f000017 	ldw	fp,0(r11)
   2e1f8:	80013d16 	blt	r16,zero,2e6f0 <___svfiprintf_internal_r+0xe58>
   2e1fc:	00ffdfc4 	movi	r3,-129
   2e200:	d8802315 	stw	r2,140(sp)
   2e204:	90e4703a 	and	r18,r18,r3
   2e208:	0015883a 	mov	r10,zero
   2e20c:	e03eba26 	beq	fp,zero,2dcf8 <__alt_data_end+0xfffedcf8>
   2e210:	00800244 	movi	r2,9
   2e214:	173f7236 	bltu	r2,fp,2dfe0 <__alt_data_end+0xfffedfe0>
   2e218:	dac02b17 	ldw	r11,172(sp)
   2e21c:	e7000c04 	addi	fp,fp,48
   2e220:	df0019c5 	stb	fp,103(sp)
   2e224:	dac02115 	stw	r11,132(sp)
   2e228:	dc4019c4 	addi	r17,sp,103
   2e22c:	003eb606 	br	2dd08 <__alt_data_end+0xfffedd08>
   2e230:	21003fcc 	andi	r4,r4,255
   2e234:	20021f1e 	bne	r4,zero,2eab4 <___svfiprintf_internal_r+0x121c>
   2e238:	94800414 	ori	r18,r18,16
   2e23c:	9080080c 	andi	r2,r18,32
   2e240:	103ec51e 	bne	r2,zero,2dd58 <__alt_data_end+0xfffedd58>
   2e244:	9080040c 	andi	r2,r18,16
   2e248:	10016926 	beq	r2,zero,2e7f0 <___svfiprintf_internal_r+0xf58>
   2e24c:	dac02317 	ldw	r11,140(sp)
   2e250:	d8001d85 	stb	zero,118(sp)
   2e254:	0013883a 	mov	r9,zero
   2e258:	58800104 	addi	r2,r11,4
   2e25c:	5f000017 	ldw	fp,0(r11)
   2e260:	80016b16 	blt	r16,zero,2e810 <___svfiprintf_internal_r+0xf78>
   2e264:	00ffdfc4 	movi	r3,-129
   2e268:	d8802315 	stw	r2,140(sp)
   2e26c:	90e4703a 	and	r18,r18,r3
   2e270:	e03ec41e 	bne	fp,zero,2dd84 <__alt_data_end+0xfffedd84>
   2e274:	0015883a 	mov	r10,zero
   2e278:	8001c226 	beq	r16,zero,2e984 <___svfiprintf_internal_r+0x10ec>
   2e27c:	0039883a 	mov	fp,zero
   2e280:	0013883a 	mov	r9,zero
   2e284:	003ec006 	br	2dd88 <__alt_data_end+0xfffedd88>
   2e288:	d8c01c17 	ldw	r3,112(sp)
   2e28c:	d8801b17 	ldw	r2,108(sp)
   2e290:	d9001d87 	ldb	r4,118(sp)
   2e294:	20000b26 	beq	r4,zero,2e2c4 <___svfiprintf_internal_r+0xa2c>
   2e298:	d9001d84 	addi	r4,sp,118
   2e29c:	18c00044 	addi	r3,r3,1
   2e2a0:	10800044 	addi	r2,r2,1
   2e2a4:	41000015 	stw	r4,0(r8)
   2e2a8:	01000044 	movi	r4,1
   2e2ac:	41000115 	stw	r4,4(r8)
   2e2b0:	d8c01c15 	stw	r3,112(sp)
   2e2b4:	d8801b15 	stw	r2,108(sp)
   2e2b8:	010001c4 	movi	r4,7
   2e2bc:	2080e116 	blt	r4,r2,2e644 <___svfiprintf_internal_r+0xdac>
   2e2c0:	42000204 	addi	r8,r8,8
   2e2c4:	dac02217 	ldw	r11,136(sp)
   2e2c8:	58000b26 	beq	r11,zero,2e2f8 <___svfiprintf_internal_r+0xa60>
   2e2cc:	d9001d04 	addi	r4,sp,116
   2e2d0:	18c00084 	addi	r3,r3,2
   2e2d4:	10800044 	addi	r2,r2,1
   2e2d8:	41000015 	stw	r4,0(r8)
   2e2dc:	01000084 	movi	r4,2
   2e2e0:	41000115 	stw	r4,4(r8)
   2e2e4:	d8c01c15 	stw	r3,112(sp)
   2e2e8:	d8801b15 	stw	r2,108(sp)
   2e2ec:	010001c4 	movi	r4,7
   2e2f0:	2080dd16 	blt	r4,r2,2e668 <___svfiprintf_internal_r+0xdd0>
   2e2f4:	42000204 	addi	r8,r8,8
   2e2f8:	dac02617 	ldw	r11,152(sp)
   2e2fc:	01002004 	movi	r4,128
   2e300:	59008426 	beq	r11,r4,2e514 <___svfiprintf_internal_r+0xc7c>
   2e304:	dac02117 	ldw	r11,132(sp)
   2e308:	82e1c83a 	sub	r16,r16,r11
   2e30c:	0400270e 	bge	zero,r16,2e3ac <___svfiprintf_internal_r+0xb14>
   2e310:	01c00404 	movi	r7,16
   2e314:	3c016a0e 	bge	r7,r16,2e8c0 <___svfiprintf_internal_r+0x1028>
   2e318:	014000f4 	movhi	r5,3
   2e31c:	2955a504 	addi	r5,r5,22164
   2e320:	d9402215 	stw	r5,136(sp)
   2e324:	070001c4 	movi	fp,7
   2e328:	00000306 	br	2e338 <___svfiprintf_internal_r+0xaa0>
   2e32c:	843ffc04 	addi	r16,r16,-16
   2e330:	42000204 	addi	r8,r8,8
   2e334:	3c00130e 	bge	r7,r16,2e384 <___svfiprintf_internal_r+0xaec>
   2e338:	18c00404 	addi	r3,r3,16
   2e33c:	10800044 	addi	r2,r2,1
   2e340:	45000015 	stw	r20,0(r8)
   2e344:	41c00115 	stw	r7,4(r8)
   2e348:	d8c01c15 	stw	r3,112(sp)
   2e34c:	d8801b15 	stw	r2,108(sp)
   2e350:	e0bff60e 	bge	fp,r2,2e32c <__alt_data_end+0xfffee32c>
   2e354:	d9801a04 	addi	r6,sp,104
   2e358:	b80b883a 	mov	r5,r23
   2e35c:	a809883a 	mov	r4,r21
   2e360:	d9c02c15 	stw	r7,176(sp)
   2e364:	002d6c80 	call	2d6c8 <__ssprint_r>
   2e368:	d9c02c17 	ldw	r7,176(sp)
   2e36c:	1000581e 	bne	r2,zero,2e4d0 <___svfiprintf_internal_r+0xc38>
   2e370:	843ffc04 	addi	r16,r16,-16
   2e374:	d8c01c17 	ldw	r3,112(sp)
   2e378:	d8801b17 	ldw	r2,108(sp)
   2e37c:	d811883a 	mov	r8,sp
   2e380:	3c3fed16 	blt	r7,r16,2e338 <__alt_data_end+0xfffee338>
   2e384:	dac02217 	ldw	r11,136(sp)
   2e388:	1c07883a 	add	r3,r3,r16
   2e38c:	10800044 	addi	r2,r2,1
   2e390:	42c00015 	stw	r11,0(r8)
   2e394:	44000115 	stw	r16,4(r8)
   2e398:	d8c01c15 	stw	r3,112(sp)
   2e39c:	d8801b15 	stw	r2,108(sp)
   2e3a0:	010001c4 	movi	r4,7
   2e3a4:	20809e16 	blt	r4,r2,2e620 <___svfiprintf_internal_r+0xd88>
   2e3a8:	42000204 	addi	r8,r8,8
   2e3ac:	dac02117 	ldw	r11,132(sp)
   2e3b0:	10800044 	addi	r2,r2,1
   2e3b4:	44400015 	stw	r17,0(r8)
   2e3b8:	58c7883a 	add	r3,r11,r3
   2e3bc:	42c00115 	stw	r11,4(r8)
   2e3c0:	d8c01c15 	stw	r3,112(sp)
   2e3c4:	d8801b15 	stw	r2,108(sp)
   2e3c8:	010001c4 	movi	r4,7
   2e3cc:	20807f16 	blt	r4,r2,2e5cc <___svfiprintf_internal_r+0xd34>
   2e3d0:	42000204 	addi	r8,r8,8
   2e3d4:	9480010c 	andi	r18,r18,4
   2e3d8:	90002926 	beq	r18,zero,2e480 <___svfiprintf_internal_r+0xbe8>
   2e3dc:	dac02417 	ldw	r11,144(sp)
   2e3e0:	d8802017 	ldw	r2,128(sp)
   2e3e4:	58a1c83a 	sub	r16,r11,r2
   2e3e8:	0400250e 	bge	zero,r16,2e480 <___svfiprintf_internal_r+0xbe8>
   2e3ec:	04400404 	movi	r17,16
   2e3f0:	d8801b17 	ldw	r2,108(sp)
   2e3f4:	8c017c0e 	bge	r17,r16,2e9e8 <___svfiprintf_internal_r+0x1150>
   2e3f8:	014000f4 	movhi	r5,3
   2e3fc:	2955a904 	addi	r5,r5,22180
   2e400:	d9402815 	stw	r5,160(sp)
   2e404:	048001c4 	movi	r18,7
   2e408:	00000306 	br	2e418 <___svfiprintf_internal_r+0xb80>
   2e40c:	843ffc04 	addi	r16,r16,-16
   2e410:	42000204 	addi	r8,r8,8
   2e414:	8c00110e 	bge	r17,r16,2e45c <___svfiprintf_internal_r+0xbc4>
   2e418:	18c00404 	addi	r3,r3,16
   2e41c:	10800044 	addi	r2,r2,1
   2e420:	45800015 	stw	r22,0(r8)
   2e424:	44400115 	stw	r17,4(r8)
   2e428:	d8c01c15 	stw	r3,112(sp)
   2e42c:	d8801b15 	stw	r2,108(sp)
   2e430:	90bff60e 	bge	r18,r2,2e40c <__alt_data_end+0xfffee40c>
   2e434:	d9801a04 	addi	r6,sp,104
   2e438:	b80b883a 	mov	r5,r23
   2e43c:	a809883a 	mov	r4,r21
   2e440:	002d6c80 	call	2d6c8 <__ssprint_r>
   2e444:	1000221e 	bne	r2,zero,2e4d0 <___svfiprintf_internal_r+0xc38>
   2e448:	843ffc04 	addi	r16,r16,-16
   2e44c:	d8c01c17 	ldw	r3,112(sp)
   2e450:	d8801b17 	ldw	r2,108(sp)
   2e454:	d811883a 	mov	r8,sp
   2e458:	8c3fef16 	blt	r17,r16,2e418 <__alt_data_end+0xfffee418>
   2e45c:	dac02817 	ldw	r11,160(sp)
   2e460:	1c07883a 	add	r3,r3,r16
   2e464:	10800044 	addi	r2,r2,1
   2e468:	42c00015 	stw	r11,0(r8)
   2e46c:	44000115 	stw	r16,4(r8)
   2e470:	d8c01c15 	stw	r3,112(sp)
   2e474:	d8801b15 	stw	r2,108(sp)
   2e478:	010001c4 	movi	r4,7
   2e47c:	2080aa16 	blt	r4,r2,2e728 <___svfiprintf_internal_r+0xe90>
   2e480:	d8802417 	ldw	r2,144(sp)
   2e484:	dac02017 	ldw	r11,128(sp)
   2e488:	12c0010e 	bge	r2,r11,2e490 <___svfiprintf_internal_r+0xbf8>
   2e48c:	5805883a 	mov	r2,r11
   2e490:	dac02517 	ldw	r11,148(sp)
   2e494:	5897883a 	add	r11,r11,r2
   2e498:	dac02515 	stw	r11,148(sp)
   2e49c:	1800531e 	bne	r3,zero,2e5ec <___svfiprintf_internal_r+0xd54>
   2e4a0:	98800007 	ldb	r2,0(r19)
   2e4a4:	d8001b15 	stw	zero,108(sp)
   2e4a8:	d811883a 	mov	r8,sp
   2e4ac:	103d231e 	bne	r2,zero,2d93c <__alt_data_end+0xfffed93c>
   2e4b0:	9823883a 	mov	r17,r19
   2e4b4:	003d3906 	br	2d99c <__alt_data_end+0xfffed99c>
   2e4b8:	d8801c17 	ldw	r2,112(sp)
   2e4bc:	10000426 	beq	r2,zero,2e4d0 <___svfiprintf_internal_r+0xc38>
   2e4c0:	d9402717 	ldw	r5,156(sp)
   2e4c4:	d9002a17 	ldw	r4,168(sp)
   2e4c8:	d9801a04 	addi	r6,sp,104
   2e4cc:	002d6c80 	call	2d6c8 <__ssprint_r>
   2e4d0:	dac02717 	ldw	r11,156(sp)
   2e4d4:	d8802517 	ldw	r2,148(sp)
   2e4d8:	58c0030b 	ldhu	r3,12(r11)
   2e4dc:	18c0100c 	andi	r3,r3,64
   2e4e0:	1801381e 	bne	r3,zero,2e9c4 <___svfiprintf_internal_r+0x112c>
   2e4e4:	dfc03717 	ldw	ra,220(sp)
   2e4e8:	df003617 	ldw	fp,216(sp)
   2e4ec:	ddc03517 	ldw	r23,212(sp)
   2e4f0:	dd803417 	ldw	r22,208(sp)
   2e4f4:	dd403317 	ldw	r21,204(sp)
   2e4f8:	dd003217 	ldw	r20,200(sp)
   2e4fc:	dcc03117 	ldw	r19,196(sp)
   2e500:	dc803017 	ldw	r18,192(sp)
   2e504:	dc402f17 	ldw	r17,188(sp)
   2e508:	dc002e17 	ldw	r16,184(sp)
   2e50c:	dec03804 	addi	sp,sp,224
   2e510:	f800283a 	ret
   2e514:	dac02417 	ldw	r11,144(sp)
   2e518:	d9002017 	ldw	r4,128(sp)
   2e51c:	5939c83a 	sub	fp,r11,r4
   2e520:	073f780e 	bge	zero,fp,2e304 <__alt_data_end+0xfffee304>
   2e524:	02400404 	movi	r9,16
   2e528:	4f01370e 	bge	r9,fp,2ea08 <___svfiprintf_internal_r+0x1170>
   2e52c:	02c000f4 	movhi	r11,3
   2e530:	5ad5a504 	addi	r11,r11,22164
   2e534:	dac02215 	stw	r11,136(sp)
   2e538:	028001c4 	movi	r10,7
   2e53c:	00000306 	br	2e54c <___svfiprintf_internal_r+0xcb4>
   2e540:	e73ffc04 	addi	fp,fp,-16
   2e544:	42000204 	addi	r8,r8,8
   2e548:	4f00150e 	bge	r9,fp,2e5a0 <___svfiprintf_internal_r+0xd08>
   2e54c:	18c00404 	addi	r3,r3,16
   2e550:	10800044 	addi	r2,r2,1
   2e554:	45000015 	stw	r20,0(r8)
   2e558:	42400115 	stw	r9,4(r8)
   2e55c:	d8c01c15 	stw	r3,112(sp)
   2e560:	d8801b15 	stw	r2,108(sp)
   2e564:	50bff60e 	bge	r10,r2,2e540 <__alt_data_end+0xfffee540>
   2e568:	d9801a04 	addi	r6,sp,104
   2e56c:	b80b883a 	mov	r5,r23
   2e570:	a809883a 	mov	r4,r21
   2e574:	da402c15 	stw	r9,176(sp)
   2e578:	da802d15 	stw	r10,180(sp)
   2e57c:	002d6c80 	call	2d6c8 <__ssprint_r>
   2e580:	da402c17 	ldw	r9,176(sp)
   2e584:	da802d17 	ldw	r10,180(sp)
   2e588:	103fd11e 	bne	r2,zero,2e4d0 <__alt_data_end+0xfffee4d0>
   2e58c:	e73ffc04 	addi	fp,fp,-16
   2e590:	d8c01c17 	ldw	r3,112(sp)
   2e594:	d8801b17 	ldw	r2,108(sp)
   2e598:	d811883a 	mov	r8,sp
   2e59c:	4f3feb16 	blt	r9,fp,2e54c <__alt_data_end+0xfffee54c>
   2e5a0:	dac02217 	ldw	r11,136(sp)
   2e5a4:	1f07883a 	add	r3,r3,fp
   2e5a8:	10800044 	addi	r2,r2,1
   2e5ac:	42c00015 	stw	r11,0(r8)
   2e5b0:	47000115 	stw	fp,4(r8)
   2e5b4:	d8c01c15 	stw	r3,112(sp)
   2e5b8:	d8801b15 	stw	r2,108(sp)
   2e5bc:	010001c4 	movi	r4,7
   2e5c0:	2080b616 	blt	r4,r2,2e89c <___svfiprintf_internal_r+0x1004>
   2e5c4:	42000204 	addi	r8,r8,8
   2e5c8:	003f4e06 	br	2e304 <__alt_data_end+0xfffee304>
   2e5cc:	d9801a04 	addi	r6,sp,104
   2e5d0:	b80b883a 	mov	r5,r23
   2e5d4:	a809883a 	mov	r4,r21
   2e5d8:	002d6c80 	call	2d6c8 <__ssprint_r>
   2e5dc:	103fbc1e 	bne	r2,zero,2e4d0 <__alt_data_end+0xfffee4d0>
   2e5e0:	d8c01c17 	ldw	r3,112(sp)
   2e5e4:	d811883a 	mov	r8,sp
   2e5e8:	003f7a06 	br	2e3d4 <__alt_data_end+0xfffee3d4>
   2e5ec:	d9801a04 	addi	r6,sp,104
   2e5f0:	b80b883a 	mov	r5,r23
   2e5f4:	a809883a 	mov	r4,r21
   2e5f8:	002d6c80 	call	2d6c8 <__ssprint_r>
   2e5fc:	103fa826 	beq	r2,zero,2e4a0 <__alt_data_end+0xfffee4a0>
   2e600:	003fb306 	br	2e4d0 <__alt_data_end+0xfffee4d0>
   2e604:	d9801a04 	addi	r6,sp,104
   2e608:	b80b883a 	mov	r5,r23
   2e60c:	a809883a 	mov	r4,r21
   2e610:	002d6c80 	call	2d6c8 <__ssprint_r>
   2e614:	103fae1e 	bne	r2,zero,2e4d0 <__alt_data_end+0xfffee4d0>
   2e618:	d811883a 	mov	r8,sp
   2e61c:	003cdc06 	br	2d990 <__alt_data_end+0xfffed990>
   2e620:	d9801a04 	addi	r6,sp,104
   2e624:	b80b883a 	mov	r5,r23
   2e628:	a809883a 	mov	r4,r21
   2e62c:	002d6c80 	call	2d6c8 <__ssprint_r>
   2e630:	103fa71e 	bne	r2,zero,2e4d0 <__alt_data_end+0xfffee4d0>
   2e634:	d8c01c17 	ldw	r3,112(sp)
   2e638:	d8801b17 	ldw	r2,108(sp)
   2e63c:	d811883a 	mov	r8,sp
   2e640:	003f5a06 	br	2e3ac <__alt_data_end+0xfffee3ac>
   2e644:	d9801a04 	addi	r6,sp,104
   2e648:	b80b883a 	mov	r5,r23
   2e64c:	a809883a 	mov	r4,r21
   2e650:	002d6c80 	call	2d6c8 <__ssprint_r>
   2e654:	103f9e1e 	bne	r2,zero,2e4d0 <__alt_data_end+0xfffee4d0>
   2e658:	d8c01c17 	ldw	r3,112(sp)
   2e65c:	d8801b17 	ldw	r2,108(sp)
   2e660:	d811883a 	mov	r8,sp
   2e664:	003f1706 	br	2e2c4 <__alt_data_end+0xfffee2c4>
   2e668:	d9801a04 	addi	r6,sp,104
   2e66c:	b80b883a 	mov	r5,r23
   2e670:	a809883a 	mov	r4,r21
   2e674:	002d6c80 	call	2d6c8 <__ssprint_r>
   2e678:	103f951e 	bne	r2,zero,2e4d0 <__alt_data_end+0xfffee4d0>
   2e67c:	d8c01c17 	ldw	r3,112(sp)
   2e680:	d8801b17 	ldw	r2,108(sp)
   2e684:	d811883a 	mov	r8,sp
   2e688:	003f1b06 	br	2e2f8 <__alt_data_end+0xfffee2f8>
   2e68c:	d8001d85 	stb	zero,118(sp)
   2e690:	80007b16 	blt	r16,zero,2e880 <___svfiprintf_internal_r+0xfe8>
   2e694:	00ffdfc4 	movi	r3,-129
   2e698:	e244b03a 	or	r2,fp,r9
   2e69c:	90e4703a 	and	r18,r18,r3
   2e6a0:	103d7026 	beq	r2,zero,2dc64 <__alt_data_end+0xfffedc64>
   2e6a4:	0015883a 	mov	r10,zero
   2e6a8:	003d7206 	br	2dc74 <__alt_data_end+0xfffedc74>
   2e6ac:	d9801a04 	addi	r6,sp,104
   2e6b0:	b80b883a 	mov	r5,r23
   2e6b4:	a809883a 	mov	r4,r21
   2e6b8:	002d6c80 	call	2d6c8 <__ssprint_r>
   2e6bc:	103f841e 	bne	r2,zero,2e4d0 <__alt_data_end+0xfffee4d0>
   2e6c0:	d8c01c17 	ldw	r3,112(sp)
   2e6c4:	d8801b17 	ldw	r2,108(sp)
   2e6c8:	d811883a 	mov	r8,sp
   2e6cc:	003ef006 	br	2e290 <__alt_data_end+0xfffee290>
   2e6d0:	9080100c 	andi	r2,r18,64
   2e6d4:	d8001d85 	stb	zero,118(sp)
   2e6d8:	dac02317 	ldw	r11,140(sp)
   2e6dc:	10008126 	beq	r2,zero,2e8e4 <___svfiprintf_internal_r+0x104c>
   2e6e0:	58800104 	addi	r2,r11,4
   2e6e4:	5f00000b 	ldhu	fp,0(r11)
   2e6e8:	0013883a 	mov	r9,zero
   2e6ec:	803ec30e 	bge	r16,zero,2e1fc <__alt_data_end+0xfffee1fc>
   2e6f0:	d8802315 	stw	r2,140(sp)
   2e6f4:	0015883a 	mov	r10,zero
   2e6f8:	e244b03a 	or	r2,fp,r9
   2e6fc:	103e371e 	bne	r2,zero,2dfdc <__alt_data_end+0xfffedfdc>
   2e700:	00800044 	movi	r2,1
   2e704:	10803fcc 	andi	r2,r2,255
   2e708:	00c00044 	movi	r3,1
   2e70c:	10c06126 	beq	r2,r3,2e894 <___svfiprintf_internal_r+0xffc>
   2e710:	00c00084 	movi	r3,2
   2e714:	10fd5526 	beq	r2,r3,2dc6c <__alt_data_end+0xfffedc6c>
   2e718:	003ed806 	br	2e27c <__alt_data_end+0xfffee27c>
   2e71c:	d8802315 	stw	r2,140(sp)
   2e720:	98c00007 	ldb	r3,0(r19)
   2e724:	003cab06 	br	2d9d4 <__alt_data_end+0xfffed9d4>
   2e728:	d9801a04 	addi	r6,sp,104
   2e72c:	b80b883a 	mov	r5,r23
   2e730:	a809883a 	mov	r4,r21
   2e734:	002d6c80 	call	2d6c8 <__ssprint_r>
   2e738:	103f651e 	bne	r2,zero,2e4d0 <__alt_data_end+0xfffee4d0>
   2e73c:	d8c01c17 	ldw	r3,112(sp)
   2e740:	003f4f06 	br	2e480 <__alt_data_end+0xfffee480>
   2e744:	008000f4 	movhi	r2,3
   2e748:	10953d04 	addi	r2,r2,21748
   2e74c:	d8802915 	stw	r2,164(sp)
   2e750:	003d4406 	br	2dc64 <__alt_data_end+0xfffedc64>
   2e754:	dac02317 	ldw	r11,140(sp)
   2e758:	58800017 	ldw	r2,0(r11)
   2e75c:	dac02517 	ldw	r11,148(sp)
   2e760:	5807d7fa 	srai	r3,r11,31
   2e764:	dac02317 	ldw	r11,140(sp)
   2e768:	10c00115 	stw	r3,4(r2)
   2e76c:	5ac00104 	addi	r11,r11,4
   2e770:	dac02315 	stw	r11,140(sp)
   2e774:	dac02517 	ldw	r11,148(sp)
   2e778:	12c00015 	stw	r11,0(r2)
   2e77c:	003c6d06 	br	2d934 <__alt_data_end+0xfffed934>
   2e780:	9080100c 	andi	r2,r18,64
   2e784:	dac02317 	ldw	r11,140(sp)
   2e788:	103e5326 	beq	r2,zero,2e0d8 <__alt_data_end+0xfffee0d8>
   2e78c:	5f00000f 	ldh	fp,0(r11)
   2e790:	5ac00104 	addi	r11,r11,4
   2e794:	dac02315 	stw	r11,140(sp)
   2e798:	e013d7fa 	srai	r9,fp,31
   2e79c:	4805883a 	mov	r2,r9
   2e7a0:	003e0706 	br	2dfc0 <__alt_data_end+0xfffedfc0>
   2e7a4:	00800c04 	movi	r2,48
   2e7a8:	d8801d05 	stb	r2,116(sp)
   2e7ac:	d8c01d45 	stb	r3,117(sp)
   2e7b0:	d8001d85 	stb	zero,118(sp)
   2e7b4:	90800094 	ori	r2,r18,2
   2e7b8:	80008f16 	blt	r16,zero,2e9f8 <___svfiprintf_internal_r+0x1160>
   2e7bc:	00bfdfc4 	movi	r2,-129
   2e7c0:	90a4703a 	and	r18,r18,r2
   2e7c4:	94800094 	ori	r18,r18,2
   2e7c8:	0015883a 	mov	r10,zero
   2e7cc:	003d2906 	br	2dc74 <__alt_data_end+0xfffedc74>
   2e7d0:	98c00007 	ldb	r3,0(r19)
   2e7d4:	003c7f06 	br	2d9d4 <__alt_data_end+0xfffed9d4>
   2e7d8:	dac02317 	ldw	r11,140(sp)
   2e7dc:	0013883a 	mov	r9,zero
   2e7e0:	5f000017 	ldw	fp,0(r11)
   2e7e4:	5ac00104 	addi	r11,r11,4
   2e7e8:	dac02315 	stw	r11,140(sp)
   2e7ec:	003d1506 	br	2dc44 <__alt_data_end+0xfffedc44>
   2e7f0:	9080100c 	andi	r2,r18,64
   2e7f4:	d8001d85 	stb	zero,118(sp)
   2e7f8:	dac02317 	ldw	r11,140(sp)
   2e7fc:	10003426 	beq	r2,zero,2e8d0 <___svfiprintf_internal_r+0x1038>
   2e800:	58800104 	addi	r2,r11,4
   2e804:	5f00000b 	ldhu	fp,0(r11)
   2e808:	0013883a 	mov	r9,zero
   2e80c:	803e950e 	bge	r16,zero,2e264 <__alt_data_end+0xfffee264>
   2e810:	e246b03a 	or	r3,fp,r9
   2e814:	d8802315 	stw	r2,140(sp)
   2e818:	183d5a1e 	bne	r3,zero,2dd84 <__alt_data_end+0xfffedd84>
   2e81c:	0015883a 	mov	r10,zero
   2e820:	0005883a 	mov	r2,zero
   2e824:	003fb706 	br	2e704 <__alt_data_end+0xfffee704>
   2e828:	98c00043 	ldbu	r3,1(r19)
   2e82c:	94800814 	ori	r18,r18,32
   2e830:	9cc00044 	addi	r19,r19,1
   2e834:	18c03fcc 	andi	r3,r3,255
   2e838:	18c0201c 	xori	r3,r3,128
   2e83c:	18ffe004 	addi	r3,r3,-128
   2e840:	003c6406 	br	2d9d4 <__alt_data_end+0xfffed9d4>
   2e844:	d8c02315 	stw	r3,140(sp)
   2e848:	0015883a 	mov	r10,zero
   2e84c:	003faa06 	br	2e6f8 <__alt_data_end+0xfffee6f8>
   2e850:	dac02317 	ldw	r11,140(sp)
   2e854:	58800017 	ldw	r2,0(r11)
   2e858:	5ac00104 	addi	r11,r11,4
   2e85c:	dac02315 	stw	r11,140(sp)
   2e860:	dac02517 	ldw	r11,148(sp)
   2e864:	12c00015 	stw	r11,0(r2)
   2e868:	003c3206 	br	2d934 <__alt_data_end+0xfffed934>
   2e86c:	010000f4 	movhi	r4,3
   2e870:	21153d04 	addi	r4,r4,21748
   2e874:	d9002915 	stw	r4,164(sp)
   2e878:	d8c02315 	stw	r3,140(sp)
   2e87c:	1025883a 	mov	r18,r2
   2e880:	e244b03a 	or	r2,fp,r9
   2e884:	103f871e 	bne	r2,zero,2e6a4 <__alt_data_end+0xfffee6a4>
   2e888:	0015883a 	mov	r10,zero
   2e88c:	00800084 	movi	r2,2
   2e890:	003f9c06 	br	2e704 <__alt_data_end+0xfffee704>
   2e894:	0039883a 	mov	fp,zero
   2e898:	003e5f06 	br	2e218 <__alt_data_end+0xfffee218>
   2e89c:	d9801a04 	addi	r6,sp,104
   2e8a0:	b80b883a 	mov	r5,r23
   2e8a4:	a809883a 	mov	r4,r21
   2e8a8:	002d6c80 	call	2d6c8 <__ssprint_r>
   2e8ac:	103f081e 	bne	r2,zero,2e4d0 <__alt_data_end+0xfffee4d0>
   2e8b0:	d8c01c17 	ldw	r3,112(sp)
   2e8b4:	d8801b17 	ldw	r2,108(sp)
   2e8b8:	d811883a 	mov	r8,sp
   2e8bc:	003e9106 	br	2e304 <__alt_data_end+0xfffee304>
   2e8c0:	010000f4 	movhi	r4,3
   2e8c4:	2115a504 	addi	r4,r4,22164
   2e8c8:	d9002215 	stw	r4,136(sp)
   2e8cc:	003ead06 	br	2e384 <__alt_data_end+0xfffee384>
   2e8d0:	58800104 	addi	r2,r11,4
   2e8d4:	5f000017 	ldw	fp,0(r11)
   2e8d8:	0013883a 	mov	r9,zero
   2e8dc:	803e610e 	bge	r16,zero,2e264 <__alt_data_end+0xfffee264>
   2e8e0:	003fcb06 	br	2e810 <__alt_data_end+0xfffee810>
   2e8e4:	58800104 	addi	r2,r11,4
   2e8e8:	5f000017 	ldw	fp,0(r11)
   2e8ec:	0013883a 	mov	r9,zero
   2e8f0:	803e420e 	bge	r16,zero,2e1fc <__alt_data_end+0xfffee1fc>
   2e8f4:	003f7e06 	br	2e6f0 <__alt_data_end+0xfffee6f0>
   2e8f8:	5f000017 	ldw	fp,0(r11)
   2e8fc:	5ac00104 	addi	r11,r11,4
   2e900:	0013883a 	mov	r9,zero
   2e904:	dac02315 	stw	r11,140(sp)
   2e908:	003cce06 	br	2dc44 <__alt_data_end+0xfffedc44>
   2e90c:	8809883a 	mov	r4,r17
   2e910:	da002c15 	stw	r8,176(sp)
   2e914:	00247fc0 	call	247fc <strlen>
   2e918:	d8802115 	stw	r2,132(sp)
   2e91c:	da801d83 	ldbu	r10,118(sp)
   2e920:	df002315 	stw	fp,140(sp)
   2e924:	0021883a 	mov	r16,zero
   2e928:	da002c17 	ldw	r8,176(sp)
   2e92c:	003cf606 	br	2dd08 <__alt_data_end+0xfffedd08>
   2e930:	00800184 	movi	r2,6
   2e934:	1400012e 	bgeu	r2,r16,2e93c <___svfiprintf_internal_r+0x10a4>
   2e938:	1021883a 	mov	r16,r2
   2e93c:	dc002115 	stw	r16,132(sp)
   2e940:	8005883a 	mov	r2,r16
   2e944:	80003c16 	blt	r16,zero,2ea38 <___svfiprintf_internal_r+0x11a0>
   2e948:	044000f4 	movhi	r17,3
   2e94c:	d8802015 	stw	r2,128(sp)
   2e950:	df002315 	stw	fp,140(sp)
   2e954:	8c554204 	addi	r17,r17,21768
   2e958:	003d2e06 	br	2de14 <__alt_data_end+0xfffede14>
   2e95c:	04001004 	movi	r16,64
   2e960:	800b883a 	mov	r5,r16
   2e964:	00237440 	call	23744 <_malloc_r>
   2e968:	dac02717 	ldw	r11,156(sp)
   2e96c:	58800015 	stw	r2,0(r11)
   2e970:	58800415 	stw	r2,16(r11)
   2e974:	10004826 	beq	r2,zero,2ea98 <___svfiprintf_internal_r+0x1200>
   2e978:	dac02717 	ldw	r11,156(sp)
   2e97c:	5c000515 	stw	r16,20(r11)
   2e980:	003bd906 	br	2d8e8 <__alt_data_end+0xfffed8e8>
   2e984:	9080004c 	andi	r2,r18,1
   2e988:	0015883a 	mov	r10,zero
   2e98c:	10000626 	beq	r2,zero,2e9a8 <___svfiprintf_internal_r+0x1110>
   2e990:	dac02b17 	ldw	r11,172(sp)
   2e994:	00800c04 	movi	r2,48
   2e998:	d88019c5 	stb	r2,103(sp)
   2e99c:	dac02115 	stw	r11,132(sp)
   2e9a0:	dc4019c4 	addi	r17,sp,103
   2e9a4:	003cd806 	br	2dd08 <__alt_data_end+0xfffedd08>
   2e9a8:	d8002115 	stw	zero,132(sp)
   2e9ac:	dc401a04 	addi	r17,sp,104
   2e9b0:	003cd506 	br	2dd08 <__alt_data_end+0xfffedd08>
   2e9b4:	010000f4 	movhi	r4,3
   2e9b8:	2115a904 	addi	r4,r4,22180
   2e9bc:	d9002815 	stw	r4,160(sp)
   2e9c0:	003d4306 	br	2ded0 <__alt_data_end+0xfffeded0>
   2e9c4:	00bfffc4 	movi	r2,-1
   2e9c8:	003ec606 	br	2e4e4 <__alt_data_end+0xfffee4e4>
   2e9cc:	00800044 	movi	r2,1
   2e9d0:	10803fcc 	andi	r2,r2,255
   2e9d4:	00c00044 	movi	r3,1
   2e9d8:	10fd8026 	beq	r2,r3,2dfdc <__alt_data_end+0xfffedfdc>
   2e9dc:	00c00084 	movi	r3,2
   2e9e0:	10fca426 	beq	r2,r3,2dc74 <__alt_data_end+0xfffedc74>
   2e9e4:	003ce806 	br	2dd88 <__alt_data_end+0xfffedd88>
   2e9e8:	010000f4 	movhi	r4,3
   2e9ec:	2115a904 	addi	r4,r4,22180
   2e9f0:	d9002815 	stw	r4,160(sp)
   2e9f4:	003e9906 	br	2e45c <__alt_data_end+0xfffee45c>
   2e9f8:	1025883a 	mov	r18,r2
   2e9fc:	0015883a 	mov	r10,zero
   2ea00:	00800084 	movi	r2,2
   2ea04:	003ff206 	br	2e9d0 <__alt_data_end+0xfffee9d0>
   2ea08:	014000f4 	movhi	r5,3
   2ea0c:	2955a504 	addi	r5,r5,22164
   2ea10:	d9402215 	stw	r5,136(sp)
   2ea14:	003ee206 	br	2e5a0 <__alt_data_end+0xfffee5a0>
   2ea18:	5827883a 	mov	r19,r11
   2ea1c:	0021883a 	mov	r16,zero
   2ea20:	003bed06 	br	2d9d8 <__alt_data_end+0xfffed9d8>
   2ea24:	dc002115 	stw	r16,132(sp)
   2ea28:	da801d83 	ldbu	r10,118(sp)
   2ea2c:	df002315 	stw	fp,140(sp)
   2ea30:	0021883a 	mov	r16,zero
   2ea34:	003cb406 	br	2dd08 <__alt_data_end+0xfffedd08>
   2ea38:	0005883a 	mov	r2,zero
   2ea3c:	003fc206 	br	2e948 <__alt_data_end+0xfffee948>
   2ea40:	d8802317 	ldw	r2,140(sp)
   2ea44:	98c00043 	ldbu	r3,1(r19)
   2ea48:	5827883a 	mov	r19,r11
   2ea4c:	14000017 	ldw	r16,0(r2)
   2ea50:	10800104 	addi	r2,r2,4
   2ea54:	d8802315 	stw	r2,140(sp)
   2ea58:	803f760e 	bge	r16,zero,2e834 <__alt_data_end+0xfffee834>
   2ea5c:	18c03fcc 	andi	r3,r3,255
   2ea60:	18c0201c 	xori	r3,r3,128
   2ea64:	043fffc4 	movi	r16,-1
   2ea68:	18ffe004 	addi	r3,r3,-128
   2ea6c:	003bd906 	br	2d9d4 <__alt_data_end+0xfffed9d4>
   2ea70:	d9c01d85 	stb	r7,118(sp)
   2ea74:	003cb606 	br	2dd50 <__alt_data_end+0xfffedd50>
   2ea78:	d9c01d85 	stb	r7,118(sp)
   2ea7c:	003d2106 	br	2df04 <__alt_data_end+0xfffedf04>
   2ea80:	d9c01d85 	stb	r7,118(sp)
   2ea84:	003d8e06 	br	2e0c0 <__alt_data_end+0xfffee0c0>
   2ea88:	d9c01d85 	stb	r7,118(sp)
   2ea8c:	003db306 	br	2e15c <__alt_data_end+0xfffee15c>
   2ea90:	d9c01d85 	stb	r7,118(sp)
   2ea94:	003c8a06 	br	2dcc0 <__alt_data_end+0xfffedcc0>
   2ea98:	dac02a17 	ldw	r11,168(sp)
   2ea9c:	00800304 	movi	r2,12
   2eaa0:	58800015 	stw	r2,0(r11)
   2eaa4:	00bfffc4 	movi	r2,-1
   2eaa8:	003e8e06 	br	2e4e4 <__alt_data_end+0xfffee4e4>
   2eaac:	d9c01d85 	stb	r7,118(sp)
   2eab0:	003dc706 	br	2e1d0 <__alt_data_end+0xfffee1d0>
   2eab4:	d9c01d85 	stb	r7,118(sp)
   2eab8:	003ddf06 	br	2e238 <__alt_data_end+0xfffee238>
   2eabc:	d9c01d85 	stb	r7,118(sp)
   2eac0:	003d3706 	br	2dfa0 <__alt_data_end+0xfffedfa0>
   2eac4:	d9c01d85 	stb	r7,118(sp)
   2eac8:	003c5406 	br	2dc1c <__alt_data_end+0xfffedc1c>
   2eacc:	d9c01d85 	stb	r7,118(sp)
   2ead0:	003d1d06 	br	2df48 <__alt_data_end+0xfffedf48>

0002ead4 <__sprint_r.part.0>:
   2ead4:	28801917 	ldw	r2,100(r5)
   2ead8:	defff604 	addi	sp,sp,-40
   2eadc:	dd400515 	stw	r21,20(sp)
   2eae0:	dfc00915 	stw	ra,36(sp)
   2eae4:	df000815 	stw	fp,32(sp)
   2eae8:	ddc00715 	stw	r23,28(sp)
   2eaec:	dd800615 	stw	r22,24(sp)
   2eaf0:	dd000415 	stw	r20,16(sp)
   2eaf4:	dcc00315 	stw	r19,12(sp)
   2eaf8:	dc800215 	stw	r18,8(sp)
   2eafc:	dc400115 	stw	r17,4(sp)
   2eb00:	dc000015 	stw	r16,0(sp)
   2eb04:	1088000c 	andi	r2,r2,8192
   2eb08:	302b883a 	mov	r21,r6
   2eb0c:	10002e26 	beq	r2,zero,2ebc8 <__sprint_r.part.0+0xf4>
   2eb10:	30800217 	ldw	r2,8(r6)
   2eb14:	35800017 	ldw	r22,0(r6)
   2eb18:	10002926 	beq	r2,zero,2ebc0 <__sprint_r.part.0+0xec>
   2eb1c:	2827883a 	mov	r19,r5
   2eb20:	2029883a 	mov	r20,r4
   2eb24:	b5c00104 	addi	r23,r22,4
   2eb28:	04bfffc4 	movi	r18,-1
   2eb2c:	bc400017 	ldw	r17,0(r23)
   2eb30:	b4000017 	ldw	r16,0(r22)
   2eb34:	0039883a 	mov	fp,zero
   2eb38:	8822d0ba 	srli	r17,r17,2
   2eb3c:	8800031e 	bne	r17,zero,2eb4c <__sprint_r.part.0+0x78>
   2eb40:	00001806 	br	2eba4 <__sprint_r.part.0+0xd0>
   2eb44:	84000104 	addi	r16,r16,4
   2eb48:	8f001526 	beq	r17,fp,2eba0 <__sprint_r.part.0+0xcc>
   2eb4c:	81400017 	ldw	r5,0(r16)
   2eb50:	980d883a 	mov	r6,r19
   2eb54:	a009883a 	mov	r4,r20
   2eb58:	00305a00 	call	305a0 <_fputwc_r>
   2eb5c:	e7000044 	addi	fp,fp,1
   2eb60:	14bff81e 	bne	r2,r18,2eb44 <__alt_data_end+0xfffeeb44>
   2eb64:	9005883a 	mov	r2,r18
   2eb68:	a8000215 	stw	zero,8(r21)
   2eb6c:	a8000115 	stw	zero,4(r21)
   2eb70:	dfc00917 	ldw	ra,36(sp)
   2eb74:	df000817 	ldw	fp,32(sp)
   2eb78:	ddc00717 	ldw	r23,28(sp)
   2eb7c:	dd800617 	ldw	r22,24(sp)
   2eb80:	dd400517 	ldw	r21,20(sp)
   2eb84:	dd000417 	ldw	r20,16(sp)
   2eb88:	dcc00317 	ldw	r19,12(sp)
   2eb8c:	dc800217 	ldw	r18,8(sp)
   2eb90:	dc400117 	ldw	r17,4(sp)
   2eb94:	dc000017 	ldw	r16,0(sp)
   2eb98:	dec00a04 	addi	sp,sp,40
   2eb9c:	f800283a 	ret
   2eba0:	a8800217 	ldw	r2,8(r21)
   2eba4:	8c63883a 	add	r17,r17,r17
   2eba8:	8c63883a 	add	r17,r17,r17
   2ebac:	1445c83a 	sub	r2,r2,r17
   2ebb0:	a8800215 	stw	r2,8(r21)
   2ebb4:	b5800204 	addi	r22,r22,8
   2ebb8:	bdc00204 	addi	r23,r23,8
   2ebbc:	103fdb1e 	bne	r2,zero,2eb2c <__alt_data_end+0xfffeeb2c>
   2ebc0:	0005883a 	mov	r2,zero
   2ebc4:	003fe806 	br	2eb68 <__alt_data_end+0xfffeeb68>
   2ebc8:	002b2f40 	call	2b2f4 <__sfvwrite_r>
   2ebcc:	003fe606 	br	2eb68 <__alt_data_end+0xfffeeb68>

0002ebd0 <__sprint_r>:
   2ebd0:	30c00217 	ldw	r3,8(r6)
   2ebd4:	18000126 	beq	r3,zero,2ebdc <__sprint_r+0xc>
   2ebd8:	002ead41 	jmpi	2ead4 <__sprint_r.part.0>
   2ebdc:	30000115 	stw	zero,4(r6)
   2ebe0:	0005883a 	mov	r2,zero
   2ebe4:	f800283a 	ret

0002ebe8 <___vfiprintf_internal_r>:
   2ebe8:	deffc904 	addi	sp,sp,-220
   2ebec:	df003515 	stw	fp,212(sp)
   2ebf0:	dd003115 	stw	r20,196(sp)
   2ebf4:	dfc03615 	stw	ra,216(sp)
   2ebf8:	ddc03415 	stw	r23,208(sp)
   2ebfc:	dd803315 	stw	r22,204(sp)
   2ec00:	dd403215 	stw	r21,200(sp)
   2ec04:	dcc03015 	stw	r19,192(sp)
   2ec08:	dc802f15 	stw	r18,188(sp)
   2ec0c:	dc402e15 	stw	r17,184(sp)
   2ec10:	dc002d15 	stw	r16,180(sp)
   2ec14:	d9002015 	stw	r4,128(sp)
   2ec18:	d9c02215 	stw	r7,136(sp)
   2ec1c:	2829883a 	mov	r20,r5
   2ec20:	3039883a 	mov	fp,r6
   2ec24:	20000226 	beq	r4,zero,2ec30 <___vfiprintf_internal_r+0x48>
   2ec28:	20800e17 	ldw	r2,56(r4)
   2ec2c:	1000cf26 	beq	r2,zero,2ef6c <___vfiprintf_internal_r+0x384>
   2ec30:	a080030b 	ldhu	r2,12(r20)
   2ec34:	10c8000c 	andi	r3,r2,8192
   2ec38:	1800061e 	bne	r3,zero,2ec54 <___vfiprintf_internal_r+0x6c>
   2ec3c:	a1001917 	ldw	r4,100(r20)
   2ec40:	00f7ffc4 	movi	r3,-8193
   2ec44:	10880014 	ori	r2,r2,8192
   2ec48:	20c6703a 	and	r3,r4,r3
   2ec4c:	a080030d 	sth	r2,12(r20)
   2ec50:	a0c01915 	stw	r3,100(r20)
   2ec54:	10c0020c 	andi	r3,r2,8
   2ec58:	1800a926 	beq	r3,zero,2ef00 <___vfiprintf_internal_r+0x318>
   2ec5c:	a0c00417 	ldw	r3,16(r20)
   2ec60:	1800a726 	beq	r3,zero,2ef00 <___vfiprintf_internal_r+0x318>
   2ec64:	1080068c 	andi	r2,r2,26
   2ec68:	00c00284 	movi	r3,10
   2ec6c:	10c0ac26 	beq	r2,r3,2ef20 <___vfiprintf_internal_r+0x338>
   2ec70:	da801a04 	addi	r10,sp,104
   2ec74:	da801e15 	stw	r10,120(sp)
   2ec78:	d8801e17 	ldw	r2,120(sp)
   2ec7c:	da8019c4 	addi	r10,sp,103
   2ec80:	058000f4 	movhi	r22,3
   2ec84:	05c000f4 	movhi	r23,3
   2ec88:	da801f15 	stw	r10,124(sp)
   2ec8c:	1295c83a 	sub	r10,r2,r10
   2ec90:	b595b104 	addi	r22,r22,22212
   2ec94:	bdd5ad04 	addi	r23,r23,22196
   2ec98:	dec01a15 	stw	sp,104(sp)
   2ec9c:	d8001c15 	stw	zero,112(sp)
   2eca0:	d8001b15 	stw	zero,108(sp)
   2eca4:	d8002615 	stw	zero,152(sp)
   2eca8:	d8002315 	stw	zero,140(sp)
   2ecac:	da802715 	stw	r10,156(sp)
   2ecb0:	d811883a 	mov	r8,sp
   2ecb4:	dd002115 	stw	r20,132(sp)
   2ecb8:	e021883a 	mov	r16,fp
   2ecbc:	80800007 	ldb	r2,0(r16)
   2ecc0:	1003ea26 	beq	r2,zero,2fc6c <___vfiprintf_internal_r+0x1084>
   2ecc4:	00c00944 	movi	r3,37
   2ecc8:	8025883a 	mov	r18,r16
   2eccc:	10c0021e 	bne	r2,r3,2ecd8 <___vfiprintf_internal_r+0xf0>
   2ecd0:	00001606 	br	2ed2c <___vfiprintf_internal_r+0x144>
   2ecd4:	10c00326 	beq	r2,r3,2ece4 <___vfiprintf_internal_r+0xfc>
   2ecd8:	94800044 	addi	r18,r18,1
   2ecdc:	90800007 	ldb	r2,0(r18)
   2ece0:	103ffc1e 	bne	r2,zero,2ecd4 <__alt_data_end+0xfffeecd4>
   2ece4:	9423c83a 	sub	r17,r18,r16
   2ece8:	88001026 	beq	r17,zero,2ed2c <___vfiprintf_internal_r+0x144>
   2ecec:	d8c01c17 	ldw	r3,112(sp)
   2ecf0:	d8801b17 	ldw	r2,108(sp)
   2ecf4:	44000015 	stw	r16,0(r8)
   2ecf8:	88c7883a 	add	r3,r17,r3
   2ecfc:	10800044 	addi	r2,r2,1
   2ed00:	44400115 	stw	r17,4(r8)
   2ed04:	d8c01c15 	stw	r3,112(sp)
   2ed08:	d8801b15 	stw	r2,108(sp)
   2ed0c:	010001c4 	movi	r4,7
   2ed10:	2080760e 	bge	r4,r2,2eeec <___vfiprintf_internal_r+0x304>
   2ed14:	1803821e 	bne	r3,zero,2fb20 <___vfiprintf_internal_r+0xf38>
   2ed18:	da802317 	ldw	r10,140(sp)
   2ed1c:	d8001b15 	stw	zero,108(sp)
   2ed20:	d811883a 	mov	r8,sp
   2ed24:	5455883a 	add	r10,r10,r17
   2ed28:	da802315 	stw	r10,140(sp)
   2ed2c:	90800007 	ldb	r2,0(r18)
   2ed30:	10044626 	beq	r2,zero,2fe4c <___vfiprintf_internal_r+0x1264>
   2ed34:	90c00047 	ldb	r3,1(r18)
   2ed38:	94000044 	addi	r16,r18,1
   2ed3c:	d8001d85 	stb	zero,118(sp)
   2ed40:	0009883a 	mov	r4,zero
   2ed44:	000f883a 	mov	r7,zero
   2ed48:	027fffc4 	movi	r9,-1
   2ed4c:	0023883a 	mov	r17,zero
   2ed50:	0029883a 	mov	r20,zero
   2ed54:	01401604 	movi	r5,88
   2ed58:	01800244 	movi	r6,9
   2ed5c:	03400a84 	movi	r13,42
   2ed60:	03001b04 	movi	r12,108
   2ed64:	84000044 	addi	r16,r16,1
   2ed68:	18bff804 	addi	r2,r3,-32
   2ed6c:	28827336 	bltu	r5,r2,2f73c <___vfiprintf_internal_r+0xb54>
   2ed70:	100490ba 	slli	r2,r2,2
   2ed74:	028000f4 	movhi	r10,3
   2ed78:	52bb6204 	addi	r10,r10,-4728
   2ed7c:	1285883a 	add	r2,r2,r10
   2ed80:	10800017 	ldw	r2,0(r2)
   2ed84:	1000683a 	jmp	r2
   2ed88:	0002f470 	cmpltui	zero,zero,3025
   2ed8c:	0002f73c 	xorhi	zero,zero,3036
   2ed90:	0002f73c 	xorhi	zero,zero,3036
   2ed94:	0002f490 	cmplti	zero,zero,3026
   2ed98:	0002f73c 	xorhi	zero,zero,3036
   2ed9c:	0002f73c 	xorhi	zero,zero,3036
   2eda0:	0002f73c 	xorhi	zero,zero,3036
   2eda4:	0002f73c 	xorhi	zero,zero,3036
   2eda8:	0002f73c 	xorhi	zero,zero,3036
   2edac:	0002f73c 	xorhi	zero,zero,3036
   2edb0:	0002f678 	rdprs	zero,zero,3033
   2edb4:	0002f694 	movui	zero,3034
   2edb8:	0002f73c 	xorhi	zero,zero,3036
   2edbc:	0002ef7c 	xorhi	zero,zero,3005
   2edc0:	0002f6a4 	muli	zero,zero,3034
   2edc4:	0002f73c 	xorhi	zero,zero,3036
   2edc8:	0002f49c 	xori	zero,zero,3026
   2edcc:	0002f4a8 	cmpgeui	zero,zero,3026
   2edd0:	0002f4a8 	cmpgeui	zero,zero,3026
   2edd4:	0002f4a8 	cmpgeui	zero,zero,3026
   2edd8:	0002f4a8 	cmpgeui	zero,zero,3026
   2eddc:	0002f4a8 	cmpgeui	zero,zero,3026
   2ede0:	0002f4a8 	cmpgeui	zero,zero,3026
   2ede4:	0002f4a8 	cmpgeui	zero,zero,3026
   2ede8:	0002f4a8 	cmpgeui	zero,zero,3026
   2edec:	0002f4a8 	cmpgeui	zero,zero,3026
   2edf0:	0002f73c 	xorhi	zero,zero,3036
   2edf4:	0002f73c 	xorhi	zero,zero,3036
   2edf8:	0002f73c 	xorhi	zero,zero,3036
   2edfc:	0002f73c 	xorhi	zero,zero,3036
   2ee00:	0002f73c 	xorhi	zero,zero,3036
   2ee04:	0002f73c 	xorhi	zero,zero,3036
   2ee08:	0002f73c 	xorhi	zero,zero,3036
   2ee0c:	0002f73c 	xorhi	zero,zero,3036
   2ee10:	0002f73c 	xorhi	zero,zero,3036
   2ee14:	0002f73c 	xorhi	zero,zero,3036
   2ee18:	0002f4d4 	movui	zero,3027
   2ee1c:	0002f73c 	xorhi	zero,zero,3036
   2ee20:	0002f73c 	xorhi	zero,zero,3036
   2ee24:	0002f73c 	xorhi	zero,zero,3036
   2ee28:	0002f73c 	xorhi	zero,zero,3036
   2ee2c:	0002f73c 	xorhi	zero,zero,3036
   2ee30:	0002f73c 	xorhi	zero,zero,3036
   2ee34:	0002f73c 	xorhi	zero,zero,3036
   2ee38:	0002f73c 	xorhi	zero,zero,3036
   2ee3c:	0002f73c 	xorhi	zero,zero,3036
   2ee40:	0002f73c 	xorhi	zero,zero,3036
   2ee44:	0002f50c 	andi	zero,zero,3028
   2ee48:	0002f73c 	xorhi	zero,zero,3036
   2ee4c:	0002f73c 	xorhi	zero,zero,3036
   2ee50:	0002f73c 	xorhi	zero,zero,3036
   2ee54:	0002f73c 	xorhi	zero,zero,3036
   2ee58:	0002f73c 	xorhi	zero,zero,3036
   2ee5c:	0002f564 	muli	zero,zero,3029
   2ee60:	0002f73c 	xorhi	zero,zero,3036
   2ee64:	0002f73c 	xorhi	zero,zero,3036
   2ee68:	0002f5d4 	movui	zero,3031
   2ee6c:	0002f73c 	xorhi	zero,zero,3036
   2ee70:	0002f73c 	xorhi	zero,zero,3036
   2ee74:	0002f73c 	xorhi	zero,zero,3036
   2ee78:	0002f73c 	xorhi	zero,zero,3036
   2ee7c:	0002f73c 	xorhi	zero,zero,3036
   2ee80:	0002f73c 	xorhi	zero,zero,3036
   2ee84:	0002f73c 	xorhi	zero,zero,3036
   2ee88:	0002f73c 	xorhi	zero,zero,3036
   2ee8c:	0002f73c 	xorhi	zero,zero,3036
   2ee90:	0002f73c 	xorhi	zero,zero,3036
   2ee94:	0002f380 	call	2f38 <__alt_mem_onchip_memory2_0-0x1d0c8>
   2ee98:	0002f3ac 	andhi	zero,zero,3022
   2ee9c:	0002f73c 	xorhi	zero,zero,3036
   2eea0:	0002f73c 	xorhi	zero,zero,3036
   2eea4:	0002f73c 	xorhi	zero,zero,3036
   2eea8:	0002f6e4 	muli	zero,zero,3035
   2eeac:	0002f3ac 	andhi	zero,zero,3022
   2eeb0:	0002f73c 	xorhi	zero,zero,3036
   2eeb4:	0002f73c 	xorhi	zero,zero,3036
   2eeb8:	0002f240 	call	2f24 <__alt_mem_onchip_memory2_0-0x1d0dc>
   2eebc:	0002f73c 	xorhi	zero,zero,3036
   2eec0:	0002f250 	cmplti	zero,zero,3017
   2eec4:	0002f28c 	andi	zero,zero,3018
   2eec8:	0002ef88 	cmpgei	zero,zero,3006
   2eecc:	0002f234 	movhi	zero,3016
   2eed0:	0002f73c 	xorhi	zero,zero,3036
   2eed4:	0002f610 	cmplti	zero,zero,3032
   2eed8:	0002f73c 	xorhi	zero,zero,3036
   2eedc:	0002f668 	cmpgeui	zero,zero,3033
   2eee0:	0002f73c 	xorhi	zero,zero,3036
   2eee4:	0002f73c 	xorhi	zero,zero,3036
   2eee8:	0002f32c 	andhi	zero,zero,3020
   2eeec:	42000204 	addi	r8,r8,8
   2eef0:	da802317 	ldw	r10,140(sp)
   2eef4:	5455883a 	add	r10,r10,r17
   2eef8:	da802315 	stw	r10,140(sp)
   2eefc:	003f8b06 	br	2ed2c <__alt_data_end+0xfffeed2c>
   2ef00:	d9002017 	ldw	r4,128(sp)
   2ef04:	a00b883a 	mov	r5,r20
   2ef08:	0028d9c0 	call	28d9c <__swsetup_r>
   2ef0c:	1003b11e 	bne	r2,zero,2fdd4 <___vfiprintf_internal_r+0x11ec>
   2ef10:	a080030b 	ldhu	r2,12(r20)
   2ef14:	00c00284 	movi	r3,10
   2ef18:	1080068c 	andi	r2,r2,26
   2ef1c:	10ff541e 	bne	r2,r3,2ec70 <__alt_data_end+0xfffeec70>
   2ef20:	a080038f 	ldh	r2,14(r20)
   2ef24:	103f5216 	blt	r2,zero,2ec70 <__alt_data_end+0xfffeec70>
   2ef28:	d9c02217 	ldw	r7,136(sp)
   2ef2c:	d9002017 	ldw	r4,128(sp)
   2ef30:	e00d883a 	mov	r6,fp
   2ef34:	a00b883a 	mov	r5,r20
   2ef38:	00300600 	call	30060 <__sbprintf>
   2ef3c:	dfc03617 	ldw	ra,216(sp)
   2ef40:	df003517 	ldw	fp,212(sp)
   2ef44:	ddc03417 	ldw	r23,208(sp)
   2ef48:	dd803317 	ldw	r22,204(sp)
   2ef4c:	dd403217 	ldw	r21,200(sp)
   2ef50:	dd003117 	ldw	r20,196(sp)
   2ef54:	dcc03017 	ldw	r19,192(sp)
   2ef58:	dc802f17 	ldw	r18,188(sp)
   2ef5c:	dc402e17 	ldw	r17,184(sp)
   2ef60:	dc002d17 	ldw	r16,180(sp)
   2ef64:	dec03704 	addi	sp,sp,220
   2ef68:	f800283a 	ret
   2ef6c:	002adc40 	call	2adc4 <__sinit>
   2ef70:	003f2f06 	br	2ec30 <__alt_data_end+0xfffeec30>
   2ef74:	0463c83a 	sub	r17,zero,r17
   2ef78:	d8802215 	stw	r2,136(sp)
   2ef7c:	a5000114 	ori	r20,r20,4
   2ef80:	80c00007 	ldb	r3,0(r16)
   2ef84:	003f7706 	br	2ed64 <__alt_data_end+0xfffeed64>
   2ef88:	00800c04 	movi	r2,48
   2ef8c:	da802217 	ldw	r10,136(sp)
   2ef90:	d8801d05 	stb	r2,116(sp)
   2ef94:	00801e04 	movi	r2,120
   2ef98:	d8801d45 	stb	r2,117(sp)
   2ef9c:	d8001d85 	stb	zero,118(sp)
   2efa0:	50c00104 	addi	r3,r10,4
   2efa4:	54800017 	ldw	r18,0(r10)
   2efa8:	0027883a 	mov	r19,zero
   2efac:	a0800094 	ori	r2,r20,2
   2efb0:	48030b16 	blt	r9,zero,2fbe0 <___vfiprintf_internal_r+0xff8>
   2efb4:	00bfdfc4 	movi	r2,-129
   2efb8:	a096703a 	and	r11,r20,r2
   2efbc:	d8c02215 	stw	r3,136(sp)
   2efc0:	5d000094 	ori	r20,r11,2
   2efc4:	90032b1e 	bne	r18,zero,2fc74 <___vfiprintf_internal_r+0x108c>
   2efc8:	008000f4 	movhi	r2,3
   2efcc:	10953d04 	addi	r2,r2,21748
   2efd0:	d8802615 	stw	r2,152(sp)
   2efd4:	0039883a 	mov	fp,zero
   2efd8:	48017b1e 	bne	r9,zero,2f5c8 <___vfiprintf_internal_r+0x9e0>
   2efdc:	0013883a 	mov	r9,zero
   2efe0:	0027883a 	mov	r19,zero
   2efe4:	dd401a04 	addi	r21,sp,104
   2efe8:	4825883a 	mov	r18,r9
   2efec:	4cc0010e 	bge	r9,r19,2eff4 <___vfiprintf_internal_r+0x40c>
   2eff0:	9825883a 	mov	r18,r19
   2eff4:	e7003fcc 	andi	fp,fp,255
   2eff8:	e700201c 	xori	fp,fp,128
   2effc:	e73fe004 	addi	fp,fp,-128
   2f000:	e0000126 	beq	fp,zero,2f008 <___vfiprintf_internal_r+0x420>
   2f004:	94800044 	addi	r18,r18,1
   2f008:	a380008c 	andi	r14,r20,2
   2f00c:	70000126 	beq	r14,zero,2f014 <___vfiprintf_internal_r+0x42c>
   2f010:	94800084 	addi	r18,r18,2
   2f014:	a700210c 	andi	fp,r20,132
   2f018:	e001df1e 	bne	fp,zero,2f798 <___vfiprintf_internal_r+0xbb0>
   2f01c:	8c87c83a 	sub	r3,r17,r18
   2f020:	00c1dd0e 	bge	zero,r3,2f798 <___vfiprintf_internal_r+0xbb0>
   2f024:	01c00404 	movi	r7,16
   2f028:	d8801c17 	ldw	r2,112(sp)
   2f02c:	38c3ad0e 	bge	r7,r3,2fee4 <___vfiprintf_internal_r+0x12fc>
   2f030:	028000f4 	movhi	r10,3
   2f034:	5295b104 	addi	r10,r10,22212
   2f038:	dc002915 	stw	r16,164(sp)
   2f03c:	d9801b17 	ldw	r6,108(sp)
   2f040:	da802415 	stw	r10,144(sp)
   2f044:	03c001c4 	movi	r15,7
   2f048:	da402515 	stw	r9,148(sp)
   2f04c:	db802815 	stw	r14,160(sp)
   2f050:	1821883a 	mov	r16,r3
   2f054:	00000506 	br	2f06c <___vfiprintf_internal_r+0x484>
   2f058:	31400084 	addi	r5,r6,2
   2f05c:	42000204 	addi	r8,r8,8
   2f060:	200d883a 	mov	r6,r4
   2f064:	843ffc04 	addi	r16,r16,-16
   2f068:	3c000d0e 	bge	r7,r16,2f0a0 <___vfiprintf_internal_r+0x4b8>
   2f06c:	10800404 	addi	r2,r2,16
   2f070:	31000044 	addi	r4,r6,1
   2f074:	45800015 	stw	r22,0(r8)
   2f078:	41c00115 	stw	r7,4(r8)
   2f07c:	d8801c15 	stw	r2,112(sp)
   2f080:	d9001b15 	stw	r4,108(sp)
   2f084:	793ff40e 	bge	r15,r4,2f058 <__alt_data_end+0xfffef058>
   2f088:	1001b51e 	bne	r2,zero,2f760 <___vfiprintf_internal_r+0xb78>
   2f08c:	843ffc04 	addi	r16,r16,-16
   2f090:	000d883a 	mov	r6,zero
   2f094:	01400044 	movi	r5,1
   2f098:	d811883a 	mov	r8,sp
   2f09c:	3c3ff316 	blt	r7,r16,2f06c <__alt_data_end+0xfffef06c>
   2f0a0:	8007883a 	mov	r3,r16
   2f0a4:	da402517 	ldw	r9,148(sp)
   2f0a8:	db802817 	ldw	r14,160(sp)
   2f0ac:	dc002917 	ldw	r16,164(sp)
   2f0b0:	da802417 	ldw	r10,144(sp)
   2f0b4:	1885883a 	add	r2,r3,r2
   2f0b8:	40c00115 	stw	r3,4(r8)
   2f0bc:	42800015 	stw	r10,0(r8)
   2f0c0:	d8801c15 	stw	r2,112(sp)
   2f0c4:	d9401b15 	stw	r5,108(sp)
   2f0c8:	00c001c4 	movi	r3,7
   2f0cc:	19426016 	blt	r3,r5,2fa50 <___vfiprintf_internal_r+0xe68>
   2f0d0:	d8c01d87 	ldb	r3,118(sp)
   2f0d4:	42000204 	addi	r8,r8,8
   2f0d8:	29000044 	addi	r4,r5,1
   2f0dc:	1801b31e 	bne	r3,zero,2f7ac <___vfiprintf_internal_r+0xbc4>
   2f0e0:	7001c026 	beq	r14,zero,2f7e4 <___vfiprintf_internal_r+0xbfc>
   2f0e4:	d8c01d04 	addi	r3,sp,116
   2f0e8:	10800084 	addi	r2,r2,2
   2f0ec:	40c00015 	stw	r3,0(r8)
   2f0f0:	00c00084 	movi	r3,2
   2f0f4:	40c00115 	stw	r3,4(r8)
   2f0f8:	d8801c15 	stw	r2,112(sp)
   2f0fc:	d9001b15 	stw	r4,108(sp)
   2f100:	00c001c4 	movi	r3,7
   2f104:	1902650e 	bge	r3,r4,2fa9c <___vfiprintf_internal_r+0xeb4>
   2f108:	10029a1e 	bne	r2,zero,2fb74 <___vfiprintf_internal_r+0xf8c>
   2f10c:	00c02004 	movi	r3,128
   2f110:	01000044 	movi	r4,1
   2f114:	000b883a 	mov	r5,zero
   2f118:	d811883a 	mov	r8,sp
   2f11c:	e0c1b31e 	bne	fp,r3,2f7ec <___vfiprintf_internal_r+0xc04>
   2f120:	8cb9c83a 	sub	fp,r17,r18
   2f124:	0701b10e 	bge	zero,fp,2f7ec <___vfiprintf_internal_r+0xc04>
   2f128:	01c00404 	movi	r7,16
   2f12c:	3f03890e 	bge	r7,fp,2ff54 <___vfiprintf_internal_r+0x136c>
   2f130:	00c000f4 	movhi	r3,3
   2f134:	18d5ad04 	addi	r3,r3,22196
   2f138:	d8c02415 	stw	r3,144(sp)
   2f13c:	8007883a 	mov	r3,r16
   2f140:	034001c4 	movi	r13,7
   2f144:	e021883a 	mov	r16,fp
   2f148:	da402515 	stw	r9,148(sp)
   2f14c:	1839883a 	mov	fp,r3
   2f150:	00000506 	br	2f168 <___vfiprintf_internal_r+0x580>
   2f154:	29800084 	addi	r6,r5,2
   2f158:	42000204 	addi	r8,r8,8
   2f15c:	180b883a 	mov	r5,r3
   2f160:	843ffc04 	addi	r16,r16,-16
   2f164:	3c000d0e 	bge	r7,r16,2f19c <___vfiprintf_internal_r+0x5b4>
   2f168:	10800404 	addi	r2,r2,16
   2f16c:	28c00044 	addi	r3,r5,1
   2f170:	45c00015 	stw	r23,0(r8)
   2f174:	41c00115 	stw	r7,4(r8)
   2f178:	d8801c15 	stw	r2,112(sp)
   2f17c:	d8c01b15 	stw	r3,108(sp)
   2f180:	68fff40e 	bge	r13,r3,2f154 <__alt_data_end+0xfffef154>
   2f184:	1002241e 	bne	r2,zero,2fa18 <___vfiprintf_internal_r+0xe30>
   2f188:	843ffc04 	addi	r16,r16,-16
   2f18c:	01800044 	movi	r6,1
   2f190:	000b883a 	mov	r5,zero
   2f194:	d811883a 	mov	r8,sp
   2f198:	3c3ff316 	blt	r7,r16,2f168 <__alt_data_end+0xfffef168>
   2f19c:	da402517 	ldw	r9,148(sp)
   2f1a0:	e007883a 	mov	r3,fp
   2f1a4:	8039883a 	mov	fp,r16
   2f1a8:	1821883a 	mov	r16,r3
   2f1ac:	d8c02417 	ldw	r3,144(sp)
   2f1b0:	1705883a 	add	r2,r2,fp
   2f1b4:	47000115 	stw	fp,4(r8)
   2f1b8:	40c00015 	stw	r3,0(r8)
   2f1bc:	d8801c15 	stw	r2,112(sp)
   2f1c0:	d9801b15 	stw	r6,108(sp)
   2f1c4:	00c001c4 	movi	r3,7
   2f1c8:	19827616 	blt	r3,r6,2fba4 <___vfiprintf_internal_r+0xfbc>
   2f1cc:	4cf9c83a 	sub	fp,r9,r19
   2f1d0:	42000204 	addi	r8,r8,8
   2f1d4:	31000044 	addi	r4,r6,1
   2f1d8:	300b883a 	mov	r5,r6
   2f1dc:	07018516 	blt	zero,fp,2f7f4 <___vfiprintf_internal_r+0xc0c>
   2f1e0:	9885883a 	add	r2,r19,r2
   2f1e4:	45400015 	stw	r21,0(r8)
   2f1e8:	44c00115 	stw	r19,4(r8)
   2f1ec:	d8801c15 	stw	r2,112(sp)
   2f1f0:	d9001b15 	stw	r4,108(sp)
   2f1f4:	00c001c4 	movi	r3,7
   2f1f8:	1901dd0e 	bge	r3,r4,2f970 <___vfiprintf_internal_r+0xd88>
   2f1fc:	1002401e 	bne	r2,zero,2fb00 <___vfiprintf_internal_r+0xf18>
   2f200:	d8001b15 	stw	zero,108(sp)
   2f204:	a2c0010c 	andi	r11,r20,4
   2f208:	58000226 	beq	r11,zero,2f214 <___vfiprintf_internal_r+0x62c>
   2f20c:	8ca7c83a 	sub	r19,r17,r18
   2f210:	04c2f216 	blt	zero,r19,2fddc <___vfiprintf_internal_r+0x11f4>
   2f214:	8c80010e 	bge	r17,r18,2f21c <___vfiprintf_internal_r+0x634>
   2f218:	9023883a 	mov	r17,r18
   2f21c:	da802317 	ldw	r10,140(sp)
   2f220:	5455883a 	add	r10,r10,r17
   2f224:	da802315 	stw	r10,140(sp)
   2f228:	d8001b15 	stw	zero,108(sp)
   2f22c:	d811883a 	mov	r8,sp
   2f230:	003ea206 	br	2ecbc <__alt_data_end+0xfffeecbc>
   2f234:	a5000814 	ori	r20,r20,32
   2f238:	80c00007 	ldb	r3,0(r16)
   2f23c:	003ec906 	br	2ed64 <__alt_data_end+0xfffeed64>
   2f240:	80c00007 	ldb	r3,0(r16)
   2f244:	1b030926 	beq	r3,r12,2fe6c <___vfiprintf_internal_r+0x1284>
   2f248:	a5000414 	ori	r20,r20,16
   2f24c:	003ec506 	br	2ed64 <__alt_data_end+0xfffeed64>
   2f250:	21003fcc 	andi	r4,r4,255
   2f254:	20035e1e 	bne	r4,zero,2ffd0 <___vfiprintf_internal_r+0x13e8>
   2f258:	a080080c 	andi	r2,r20,32
   2f25c:	1002a526 	beq	r2,zero,2fcf4 <___vfiprintf_internal_r+0x110c>
   2f260:	da802217 	ldw	r10,136(sp)
   2f264:	50800017 	ldw	r2,0(r10)
   2f268:	da802317 	ldw	r10,140(sp)
   2f26c:	5007d7fa 	srai	r3,r10,31
   2f270:	da802217 	ldw	r10,136(sp)
   2f274:	10c00115 	stw	r3,4(r2)
   2f278:	52800104 	addi	r10,r10,4
   2f27c:	da802215 	stw	r10,136(sp)
   2f280:	da802317 	ldw	r10,140(sp)
   2f284:	12800015 	stw	r10,0(r2)
   2f288:	003e8c06 	br	2ecbc <__alt_data_end+0xfffeecbc>
   2f28c:	21003fcc 	andi	r4,r4,255
   2f290:	2003511e 	bne	r4,zero,2ffd8 <___vfiprintf_internal_r+0x13f0>
   2f294:	a080080c 	andi	r2,r20,32
   2f298:	1000a126 	beq	r2,zero,2f520 <___vfiprintf_internal_r+0x938>
   2f29c:	da802217 	ldw	r10,136(sp)
   2f2a0:	d8001d85 	stb	zero,118(sp)
   2f2a4:	50800204 	addi	r2,r10,8
   2f2a8:	54800017 	ldw	r18,0(r10)
   2f2ac:	54c00117 	ldw	r19,4(r10)
   2f2b0:	4802b416 	blt	r9,zero,2fd84 <___vfiprintf_internal_r+0x119c>
   2f2b4:	013fdfc4 	movi	r4,-129
   2f2b8:	94c6b03a 	or	r3,r18,r19
   2f2bc:	d8802215 	stw	r2,136(sp)
   2f2c0:	a128703a 	and	r20,r20,r4
   2f2c4:	1800a226 	beq	r3,zero,2f550 <___vfiprintf_internal_r+0x968>
   2f2c8:	0039883a 	mov	fp,zero
   2f2cc:	dd401a04 	addi	r21,sp,104
   2f2d0:	9006d0fa 	srli	r3,r18,3
   2f2d4:	9808977a 	slli	r4,r19,29
   2f2d8:	9826d0fa 	srli	r19,r19,3
   2f2dc:	948001cc 	andi	r18,r18,7
   2f2e0:	90800c04 	addi	r2,r18,48
   2f2e4:	ad7fffc4 	addi	r21,r21,-1
   2f2e8:	20e4b03a 	or	r18,r4,r3
   2f2ec:	a8800005 	stb	r2,0(r21)
   2f2f0:	94c6b03a 	or	r3,r18,r19
   2f2f4:	183ff61e 	bne	r3,zero,2f2d0 <__alt_data_end+0xfffef2d0>
   2f2f8:	a0c0004c 	andi	r3,r20,1
   2f2fc:	18005926 	beq	r3,zero,2f464 <___vfiprintf_internal_r+0x87c>
   2f300:	10803fcc 	andi	r2,r2,255
   2f304:	1080201c 	xori	r2,r2,128
   2f308:	10bfe004 	addi	r2,r2,-128
   2f30c:	00c00c04 	movi	r3,48
   2f310:	10c05426 	beq	r2,r3,2f464 <___vfiprintf_internal_r+0x87c>
   2f314:	da801e17 	ldw	r10,120(sp)
   2f318:	a8bfffc4 	addi	r2,r21,-1
   2f31c:	a8ffffc5 	stb	r3,-1(r21)
   2f320:	50a7c83a 	sub	r19,r10,r2
   2f324:	102b883a 	mov	r21,r2
   2f328:	003f2f06 	br	2efe8 <__alt_data_end+0xfffeefe8>
   2f32c:	21003fcc 	andi	r4,r4,255
   2f330:	2003421e 	bne	r4,zero,3003c <___vfiprintf_internal_r+0x1454>
   2f334:	008000f4 	movhi	r2,3
   2f338:	10953d04 	addi	r2,r2,21748
   2f33c:	d8802615 	stw	r2,152(sp)
   2f340:	a080080c 	andi	r2,r20,32
   2f344:	1000aa26 	beq	r2,zero,2f5f0 <___vfiprintf_internal_r+0xa08>
   2f348:	da802217 	ldw	r10,136(sp)
   2f34c:	54800017 	ldw	r18,0(r10)
   2f350:	54c00117 	ldw	r19,4(r10)
   2f354:	52800204 	addi	r10,r10,8
   2f358:	da802215 	stw	r10,136(sp)
   2f35c:	a080004c 	andi	r2,r20,1
   2f360:	1001d226 	beq	r2,zero,2faac <___vfiprintf_internal_r+0xec4>
   2f364:	94c4b03a 	or	r2,r18,r19
   2f368:	1002351e 	bne	r2,zero,2fc40 <___vfiprintf_internal_r+0x1058>
   2f36c:	d8001d85 	stb	zero,118(sp)
   2f370:	48022216 	blt	r9,zero,2fbfc <___vfiprintf_internal_r+0x1014>
   2f374:	00bfdfc4 	movi	r2,-129
   2f378:	a0a8703a 	and	r20,r20,r2
   2f37c:	003f1506 	br	2efd4 <__alt_data_end+0xfffeefd4>
   2f380:	da802217 	ldw	r10,136(sp)
   2f384:	04800044 	movi	r18,1
   2f388:	d8001d85 	stb	zero,118(sp)
   2f38c:	50800017 	ldw	r2,0(r10)
   2f390:	52800104 	addi	r10,r10,4
   2f394:	da802215 	stw	r10,136(sp)
   2f398:	d8801005 	stb	r2,64(sp)
   2f39c:	9027883a 	mov	r19,r18
   2f3a0:	dd401004 	addi	r21,sp,64
   2f3a4:	0013883a 	mov	r9,zero
   2f3a8:	003f1706 	br	2f008 <__alt_data_end+0xfffef008>
   2f3ac:	21003fcc 	andi	r4,r4,255
   2f3b0:	2003201e 	bne	r4,zero,30034 <___vfiprintf_internal_r+0x144c>
   2f3b4:	a080080c 	andi	r2,r20,32
   2f3b8:	10004b26 	beq	r2,zero,2f4e8 <___vfiprintf_internal_r+0x900>
   2f3bc:	da802217 	ldw	r10,136(sp)
   2f3c0:	50800117 	ldw	r2,4(r10)
   2f3c4:	54800017 	ldw	r18,0(r10)
   2f3c8:	52800204 	addi	r10,r10,8
   2f3cc:	da802215 	stw	r10,136(sp)
   2f3d0:	1027883a 	mov	r19,r2
   2f3d4:	10022c16 	blt	r2,zero,2fc88 <___vfiprintf_internal_r+0x10a0>
   2f3d8:	df001d83 	ldbu	fp,118(sp)
   2f3dc:	48007216 	blt	r9,zero,2f5a8 <___vfiprintf_internal_r+0x9c0>
   2f3e0:	00ffdfc4 	movi	r3,-129
   2f3e4:	94c4b03a 	or	r2,r18,r19
   2f3e8:	a0e8703a 	and	r20,r20,r3
   2f3ec:	1000cc26 	beq	r2,zero,2f720 <___vfiprintf_internal_r+0xb38>
   2f3f0:	98021026 	beq	r19,zero,2fc34 <___vfiprintf_internal_r+0x104c>
   2f3f4:	dc402415 	stw	r17,144(sp)
   2f3f8:	dc002515 	stw	r16,148(sp)
   2f3fc:	9823883a 	mov	r17,r19
   2f400:	9021883a 	mov	r16,r18
   2f404:	dd401a04 	addi	r21,sp,104
   2f408:	4825883a 	mov	r18,r9
   2f40c:	4027883a 	mov	r19,r8
   2f410:	8009883a 	mov	r4,r16
   2f414:	880b883a 	mov	r5,r17
   2f418:	01800284 	movi	r6,10
   2f41c:	000f883a 	mov	r7,zero
   2f420:	0030da40 	call	30da4 <__umoddi3>
   2f424:	10800c04 	addi	r2,r2,48
   2f428:	ad7fffc4 	addi	r21,r21,-1
   2f42c:	8009883a 	mov	r4,r16
   2f430:	880b883a 	mov	r5,r17
   2f434:	a8800005 	stb	r2,0(r21)
   2f438:	01800284 	movi	r6,10
   2f43c:	000f883a 	mov	r7,zero
   2f440:	003082c0 	call	3082c <__udivdi3>
   2f444:	1021883a 	mov	r16,r2
   2f448:	10c4b03a 	or	r2,r2,r3
   2f44c:	1823883a 	mov	r17,r3
   2f450:	103fef1e 	bne	r2,zero,2f410 <__alt_data_end+0xfffef410>
   2f454:	dc402417 	ldw	r17,144(sp)
   2f458:	dc002517 	ldw	r16,148(sp)
   2f45c:	9013883a 	mov	r9,r18
   2f460:	9811883a 	mov	r8,r19
   2f464:	da801e17 	ldw	r10,120(sp)
   2f468:	5567c83a 	sub	r19,r10,r21
   2f46c:	003ede06 	br	2efe8 <__alt_data_end+0xfffeefe8>
   2f470:	38803fcc 	andi	r2,r7,255
   2f474:	1080201c 	xori	r2,r2,128
   2f478:	10bfe004 	addi	r2,r2,-128
   2f47c:	1002371e 	bne	r2,zero,2fd5c <___vfiprintf_internal_r+0x1174>
   2f480:	01000044 	movi	r4,1
   2f484:	01c00804 	movi	r7,32
   2f488:	80c00007 	ldb	r3,0(r16)
   2f48c:	003e3506 	br	2ed64 <__alt_data_end+0xfffeed64>
   2f490:	a5000054 	ori	r20,r20,1
   2f494:	80c00007 	ldb	r3,0(r16)
   2f498:	003e3206 	br	2ed64 <__alt_data_end+0xfffeed64>
   2f49c:	a5002014 	ori	r20,r20,128
   2f4a0:	80c00007 	ldb	r3,0(r16)
   2f4a4:	003e2f06 	br	2ed64 <__alt_data_end+0xfffeed64>
   2f4a8:	8015883a 	mov	r10,r16
   2f4ac:	0023883a 	mov	r17,zero
   2f4b0:	18bff404 	addi	r2,r3,-48
   2f4b4:	50c00007 	ldb	r3,0(r10)
   2f4b8:	8c4002a4 	muli	r17,r17,10
   2f4bc:	84000044 	addi	r16,r16,1
   2f4c0:	8015883a 	mov	r10,r16
   2f4c4:	1463883a 	add	r17,r2,r17
   2f4c8:	18bff404 	addi	r2,r3,-48
   2f4cc:	30bff92e 	bgeu	r6,r2,2f4b4 <__alt_data_end+0xfffef4b4>
   2f4d0:	003e2506 	br	2ed68 <__alt_data_end+0xfffeed68>
   2f4d4:	21003fcc 	andi	r4,r4,255
   2f4d8:	2002d41e 	bne	r4,zero,3002c <___vfiprintf_internal_r+0x1444>
   2f4dc:	a5000414 	ori	r20,r20,16
   2f4e0:	a080080c 	andi	r2,r20,32
   2f4e4:	103fb51e 	bne	r2,zero,2f3bc <__alt_data_end+0xfffef3bc>
   2f4e8:	a080040c 	andi	r2,r20,16
   2f4ec:	1001f826 	beq	r2,zero,2fcd0 <___vfiprintf_internal_r+0x10e8>
   2f4f0:	da802217 	ldw	r10,136(sp)
   2f4f4:	54800017 	ldw	r18,0(r10)
   2f4f8:	52800104 	addi	r10,r10,4
   2f4fc:	da802215 	stw	r10,136(sp)
   2f500:	9027d7fa 	srai	r19,r18,31
   2f504:	9805883a 	mov	r2,r19
   2f508:	003fb206 	br	2f3d4 <__alt_data_end+0xfffef3d4>
   2f50c:	21003fcc 	andi	r4,r4,255
   2f510:	2002c41e 	bne	r4,zero,30024 <___vfiprintf_internal_r+0x143c>
   2f514:	a5000414 	ori	r20,r20,16
   2f518:	a080080c 	andi	r2,r20,32
   2f51c:	103f5f1e 	bne	r2,zero,2f29c <__alt_data_end+0xfffef29c>
   2f520:	a080040c 	andi	r2,r20,16
   2f524:	10020f26 	beq	r2,zero,2fd64 <___vfiprintf_internal_r+0x117c>
   2f528:	da802217 	ldw	r10,136(sp)
   2f52c:	d8001d85 	stb	zero,118(sp)
   2f530:	0027883a 	mov	r19,zero
   2f534:	50800104 	addi	r2,r10,4
   2f538:	54800017 	ldw	r18,0(r10)
   2f53c:	48021116 	blt	r9,zero,2fd84 <___vfiprintf_internal_r+0x119c>
   2f540:	00ffdfc4 	movi	r3,-129
   2f544:	d8802215 	stw	r2,136(sp)
   2f548:	a0e8703a 	and	r20,r20,r3
   2f54c:	903f5e1e 	bne	r18,zero,2f2c8 <__alt_data_end+0xfffef2c8>
   2f550:	0039883a 	mov	fp,zero
   2f554:	4802a626 	beq	r9,zero,2fff0 <___vfiprintf_internal_r+0x1408>
   2f558:	0025883a 	mov	r18,zero
   2f55c:	0027883a 	mov	r19,zero
   2f560:	003f5a06 	br	2f2cc <__alt_data_end+0xfffef2cc>
   2f564:	21003fcc 	andi	r4,r4,255
   2f568:	20029f1e 	bne	r4,zero,2ffe8 <___vfiprintf_internal_r+0x1400>
   2f56c:	a5000414 	ori	r20,r20,16
   2f570:	a080080c 	andi	r2,r20,32
   2f574:	10005e1e 	bne	r2,zero,2f6f0 <___vfiprintf_internal_r+0xb08>
   2f578:	a080040c 	andi	r2,r20,16
   2f57c:	1001a21e 	bne	r2,zero,2fc08 <___vfiprintf_internal_r+0x1020>
   2f580:	a080100c 	andi	r2,r20,64
   2f584:	d8001d85 	stb	zero,118(sp)
   2f588:	da802217 	ldw	r10,136(sp)
   2f58c:	1002231e 	bne	r2,zero,2fe1c <___vfiprintf_internal_r+0x1234>
   2f590:	50800104 	addi	r2,r10,4
   2f594:	54800017 	ldw	r18,0(r10)
   2f598:	0027883a 	mov	r19,zero
   2f59c:	4801a00e 	bge	r9,zero,2fc20 <___vfiprintf_internal_r+0x1038>
   2f5a0:	d8802215 	stw	r2,136(sp)
   2f5a4:	0039883a 	mov	fp,zero
   2f5a8:	94c4b03a 	or	r2,r18,r19
   2f5ac:	103f901e 	bne	r2,zero,2f3f0 <__alt_data_end+0xfffef3f0>
   2f5b0:	00800044 	movi	r2,1
   2f5b4:	10803fcc 	andi	r2,r2,255
   2f5b8:	00c00044 	movi	r3,1
   2f5bc:	10c05926 	beq	r2,r3,2f724 <___vfiprintf_internal_r+0xb3c>
   2f5c0:	00c00084 	movi	r3,2
   2f5c4:	10ffe41e 	bne	r2,r3,2f558 <__alt_data_end+0xfffef558>
   2f5c8:	0025883a 	mov	r18,zero
   2f5cc:	0027883a 	mov	r19,zero
   2f5d0:	00013d06 	br	2fac8 <___vfiprintf_internal_r+0xee0>
   2f5d4:	21003fcc 	andi	r4,r4,255
   2f5d8:	2002811e 	bne	r4,zero,2ffe0 <___vfiprintf_internal_r+0x13f8>
   2f5dc:	008000f4 	movhi	r2,3
   2f5e0:	10953804 	addi	r2,r2,21728
   2f5e4:	d8802615 	stw	r2,152(sp)
   2f5e8:	a080080c 	andi	r2,r20,32
   2f5ec:	103f561e 	bne	r2,zero,2f348 <__alt_data_end+0xfffef348>
   2f5f0:	a080040c 	andi	r2,r20,16
   2f5f4:	1001d126 	beq	r2,zero,2fd3c <___vfiprintf_internal_r+0x1154>
   2f5f8:	da802217 	ldw	r10,136(sp)
   2f5fc:	0027883a 	mov	r19,zero
   2f600:	54800017 	ldw	r18,0(r10)
   2f604:	52800104 	addi	r10,r10,4
   2f608:	da802215 	stw	r10,136(sp)
   2f60c:	003f5306 	br	2f35c <__alt_data_end+0xfffef35c>
   2f610:	da802217 	ldw	r10,136(sp)
   2f614:	d8001d85 	stb	zero,118(sp)
   2f618:	55400017 	ldw	r21,0(r10)
   2f61c:	50c00104 	addi	r3,r10,4
   2f620:	a8024226 	beq	r21,zero,2ff2c <___vfiprintf_internal_r+0x1344>
   2f624:	48021816 	blt	r9,zero,2fe88 <___vfiprintf_internal_r+0x12a0>
   2f628:	480d883a 	mov	r6,r9
   2f62c:	000b883a 	mov	r5,zero
   2f630:	a809883a 	mov	r4,r21
   2f634:	d8c02a15 	stw	r3,168(sp)
   2f638:	da002b15 	stw	r8,172(sp)
   2f63c:	da402c15 	stw	r9,176(sp)
   2f640:	002bac80 	call	2bac8 <memchr>
   2f644:	d8c02a17 	ldw	r3,168(sp)
   2f648:	da002b17 	ldw	r8,172(sp)
   2f64c:	da402c17 	ldw	r9,176(sp)
   2f650:	10024826 	beq	r2,zero,2ff74 <___vfiprintf_internal_r+0x138c>
   2f654:	1567c83a 	sub	r19,r2,r21
   2f658:	df001d83 	ldbu	fp,118(sp)
   2f65c:	d8c02215 	stw	r3,136(sp)
   2f660:	0013883a 	mov	r9,zero
   2f664:	003e6006 	br	2efe8 <__alt_data_end+0xfffeefe8>
   2f668:	21003fcc 	andi	r4,r4,255
   2f66c:	203fc026 	beq	r4,zero,2f570 <__alt_data_end+0xfffef570>
   2f670:	d9c01d85 	stb	r7,118(sp)
   2f674:	003fbe06 	br	2f570 <__alt_data_end+0xfffef570>
   2f678:	da802217 	ldw	r10,136(sp)
   2f67c:	54400017 	ldw	r17,0(r10)
   2f680:	50800104 	addi	r2,r10,4
   2f684:	883e3b16 	blt	r17,zero,2ef74 <__alt_data_end+0xfffeef74>
   2f688:	d8802215 	stw	r2,136(sp)
   2f68c:	80c00007 	ldb	r3,0(r16)
   2f690:	003db406 	br	2ed64 <__alt_data_end+0xfffeed64>
   2f694:	01000044 	movi	r4,1
   2f698:	01c00ac4 	movi	r7,43
   2f69c:	80c00007 	ldb	r3,0(r16)
   2f6a0:	003db006 	br	2ed64 <__alt_data_end+0xfffeed64>
   2f6a4:	80c00007 	ldb	r3,0(r16)
   2f6a8:	82800044 	addi	r10,r16,1
   2f6ac:	1b423c26 	beq	r3,r13,2ffa0 <___vfiprintf_internal_r+0x13b8>
   2f6b0:	18bff404 	addi	r2,r3,-48
   2f6b4:	0013883a 	mov	r9,zero
   2f6b8:	30822b36 	bltu	r6,r2,2ff68 <___vfiprintf_internal_r+0x1380>
   2f6bc:	50c00007 	ldb	r3,0(r10)
   2f6c0:	4a4002a4 	muli	r9,r9,10
   2f6c4:	54000044 	addi	r16,r10,1
   2f6c8:	8015883a 	mov	r10,r16
   2f6cc:	4893883a 	add	r9,r9,r2
   2f6d0:	18bff404 	addi	r2,r3,-48
   2f6d4:	30bff92e 	bgeu	r6,r2,2f6bc <__alt_data_end+0xfffef6bc>
   2f6d8:	483da30e 	bge	r9,zero,2ed68 <__alt_data_end+0xfffeed68>
   2f6dc:	027fffc4 	movi	r9,-1
   2f6e0:	003da106 	br	2ed68 <__alt_data_end+0xfffeed68>
   2f6e4:	a5001014 	ori	r20,r20,64
   2f6e8:	80c00007 	ldb	r3,0(r16)
   2f6ec:	003d9d06 	br	2ed64 <__alt_data_end+0xfffeed64>
   2f6f0:	da802217 	ldw	r10,136(sp)
   2f6f4:	d8001d85 	stb	zero,118(sp)
   2f6f8:	50c00204 	addi	r3,r10,8
   2f6fc:	54800017 	ldw	r18,0(r10)
   2f700:	54c00117 	ldw	r19,4(r10)
   2f704:	4801ca16 	blt	r9,zero,2fe30 <___vfiprintf_internal_r+0x1248>
   2f708:	013fdfc4 	movi	r4,-129
   2f70c:	94c4b03a 	or	r2,r18,r19
   2f710:	d8c02215 	stw	r3,136(sp)
   2f714:	a128703a 	and	r20,r20,r4
   2f718:	0039883a 	mov	fp,zero
   2f71c:	103f341e 	bne	r2,zero,2f3f0 <__alt_data_end+0xfffef3f0>
   2f720:	483e2e26 	beq	r9,zero,2efdc <__alt_data_end+0xfffeefdc>
   2f724:	0025883a 	mov	r18,zero
   2f728:	94800c04 	addi	r18,r18,48
   2f72c:	dc8019c5 	stb	r18,103(sp)
   2f730:	dcc02717 	ldw	r19,156(sp)
   2f734:	dd4019c4 	addi	r21,sp,103
   2f738:	003e2b06 	br	2efe8 <__alt_data_end+0xfffeefe8>
   2f73c:	21003fcc 	andi	r4,r4,255
   2f740:	2002361e 	bne	r4,zero,3001c <___vfiprintf_internal_r+0x1434>
   2f744:	1801c126 	beq	r3,zero,2fe4c <___vfiprintf_internal_r+0x1264>
   2f748:	04800044 	movi	r18,1
   2f74c:	d8c01005 	stb	r3,64(sp)
   2f750:	d8001d85 	stb	zero,118(sp)
   2f754:	9027883a 	mov	r19,r18
   2f758:	dd401004 	addi	r21,sp,64
   2f75c:	003f1106 	br	2f3a4 <__alt_data_end+0xfffef3a4>
   2f760:	d9402117 	ldw	r5,132(sp)
   2f764:	d9002017 	ldw	r4,128(sp)
   2f768:	d9801a04 	addi	r6,sp,104
   2f76c:	d9c02b15 	stw	r7,172(sp)
   2f770:	dbc02a15 	stw	r15,168(sp)
   2f774:	002ead40 	call	2ead4 <__sprint_r.part.0>
   2f778:	d9c02b17 	ldw	r7,172(sp)
   2f77c:	dbc02a17 	ldw	r15,168(sp)
   2f780:	10006d1e 	bne	r2,zero,2f938 <___vfiprintf_internal_r+0xd50>
   2f784:	d9801b17 	ldw	r6,108(sp)
   2f788:	d8801c17 	ldw	r2,112(sp)
   2f78c:	d811883a 	mov	r8,sp
   2f790:	31400044 	addi	r5,r6,1
   2f794:	003e3306 	br	2f064 <__alt_data_end+0xfffef064>
   2f798:	d9401b17 	ldw	r5,108(sp)
   2f79c:	d8801c17 	ldw	r2,112(sp)
   2f7a0:	29000044 	addi	r4,r5,1
   2f7a4:	d8c01d87 	ldb	r3,118(sp)
   2f7a8:	183e4d26 	beq	r3,zero,2f0e0 <__alt_data_end+0xfffef0e0>
   2f7ac:	00c00044 	movi	r3,1
   2f7b0:	d9401d84 	addi	r5,sp,118
   2f7b4:	10c5883a 	add	r2,r2,r3
   2f7b8:	41400015 	stw	r5,0(r8)
   2f7bc:	40c00115 	stw	r3,4(r8)
   2f7c0:	d8801c15 	stw	r2,112(sp)
   2f7c4:	d9001b15 	stw	r4,108(sp)
   2f7c8:	014001c4 	movi	r5,7
   2f7cc:	2900a90e 	bge	r5,r4,2fa74 <___vfiprintf_internal_r+0xe8c>
   2f7d0:	1000da1e 	bne	r2,zero,2fb3c <___vfiprintf_internal_r+0xf54>
   2f7d4:	7000ab1e 	bne	r14,zero,2fa84 <___vfiprintf_internal_r+0xe9c>
   2f7d8:	000b883a 	mov	r5,zero
   2f7dc:	1809883a 	mov	r4,r3
   2f7e0:	d811883a 	mov	r8,sp
   2f7e4:	00c02004 	movi	r3,128
   2f7e8:	e0fe4d26 	beq	fp,r3,2f120 <__alt_data_end+0xfffef120>
   2f7ec:	4cf9c83a 	sub	fp,r9,r19
   2f7f0:	073e7b0e 	bge	zero,fp,2f1e0 <__alt_data_end+0xfffef1e0>
   2f7f4:	01c00404 	movi	r7,16
   2f7f8:	3f01900e 	bge	r7,fp,2fe3c <___vfiprintf_internal_r+0x1254>
   2f7fc:	00c000f4 	movhi	r3,3
   2f800:	18d5ad04 	addi	r3,r3,22196
   2f804:	d8c02415 	stw	r3,144(sp)
   2f808:	034001c4 	movi	r13,7
   2f80c:	00000506 	br	2f824 <___vfiprintf_internal_r+0xc3c>
   2f810:	29000084 	addi	r4,r5,2
   2f814:	42000204 	addi	r8,r8,8
   2f818:	180b883a 	mov	r5,r3
   2f81c:	e73ffc04 	addi	fp,fp,-16
   2f820:	3f000d0e 	bge	r7,fp,2f858 <___vfiprintf_internal_r+0xc70>
   2f824:	10800404 	addi	r2,r2,16
   2f828:	28c00044 	addi	r3,r5,1
   2f82c:	45c00015 	stw	r23,0(r8)
   2f830:	41c00115 	stw	r7,4(r8)
   2f834:	d8801c15 	stw	r2,112(sp)
   2f838:	d8c01b15 	stw	r3,108(sp)
   2f83c:	68fff40e 	bge	r13,r3,2f810 <__alt_data_end+0xfffef810>
   2f840:	1000101e 	bne	r2,zero,2f884 <___vfiprintf_internal_r+0xc9c>
   2f844:	e73ffc04 	addi	fp,fp,-16
   2f848:	01000044 	movi	r4,1
   2f84c:	000b883a 	mov	r5,zero
   2f850:	d811883a 	mov	r8,sp
   2f854:	3f3ff316 	blt	r7,fp,2f824 <__alt_data_end+0xfffef824>
   2f858:	da802417 	ldw	r10,144(sp)
   2f85c:	1705883a 	add	r2,r2,fp
   2f860:	47000115 	stw	fp,4(r8)
   2f864:	42800015 	stw	r10,0(r8)
   2f868:	d8801c15 	stw	r2,112(sp)
   2f86c:	d9001b15 	stw	r4,108(sp)
   2f870:	00c001c4 	movi	r3,7
   2f874:	19003616 	blt	r3,r4,2f950 <___vfiprintf_internal_r+0xd68>
   2f878:	42000204 	addi	r8,r8,8
   2f87c:	21000044 	addi	r4,r4,1
   2f880:	003e5706 	br	2f1e0 <__alt_data_end+0xfffef1e0>
   2f884:	d9402117 	ldw	r5,132(sp)
   2f888:	d9002017 	ldw	r4,128(sp)
   2f88c:	d9801a04 	addi	r6,sp,104
   2f890:	d9c02b15 	stw	r7,172(sp)
   2f894:	db402a15 	stw	r13,168(sp)
   2f898:	002ead40 	call	2ead4 <__sprint_r.part.0>
   2f89c:	d9c02b17 	ldw	r7,172(sp)
   2f8a0:	db402a17 	ldw	r13,168(sp)
   2f8a4:	1000241e 	bne	r2,zero,2f938 <___vfiprintf_internal_r+0xd50>
   2f8a8:	d9401b17 	ldw	r5,108(sp)
   2f8ac:	d8801c17 	ldw	r2,112(sp)
   2f8b0:	d811883a 	mov	r8,sp
   2f8b4:	29000044 	addi	r4,r5,1
   2f8b8:	003fd806 	br	2f81c <__alt_data_end+0xfffef81c>
   2f8bc:	d9401b17 	ldw	r5,108(sp)
   2f8c0:	00c000f4 	movhi	r3,3
   2f8c4:	18d5b104 	addi	r3,r3,22212
   2f8c8:	d8c02415 	stw	r3,144(sp)
   2f8cc:	29400044 	addi	r5,r5,1
   2f8d0:	d8c02417 	ldw	r3,144(sp)
   2f8d4:	14c5883a 	add	r2,r2,r19
   2f8d8:	44c00115 	stw	r19,4(r8)
   2f8dc:	40c00015 	stw	r3,0(r8)
   2f8e0:	d8801c15 	stw	r2,112(sp)
   2f8e4:	d9401b15 	stw	r5,108(sp)
   2f8e8:	00c001c4 	movi	r3,7
   2f8ec:	1940070e 	bge	r3,r5,2f90c <___vfiprintf_internal_r+0xd24>
   2f8f0:	103e4826 	beq	r2,zero,2f214 <__alt_data_end+0xfffef214>
   2f8f4:	d9402117 	ldw	r5,132(sp)
   2f8f8:	d9002017 	ldw	r4,128(sp)
   2f8fc:	d9801a04 	addi	r6,sp,104
   2f900:	002ead40 	call	2ead4 <__sprint_r.part.0>
   2f904:	10000c1e 	bne	r2,zero,2f938 <___vfiprintf_internal_r+0xd50>
   2f908:	d8801c17 	ldw	r2,112(sp)
   2f90c:	8c80010e 	bge	r17,r18,2f914 <___vfiprintf_internal_r+0xd2c>
   2f910:	9023883a 	mov	r17,r18
   2f914:	da802317 	ldw	r10,140(sp)
   2f918:	5455883a 	add	r10,r10,r17
   2f91c:	da802315 	stw	r10,140(sp)
   2f920:	103e4126 	beq	r2,zero,2f228 <__alt_data_end+0xfffef228>
   2f924:	d9402117 	ldw	r5,132(sp)
   2f928:	d9002017 	ldw	r4,128(sp)
   2f92c:	d9801a04 	addi	r6,sp,104
   2f930:	002ead40 	call	2ead4 <__sprint_r.part.0>
   2f934:	103e3c26 	beq	r2,zero,2f228 <__alt_data_end+0xfffef228>
   2f938:	dd002117 	ldw	r20,132(sp)
   2f93c:	a080030b 	ldhu	r2,12(r20)
   2f940:	1080100c 	andi	r2,r2,64
   2f944:	1001231e 	bne	r2,zero,2fdd4 <___vfiprintf_internal_r+0x11ec>
   2f948:	d8802317 	ldw	r2,140(sp)
   2f94c:	003d7b06 	br	2ef3c <__alt_data_end+0xfffeef3c>
   2f950:	1000991e 	bne	r2,zero,2fbb8 <___vfiprintf_internal_r+0xfd0>
   2f954:	00c00044 	movi	r3,1
   2f958:	9805883a 	mov	r2,r19
   2f95c:	dd400015 	stw	r21,0(sp)
   2f960:	dcc00115 	stw	r19,4(sp)
   2f964:	dcc01c15 	stw	r19,112(sp)
   2f968:	d8c01b15 	stw	r3,108(sp)
   2f96c:	d811883a 	mov	r8,sp
   2f970:	42000204 	addi	r8,r8,8
   2f974:	a2c0010c 	andi	r11,r20,4
   2f978:	583fe426 	beq	r11,zero,2f90c <__alt_data_end+0xfffef90c>
   2f97c:	8ca7c83a 	sub	r19,r17,r18
   2f980:	04ffe20e 	bge	zero,r19,2f90c <__alt_data_end+0xfffef90c>
   2f984:	01c00404 	movi	r7,16
   2f988:	3cffcc0e 	bge	r7,r19,2f8bc <__alt_data_end+0xfffef8bc>
   2f98c:	028000f4 	movhi	r10,3
   2f990:	5295b104 	addi	r10,r10,22212
   2f994:	d9001b17 	ldw	r4,108(sp)
   2f998:	da802415 	stw	r10,144(sp)
   2f99c:	382b883a 	mov	r21,r7
   2f9a0:	050001c4 	movi	r20,7
   2f9a4:	df002017 	ldw	fp,128(sp)
   2f9a8:	00000506 	br	2f9c0 <___vfiprintf_internal_r+0xdd8>
   2f9ac:	21400084 	addi	r5,r4,2
   2f9b0:	42000204 	addi	r8,r8,8
   2f9b4:	1809883a 	mov	r4,r3
   2f9b8:	9cfffc04 	addi	r19,r19,-16
   2f9bc:	acffc40e 	bge	r21,r19,2f8d0 <__alt_data_end+0xfffef8d0>
   2f9c0:	10800404 	addi	r2,r2,16
   2f9c4:	20c00044 	addi	r3,r4,1
   2f9c8:	45800015 	stw	r22,0(r8)
   2f9cc:	45400115 	stw	r21,4(r8)
   2f9d0:	d8801c15 	stw	r2,112(sp)
   2f9d4:	d8c01b15 	stw	r3,108(sp)
   2f9d8:	a0fff40e 	bge	r20,r3,2f9ac <__alt_data_end+0xfffef9ac>
   2f9dc:	1000041e 	bne	r2,zero,2f9f0 <___vfiprintf_internal_r+0xe08>
   2f9e0:	01400044 	movi	r5,1
   2f9e4:	0009883a 	mov	r4,zero
   2f9e8:	d811883a 	mov	r8,sp
   2f9ec:	003ff206 	br	2f9b8 <__alt_data_end+0xfffef9b8>
   2f9f0:	d9402117 	ldw	r5,132(sp)
   2f9f4:	d9801a04 	addi	r6,sp,104
   2f9f8:	e009883a 	mov	r4,fp
   2f9fc:	002ead40 	call	2ead4 <__sprint_r.part.0>
   2fa00:	103fcd1e 	bne	r2,zero,2f938 <__alt_data_end+0xfffef938>
   2fa04:	d9001b17 	ldw	r4,108(sp)
   2fa08:	d8801c17 	ldw	r2,112(sp)
   2fa0c:	d811883a 	mov	r8,sp
   2fa10:	21400044 	addi	r5,r4,1
   2fa14:	003fe806 	br	2f9b8 <__alt_data_end+0xfffef9b8>
   2fa18:	d9402117 	ldw	r5,132(sp)
   2fa1c:	d9002017 	ldw	r4,128(sp)
   2fa20:	d9801a04 	addi	r6,sp,104
   2fa24:	d9c02b15 	stw	r7,172(sp)
   2fa28:	db402a15 	stw	r13,168(sp)
   2fa2c:	002ead40 	call	2ead4 <__sprint_r.part.0>
   2fa30:	d9c02b17 	ldw	r7,172(sp)
   2fa34:	db402a17 	ldw	r13,168(sp)
   2fa38:	103fbf1e 	bne	r2,zero,2f938 <__alt_data_end+0xfffef938>
   2fa3c:	d9401b17 	ldw	r5,108(sp)
   2fa40:	d8801c17 	ldw	r2,112(sp)
   2fa44:	d811883a 	mov	r8,sp
   2fa48:	29800044 	addi	r6,r5,1
   2fa4c:	003dc406 	br	2f160 <__alt_data_end+0xfffef160>
   2fa50:	1000d21e 	bne	r2,zero,2fd9c <___vfiprintf_internal_r+0x11b4>
   2fa54:	d8c01d87 	ldb	r3,118(sp)
   2fa58:	18009526 	beq	r3,zero,2fcb0 <___vfiprintf_internal_r+0x10c8>
   2fa5c:	00800044 	movi	r2,1
   2fa60:	d8c01d84 	addi	r3,sp,118
   2fa64:	1009883a 	mov	r4,r2
   2fa68:	d8c00015 	stw	r3,0(sp)
   2fa6c:	d8800115 	stw	r2,4(sp)
   2fa70:	d811883a 	mov	r8,sp
   2fa74:	200b883a 	mov	r5,r4
   2fa78:	42000204 	addi	r8,r8,8
   2fa7c:	21000044 	addi	r4,r4,1
   2fa80:	003d9706 	br	2f0e0 <__alt_data_end+0xfffef0e0>
   2fa84:	d9001d04 	addi	r4,sp,116
   2fa88:	00800084 	movi	r2,2
   2fa8c:	d9000015 	stw	r4,0(sp)
   2fa90:	d8800115 	stw	r2,4(sp)
   2fa94:	1809883a 	mov	r4,r3
   2fa98:	d811883a 	mov	r8,sp
   2fa9c:	200b883a 	mov	r5,r4
   2faa0:	42000204 	addi	r8,r8,8
   2faa4:	21000044 	addi	r4,r4,1
   2faa8:	003f4e06 	br	2f7e4 <__alt_data_end+0xfffef7e4>
   2faac:	d8001d85 	stb	zero,118(sp)
   2fab0:	48005016 	blt	r9,zero,2fbf4 <___vfiprintf_internal_r+0x100c>
   2fab4:	00ffdfc4 	movi	r3,-129
   2fab8:	94c4b03a 	or	r2,r18,r19
   2fabc:	a0e8703a 	and	r20,r20,r3
   2fac0:	103d4426 	beq	r2,zero,2efd4 <__alt_data_end+0xfffeefd4>
   2fac4:	0039883a 	mov	fp,zero
   2fac8:	d9002617 	ldw	r4,152(sp)
   2facc:	dd401a04 	addi	r21,sp,104
   2fad0:	908003cc 	andi	r2,r18,15
   2fad4:	9806973a 	slli	r3,r19,28
   2fad8:	2085883a 	add	r2,r4,r2
   2fadc:	9024d13a 	srli	r18,r18,4
   2fae0:	10800003 	ldbu	r2,0(r2)
   2fae4:	9826d13a 	srli	r19,r19,4
   2fae8:	ad7fffc4 	addi	r21,r21,-1
   2faec:	1ca4b03a 	or	r18,r3,r18
   2faf0:	a8800005 	stb	r2,0(r21)
   2faf4:	94c4b03a 	or	r2,r18,r19
   2faf8:	103ff51e 	bne	r2,zero,2fad0 <__alt_data_end+0xfffefad0>
   2fafc:	003e5906 	br	2f464 <__alt_data_end+0xfffef464>
   2fb00:	d9402117 	ldw	r5,132(sp)
   2fb04:	d9002017 	ldw	r4,128(sp)
   2fb08:	d9801a04 	addi	r6,sp,104
   2fb0c:	002ead40 	call	2ead4 <__sprint_r.part.0>
   2fb10:	103f891e 	bne	r2,zero,2f938 <__alt_data_end+0xfffef938>
   2fb14:	d8801c17 	ldw	r2,112(sp)
   2fb18:	d811883a 	mov	r8,sp
   2fb1c:	003f9506 	br	2f974 <__alt_data_end+0xfffef974>
   2fb20:	d9402117 	ldw	r5,132(sp)
   2fb24:	d9002017 	ldw	r4,128(sp)
   2fb28:	d9801a04 	addi	r6,sp,104
   2fb2c:	002ead40 	call	2ead4 <__sprint_r.part.0>
   2fb30:	103f811e 	bne	r2,zero,2f938 <__alt_data_end+0xfffef938>
   2fb34:	d811883a 	mov	r8,sp
   2fb38:	003ced06 	br	2eef0 <__alt_data_end+0xfffeeef0>
   2fb3c:	d9402117 	ldw	r5,132(sp)
   2fb40:	d9002017 	ldw	r4,128(sp)
   2fb44:	d9801a04 	addi	r6,sp,104
   2fb48:	da402c15 	stw	r9,176(sp)
   2fb4c:	db802a15 	stw	r14,168(sp)
   2fb50:	002ead40 	call	2ead4 <__sprint_r.part.0>
   2fb54:	da402c17 	ldw	r9,176(sp)
   2fb58:	db802a17 	ldw	r14,168(sp)
   2fb5c:	103f761e 	bne	r2,zero,2f938 <__alt_data_end+0xfffef938>
   2fb60:	d9401b17 	ldw	r5,108(sp)
   2fb64:	d8801c17 	ldw	r2,112(sp)
   2fb68:	d811883a 	mov	r8,sp
   2fb6c:	29000044 	addi	r4,r5,1
   2fb70:	003d5b06 	br	2f0e0 <__alt_data_end+0xfffef0e0>
   2fb74:	d9402117 	ldw	r5,132(sp)
   2fb78:	d9002017 	ldw	r4,128(sp)
   2fb7c:	d9801a04 	addi	r6,sp,104
   2fb80:	da402c15 	stw	r9,176(sp)
   2fb84:	002ead40 	call	2ead4 <__sprint_r.part.0>
   2fb88:	da402c17 	ldw	r9,176(sp)
   2fb8c:	103f6a1e 	bne	r2,zero,2f938 <__alt_data_end+0xfffef938>
   2fb90:	d9401b17 	ldw	r5,108(sp)
   2fb94:	d8801c17 	ldw	r2,112(sp)
   2fb98:	d811883a 	mov	r8,sp
   2fb9c:	29000044 	addi	r4,r5,1
   2fba0:	003f1006 	br	2f7e4 <__alt_data_end+0xfffef7e4>
   2fba4:	1000c31e 	bne	r2,zero,2feb4 <___vfiprintf_internal_r+0x12cc>
   2fba8:	01000044 	movi	r4,1
   2fbac:	000b883a 	mov	r5,zero
   2fbb0:	d811883a 	mov	r8,sp
   2fbb4:	003f0d06 	br	2f7ec <__alt_data_end+0xfffef7ec>
   2fbb8:	d9402117 	ldw	r5,132(sp)
   2fbbc:	d9002017 	ldw	r4,128(sp)
   2fbc0:	d9801a04 	addi	r6,sp,104
   2fbc4:	002ead40 	call	2ead4 <__sprint_r.part.0>
   2fbc8:	103f5b1e 	bne	r2,zero,2f938 <__alt_data_end+0xfffef938>
   2fbcc:	d9001b17 	ldw	r4,108(sp)
   2fbd0:	d8801c17 	ldw	r2,112(sp)
   2fbd4:	d811883a 	mov	r8,sp
   2fbd8:	21000044 	addi	r4,r4,1
   2fbdc:	003d8006 	br	2f1e0 <__alt_data_end+0xfffef1e0>
   2fbe0:	010000f4 	movhi	r4,3
   2fbe4:	21153d04 	addi	r4,r4,21748
   2fbe8:	d9002615 	stw	r4,152(sp)
   2fbec:	d8c02215 	stw	r3,136(sp)
   2fbf0:	1029883a 	mov	r20,r2
   2fbf4:	94c4b03a 	or	r2,r18,r19
   2fbf8:	103fb21e 	bne	r2,zero,2fac4 <__alt_data_end+0xfffefac4>
   2fbfc:	0039883a 	mov	fp,zero
   2fc00:	00800084 	movi	r2,2
   2fc04:	003e6b06 	br	2f5b4 <__alt_data_end+0xfffef5b4>
   2fc08:	da802217 	ldw	r10,136(sp)
   2fc0c:	d8001d85 	stb	zero,118(sp)
   2fc10:	0027883a 	mov	r19,zero
   2fc14:	50800104 	addi	r2,r10,4
   2fc18:	54800017 	ldw	r18,0(r10)
   2fc1c:	483e6016 	blt	r9,zero,2f5a0 <__alt_data_end+0xfffef5a0>
   2fc20:	00ffdfc4 	movi	r3,-129
   2fc24:	d8802215 	stw	r2,136(sp)
   2fc28:	a0e8703a 	and	r20,r20,r3
   2fc2c:	0039883a 	mov	fp,zero
   2fc30:	903ebb26 	beq	r18,zero,2f720 <__alt_data_end+0xfffef720>
   2fc34:	00800244 	movi	r2,9
   2fc38:	14bdee36 	bltu	r2,r18,2f3f4 <__alt_data_end+0xfffef3f4>
   2fc3c:	003eba06 	br	2f728 <__alt_data_end+0xfffef728>
   2fc40:	00800c04 	movi	r2,48
   2fc44:	d8c01d45 	stb	r3,117(sp)
   2fc48:	d8801d05 	stb	r2,116(sp)
   2fc4c:	d8001d85 	stb	zero,118(sp)
   2fc50:	a0c00094 	ori	r3,r20,2
   2fc54:	4800a916 	blt	r9,zero,2fefc <___vfiprintf_internal_r+0x1314>
   2fc58:	00bfdfc4 	movi	r2,-129
   2fc5c:	a096703a 	and	r11,r20,r2
   2fc60:	5d000094 	ori	r20,r11,2
   2fc64:	0039883a 	mov	fp,zero
   2fc68:	003f9706 	br	2fac8 <__alt_data_end+0xfffefac8>
   2fc6c:	8025883a 	mov	r18,r16
   2fc70:	003c2e06 	br	2ed2c <__alt_data_end+0xfffeed2c>
   2fc74:	008000f4 	movhi	r2,3
   2fc78:	10953d04 	addi	r2,r2,21748
   2fc7c:	0039883a 	mov	fp,zero
   2fc80:	d8802615 	stw	r2,152(sp)
   2fc84:	003f9006 	br	2fac8 <__alt_data_end+0xfffefac8>
   2fc88:	04a5c83a 	sub	r18,zero,r18
   2fc8c:	07000b44 	movi	fp,45
   2fc90:	9004c03a 	cmpne	r2,r18,zero
   2fc94:	04e7c83a 	sub	r19,zero,r19
   2fc98:	df001d85 	stb	fp,118(sp)
   2fc9c:	98a7c83a 	sub	r19,r19,r2
   2fca0:	48009f16 	blt	r9,zero,2ff20 <___vfiprintf_internal_r+0x1338>
   2fca4:	00bfdfc4 	movi	r2,-129
   2fca8:	a0a8703a 	and	r20,r20,r2
   2fcac:	003dd006 	br	2f3f0 <__alt_data_end+0xfffef3f0>
   2fcb0:	70004c26 	beq	r14,zero,2fde4 <___vfiprintf_internal_r+0x11fc>
   2fcb4:	00800084 	movi	r2,2
   2fcb8:	d8c01d04 	addi	r3,sp,116
   2fcbc:	d8c00015 	stw	r3,0(sp)
   2fcc0:	d8800115 	stw	r2,4(sp)
   2fcc4:	01000044 	movi	r4,1
   2fcc8:	d811883a 	mov	r8,sp
   2fccc:	003f7306 	br	2fa9c <__alt_data_end+0xfffefa9c>
   2fcd0:	a080100c 	andi	r2,r20,64
   2fcd4:	da802217 	ldw	r10,136(sp)
   2fcd8:	103e0626 	beq	r2,zero,2f4f4 <__alt_data_end+0xfffef4f4>
   2fcdc:	5480000f 	ldh	r18,0(r10)
   2fce0:	52800104 	addi	r10,r10,4
   2fce4:	da802215 	stw	r10,136(sp)
   2fce8:	9027d7fa 	srai	r19,r18,31
   2fcec:	9805883a 	mov	r2,r19
   2fcf0:	003db806 	br	2f3d4 <__alt_data_end+0xfffef3d4>
   2fcf4:	a080040c 	andi	r2,r20,16
   2fcf8:	1000091e 	bne	r2,zero,2fd20 <___vfiprintf_internal_r+0x1138>
   2fcfc:	a2c0100c 	andi	r11,r20,64
   2fd00:	58000726 	beq	r11,zero,2fd20 <___vfiprintf_internal_r+0x1138>
   2fd04:	da802217 	ldw	r10,136(sp)
   2fd08:	50800017 	ldw	r2,0(r10)
   2fd0c:	52800104 	addi	r10,r10,4
   2fd10:	da802215 	stw	r10,136(sp)
   2fd14:	da802317 	ldw	r10,140(sp)
   2fd18:	1280000d 	sth	r10,0(r2)
   2fd1c:	003be706 	br	2ecbc <__alt_data_end+0xfffeecbc>
   2fd20:	da802217 	ldw	r10,136(sp)
   2fd24:	50800017 	ldw	r2,0(r10)
   2fd28:	52800104 	addi	r10,r10,4
   2fd2c:	da802215 	stw	r10,136(sp)
   2fd30:	da802317 	ldw	r10,140(sp)
   2fd34:	12800015 	stw	r10,0(r2)
   2fd38:	003be006 	br	2ecbc <__alt_data_end+0xfffeecbc>
   2fd3c:	a080100c 	andi	r2,r20,64
   2fd40:	da802217 	ldw	r10,136(sp)
   2fd44:	10003026 	beq	r2,zero,2fe08 <___vfiprintf_internal_r+0x1220>
   2fd48:	5480000b 	ldhu	r18,0(r10)
   2fd4c:	52800104 	addi	r10,r10,4
   2fd50:	0027883a 	mov	r19,zero
   2fd54:	da802215 	stw	r10,136(sp)
   2fd58:	003d8006 	br	2f35c <__alt_data_end+0xfffef35c>
   2fd5c:	80c00007 	ldb	r3,0(r16)
   2fd60:	003c0006 	br	2ed64 <__alt_data_end+0xfffeed64>
   2fd64:	a080100c 	andi	r2,r20,64
   2fd68:	d8001d85 	stb	zero,118(sp)
   2fd6c:	da802217 	ldw	r10,136(sp)
   2fd70:	1000201e 	bne	r2,zero,2fdf4 <___vfiprintf_internal_r+0x120c>
   2fd74:	50800104 	addi	r2,r10,4
   2fd78:	54800017 	ldw	r18,0(r10)
   2fd7c:	0027883a 	mov	r19,zero
   2fd80:	483def0e 	bge	r9,zero,2f540 <__alt_data_end+0xfffef540>
   2fd84:	94c6b03a 	or	r3,r18,r19
   2fd88:	d8802215 	stw	r2,136(sp)
   2fd8c:	183d4e1e 	bne	r3,zero,2f2c8 <__alt_data_end+0xfffef2c8>
   2fd90:	0039883a 	mov	fp,zero
   2fd94:	0005883a 	mov	r2,zero
   2fd98:	003e0606 	br	2f5b4 <__alt_data_end+0xfffef5b4>
   2fd9c:	d9402117 	ldw	r5,132(sp)
   2fda0:	d9002017 	ldw	r4,128(sp)
   2fda4:	d9801a04 	addi	r6,sp,104
   2fda8:	da402c15 	stw	r9,176(sp)
   2fdac:	db802a15 	stw	r14,168(sp)
   2fdb0:	002ead40 	call	2ead4 <__sprint_r.part.0>
   2fdb4:	da402c17 	ldw	r9,176(sp)
   2fdb8:	db802a17 	ldw	r14,168(sp)
   2fdbc:	103ede1e 	bne	r2,zero,2f938 <__alt_data_end+0xfffef938>
   2fdc0:	d9401b17 	ldw	r5,108(sp)
   2fdc4:	d8801c17 	ldw	r2,112(sp)
   2fdc8:	d811883a 	mov	r8,sp
   2fdcc:	29000044 	addi	r4,r5,1
   2fdd0:	003e7406 	br	2f7a4 <__alt_data_end+0xfffef7a4>
   2fdd4:	00bfffc4 	movi	r2,-1
   2fdd8:	003c5806 	br	2ef3c <__alt_data_end+0xfffeef3c>
   2fddc:	d811883a 	mov	r8,sp
   2fde0:	003ee806 	br	2f984 <__alt_data_end+0xfffef984>
   2fde4:	000b883a 	mov	r5,zero
   2fde8:	01000044 	movi	r4,1
   2fdec:	d811883a 	mov	r8,sp
   2fdf0:	003e7c06 	br	2f7e4 <__alt_data_end+0xfffef7e4>
   2fdf4:	50800104 	addi	r2,r10,4
   2fdf8:	5480000b 	ldhu	r18,0(r10)
   2fdfc:	0027883a 	mov	r19,zero
   2fe00:	483dcf0e 	bge	r9,zero,2f540 <__alt_data_end+0xfffef540>
   2fe04:	003fdf06 	br	2fd84 <__alt_data_end+0xfffefd84>
   2fe08:	54800017 	ldw	r18,0(r10)
   2fe0c:	52800104 	addi	r10,r10,4
   2fe10:	0027883a 	mov	r19,zero
   2fe14:	da802215 	stw	r10,136(sp)
   2fe18:	003d5006 	br	2f35c <__alt_data_end+0xfffef35c>
   2fe1c:	50800104 	addi	r2,r10,4
   2fe20:	5480000b 	ldhu	r18,0(r10)
   2fe24:	0027883a 	mov	r19,zero
   2fe28:	483f7d0e 	bge	r9,zero,2fc20 <__alt_data_end+0xfffefc20>
   2fe2c:	003ddc06 	br	2f5a0 <__alt_data_end+0xfffef5a0>
   2fe30:	d8c02215 	stw	r3,136(sp)
   2fe34:	0039883a 	mov	fp,zero
   2fe38:	003ddb06 	br	2f5a8 <__alt_data_end+0xfffef5a8>
   2fe3c:	028000f4 	movhi	r10,3
   2fe40:	5295ad04 	addi	r10,r10,22196
   2fe44:	da802415 	stw	r10,144(sp)
   2fe48:	003e8306 	br	2f858 <__alt_data_end+0xfffef858>
   2fe4c:	d8801c17 	ldw	r2,112(sp)
   2fe50:	dd002117 	ldw	r20,132(sp)
   2fe54:	103eb926 	beq	r2,zero,2f93c <__alt_data_end+0xfffef93c>
   2fe58:	d9002017 	ldw	r4,128(sp)
   2fe5c:	d9801a04 	addi	r6,sp,104
   2fe60:	a00b883a 	mov	r5,r20
   2fe64:	002ead40 	call	2ead4 <__sprint_r.part.0>
   2fe68:	003eb406 	br	2f93c <__alt_data_end+0xfffef93c>
   2fe6c:	80c00043 	ldbu	r3,1(r16)
   2fe70:	a5000814 	ori	r20,r20,32
   2fe74:	84000044 	addi	r16,r16,1
   2fe78:	18c03fcc 	andi	r3,r3,255
   2fe7c:	18c0201c 	xori	r3,r3,128
   2fe80:	18ffe004 	addi	r3,r3,-128
   2fe84:	003bb706 	br	2ed64 <__alt_data_end+0xfffeed64>
   2fe88:	a809883a 	mov	r4,r21
   2fe8c:	d8c02a15 	stw	r3,168(sp)
   2fe90:	da002b15 	stw	r8,172(sp)
   2fe94:	00247fc0 	call	247fc <strlen>
   2fe98:	d8c02a17 	ldw	r3,168(sp)
   2fe9c:	1027883a 	mov	r19,r2
   2fea0:	df001d83 	ldbu	fp,118(sp)
   2fea4:	d8c02215 	stw	r3,136(sp)
   2fea8:	0013883a 	mov	r9,zero
   2feac:	da002b17 	ldw	r8,172(sp)
   2feb0:	003c4d06 	br	2efe8 <__alt_data_end+0xfffeefe8>
   2feb4:	d9402117 	ldw	r5,132(sp)
   2feb8:	d9002017 	ldw	r4,128(sp)
   2febc:	d9801a04 	addi	r6,sp,104
   2fec0:	da402c15 	stw	r9,176(sp)
   2fec4:	002ead40 	call	2ead4 <__sprint_r.part.0>
   2fec8:	da402c17 	ldw	r9,176(sp)
   2fecc:	103e9a1e 	bne	r2,zero,2f938 <__alt_data_end+0xfffef938>
   2fed0:	d9401b17 	ldw	r5,108(sp)
   2fed4:	d8801c17 	ldw	r2,112(sp)
   2fed8:	d811883a 	mov	r8,sp
   2fedc:	29000044 	addi	r4,r5,1
   2fee0:	003e4206 	br	2f7ec <__alt_data_end+0xfffef7ec>
   2fee4:	d9401b17 	ldw	r5,108(sp)
   2fee8:	010000f4 	movhi	r4,3
   2feec:	2115b104 	addi	r4,r4,22212
   2fef0:	d9002415 	stw	r4,144(sp)
   2fef4:	29400044 	addi	r5,r5,1
   2fef8:	003c6d06 	br	2f0b0 <__alt_data_end+0xfffef0b0>
   2fefc:	0039883a 	mov	fp,zero
   2ff00:	00800084 	movi	r2,2
   2ff04:	10803fcc 	andi	r2,r2,255
   2ff08:	01000044 	movi	r4,1
   2ff0c:	11001e26 	beq	r2,r4,2ff88 <___vfiprintf_internal_r+0x13a0>
   2ff10:	01000084 	movi	r4,2
   2ff14:	11001e1e 	bne	r2,r4,2ff90 <___vfiprintf_internal_r+0x13a8>
   2ff18:	1829883a 	mov	r20,r3
   2ff1c:	003eea06 	br	2fac8 <__alt_data_end+0xfffefac8>
   2ff20:	a007883a 	mov	r3,r20
   2ff24:	00800044 	movi	r2,1
   2ff28:	003ff606 	br	2ff04 <__alt_data_end+0xfffeff04>
   2ff2c:	00800184 	movi	r2,6
   2ff30:	1240012e 	bgeu	r2,r9,2ff38 <___vfiprintf_internal_r+0x1350>
   2ff34:	1013883a 	mov	r9,r2
   2ff38:	4827883a 	mov	r19,r9
   2ff3c:	4825883a 	mov	r18,r9
   2ff40:	48001516 	blt	r9,zero,2ff98 <___vfiprintf_internal_r+0x13b0>
   2ff44:	054000f4 	movhi	r21,3
   2ff48:	d8c02215 	stw	r3,136(sp)
   2ff4c:	ad554204 	addi	r21,r21,21768
   2ff50:	003d1406 	br	2f3a4 <__alt_data_end+0xfffef3a4>
   2ff54:	028000f4 	movhi	r10,3
   2ff58:	5295ad04 	addi	r10,r10,22196
   2ff5c:	da802415 	stw	r10,144(sp)
   2ff60:	200d883a 	mov	r6,r4
   2ff64:	003c9106 	br	2f1ac <__alt_data_end+0xfffef1ac>
   2ff68:	5021883a 	mov	r16,r10
   2ff6c:	0013883a 	mov	r9,zero
   2ff70:	003b7d06 	br	2ed68 <__alt_data_end+0xfffeed68>
   2ff74:	4827883a 	mov	r19,r9
   2ff78:	df001d83 	ldbu	fp,118(sp)
   2ff7c:	d8c02215 	stw	r3,136(sp)
   2ff80:	0013883a 	mov	r9,zero
   2ff84:	003c1806 	br	2efe8 <__alt_data_end+0xfffeefe8>
   2ff88:	1829883a 	mov	r20,r3
   2ff8c:	003d1806 	br	2f3f0 <__alt_data_end+0xfffef3f0>
   2ff90:	1829883a 	mov	r20,r3
   2ff94:	003ccd06 	br	2f2cc <__alt_data_end+0xfffef2cc>
   2ff98:	0025883a 	mov	r18,zero
   2ff9c:	003fe906 	br	2ff44 <__alt_data_end+0xfffeff44>
   2ffa0:	d8802217 	ldw	r2,136(sp)
   2ffa4:	80c00043 	ldbu	r3,1(r16)
   2ffa8:	5021883a 	mov	r16,r10
   2ffac:	12400017 	ldw	r9,0(r2)
   2ffb0:	10800104 	addi	r2,r2,4
   2ffb4:	d8802215 	stw	r2,136(sp)
   2ffb8:	483faf0e 	bge	r9,zero,2fe78 <__alt_data_end+0xfffefe78>
   2ffbc:	18c03fcc 	andi	r3,r3,255
   2ffc0:	18c0201c 	xori	r3,r3,128
   2ffc4:	027fffc4 	movi	r9,-1
   2ffc8:	18ffe004 	addi	r3,r3,-128
   2ffcc:	003b6506 	br	2ed64 <__alt_data_end+0xfffeed64>
   2ffd0:	d9c01d85 	stb	r7,118(sp)
   2ffd4:	003ca006 	br	2f258 <__alt_data_end+0xfffef258>
   2ffd8:	d9c01d85 	stb	r7,118(sp)
   2ffdc:	003cad06 	br	2f294 <__alt_data_end+0xfffef294>
   2ffe0:	d9c01d85 	stb	r7,118(sp)
   2ffe4:	003d7d06 	br	2f5dc <__alt_data_end+0xfffef5dc>
   2ffe8:	d9c01d85 	stb	r7,118(sp)
   2ffec:	003d5f06 	br	2f56c <__alt_data_end+0xfffef56c>
   2fff0:	a080004c 	andi	r2,r20,1
   2fff4:	0039883a 	mov	fp,zero
   2fff8:	10000526 	beq	r2,zero,30010 <___vfiprintf_internal_r+0x1428>
   2fffc:	00800c04 	movi	r2,48
   30000:	d88019c5 	stb	r2,103(sp)
   30004:	dcc02717 	ldw	r19,156(sp)
   30008:	dd4019c4 	addi	r21,sp,103
   3000c:	003bf606 	br	2efe8 <__alt_data_end+0xfffeefe8>
   30010:	0027883a 	mov	r19,zero
   30014:	dd401a04 	addi	r21,sp,104
   30018:	003bf306 	br	2efe8 <__alt_data_end+0xfffeefe8>
   3001c:	d9c01d85 	stb	r7,118(sp)
   30020:	003dc806 	br	2f744 <__alt_data_end+0xfffef744>
   30024:	d9c01d85 	stb	r7,118(sp)
   30028:	003d3a06 	br	2f514 <__alt_data_end+0xfffef514>
   3002c:	d9c01d85 	stb	r7,118(sp)
   30030:	003d2a06 	br	2f4dc <__alt_data_end+0xfffef4dc>
   30034:	d9c01d85 	stb	r7,118(sp)
   30038:	003cde06 	br	2f3b4 <__alt_data_end+0xfffef3b4>
   3003c:	d9c01d85 	stb	r7,118(sp)
   30040:	003cbc06 	br	2f334 <__alt_data_end+0xfffef334>

00030044 <__vfiprintf_internal>:
   30044:	008000f4 	movhi	r2,3
   30048:	109a9604 	addi	r2,r2,27224
   3004c:	300f883a 	mov	r7,r6
   30050:	280d883a 	mov	r6,r5
   30054:	200b883a 	mov	r5,r4
   30058:	11000017 	ldw	r4,0(r2)
   3005c:	002ebe81 	jmpi	2ebe8 <___vfiprintf_internal_r>

00030060 <__sbprintf>:
   30060:	2880030b 	ldhu	r2,12(r5)
   30064:	2ac01917 	ldw	r11,100(r5)
   30068:	2a80038b 	ldhu	r10,14(r5)
   3006c:	2a400717 	ldw	r9,28(r5)
   30070:	2a000917 	ldw	r8,36(r5)
   30074:	defee204 	addi	sp,sp,-1144
   30078:	00c10004 	movi	r3,1024
   3007c:	dc011a15 	stw	r16,1128(sp)
   30080:	10bfff4c 	andi	r2,r2,65533
   30084:	2821883a 	mov	r16,r5
   30088:	d8cb883a 	add	r5,sp,r3
   3008c:	dc811c15 	stw	r18,1136(sp)
   30090:	dc411b15 	stw	r17,1132(sp)
   30094:	dfc11d15 	stw	ra,1140(sp)
   30098:	2025883a 	mov	r18,r4
   3009c:	d881030d 	sth	r2,1036(sp)
   300a0:	dac11915 	stw	r11,1124(sp)
   300a4:	da81038d 	sth	r10,1038(sp)
   300a8:	da410715 	stw	r9,1052(sp)
   300ac:	da010915 	stw	r8,1060(sp)
   300b0:	dec10015 	stw	sp,1024(sp)
   300b4:	dec10415 	stw	sp,1040(sp)
   300b8:	d8c10215 	stw	r3,1032(sp)
   300bc:	d8c10515 	stw	r3,1044(sp)
   300c0:	d8010615 	stw	zero,1048(sp)
   300c4:	002ebe80 	call	2ebe8 <___vfiprintf_internal_r>
   300c8:	1023883a 	mov	r17,r2
   300cc:	10000416 	blt	r2,zero,300e0 <__sbprintf+0x80>
   300d0:	d9410004 	addi	r5,sp,1024
   300d4:	9009883a 	mov	r4,r18
   300d8:	002a9e80 	call	2a9e8 <_fflush_r>
   300dc:	10000d1e 	bne	r2,zero,30114 <__sbprintf+0xb4>
   300e0:	d881030b 	ldhu	r2,1036(sp)
   300e4:	1080100c 	andi	r2,r2,64
   300e8:	10000326 	beq	r2,zero,300f8 <__sbprintf+0x98>
   300ec:	8080030b 	ldhu	r2,12(r16)
   300f0:	10801014 	ori	r2,r2,64
   300f4:	8080030d 	sth	r2,12(r16)
   300f8:	8805883a 	mov	r2,r17
   300fc:	dfc11d17 	ldw	ra,1140(sp)
   30100:	dc811c17 	ldw	r18,1136(sp)
   30104:	dc411b17 	ldw	r17,1132(sp)
   30108:	dc011a17 	ldw	r16,1128(sp)
   3010c:	dec11e04 	addi	sp,sp,1144
   30110:	f800283a 	ret
   30114:	047fffc4 	movi	r17,-1
   30118:	003ff106 	br	300e0 <__alt_data_end+0xffff00e0>

0003011c <__swbuf_r>:
   3011c:	defffb04 	addi	sp,sp,-20
   30120:	dcc00315 	stw	r19,12(sp)
   30124:	dc800215 	stw	r18,8(sp)
   30128:	dc000015 	stw	r16,0(sp)
   3012c:	dfc00415 	stw	ra,16(sp)
   30130:	dc400115 	stw	r17,4(sp)
   30134:	2025883a 	mov	r18,r4
   30138:	2827883a 	mov	r19,r5
   3013c:	3021883a 	mov	r16,r6
   30140:	20000226 	beq	r4,zero,3014c <__swbuf_r+0x30>
   30144:	20800e17 	ldw	r2,56(r4)
   30148:	10004226 	beq	r2,zero,30254 <__swbuf_r+0x138>
   3014c:	80800617 	ldw	r2,24(r16)
   30150:	8100030b 	ldhu	r4,12(r16)
   30154:	80800215 	stw	r2,8(r16)
   30158:	2080020c 	andi	r2,r4,8
   3015c:	10003626 	beq	r2,zero,30238 <__swbuf_r+0x11c>
   30160:	80c00417 	ldw	r3,16(r16)
   30164:	18003426 	beq	r3,zero,30238 <__swbuf_r+0x11c>
   30168:	2088000c 	andi	r2,r4,8192
   3016c:	9c403fcc 	andi	r17,r19,255
   30170:	10001a26 	beq	r2,zero,301dc <__swbuf_r+0xc0>
   30174:	80800017 	ldw	r2,0(r16)
   30178:	81000517 	ldw	r4,20(r16)
   3017c:	10c7c83a 	sub	r3,r2,r3
   30180:	1900200e 	bge	r3,r4,30204 <__swbuf_r+0xe8>
   30184:	18c00044 	addi	r3,r3,1
   30188:	81000217 	ldw	r4,8(r16)
   3018c:	11400044 	addi	r5,r2,1
   30190:	81400015 	stw	r5,0(r16)
   30194:	213fffc4 	addi	r4,r4,-1
   30198:	81000215 	stw	r4,8(r16)
   3019c:	14c00005 	stb	r19,0(r2)
   301a0:	80800517 	ldw	r2,20(r16)
   301a4:	10c01e26 	beq	r2,r3,30220 <__swbuf_r+0x104>
   301a8:	8080030b 	ldhu	r2,12(r16)
   301ac:	1080004c 	andi	r2,r2,1
   301b0:	10000226 	beq	r2,zero,301bc <__swbuf_r+0xa0>
   301b4:	00800284 	movi	r2,10
   301b8:	88801926 	beq	r17,r2,30220 <__swbuf_r+0x104>
   301bc:	8805883a 	mov	r2,r17
   301c0:	dfc00417 	ldw	ra,16(sp)
   301c4:	dcc00317 	ldw	r19,12(sp)
   301c8:	dc800217 	ldw	r18,8(sp)
   301cc:	dc400117 	ldw	r17,4(sp)
   301d0:	dc000017 	ldw	r16,0(sp)
   301d4:	dec00504 	addi	sp,sp,20
   301d8:	f800283a 	ret
   301dc:	81401917 	ldw	r5,100(r16)
   301e0:	00b7ffc4 	movi	r2,-8193
   301e4:	21080014 	ori	r4,r4,8192
   301e8:	2884703a 	and	r2,r5,r2
   301ec:	80801915 	stw	r2,100(r16)
   301f0:	80800017 	ldw	r2,0(r16)
   301f4:	8100030d 	sth	r4,12(r16)
   301f8:	81000517 	ldw	r4,20(r16)
   301fc:	10c7c83a 	sub	r3,r2,r3
   30200:	193fe016 	blt	r3,r4,30184 <__alt_data_end+0xffff0184>
   30204:	800b883a 	mov	r5,r16
   30208:	9009883a 	mov	r4,r18
   3020c:	002a9e80 	call	2a9e8 <_fflush_r>
   30210:	1000071e 	bne	r2,zero,30230 <__swbuf_r+0x114>
   30214:	80800017 	ldw	r2,0(r16)
   30218:	00c00044 	movi	r3,1
   3021c:	003fda06 	br	30188 <__alt_data_end+0xffff0188>
   30220:	800b883a 	mov	r5,r16
   30224:	9009883a 	mov	r4,r18
   30228:	002a9e80 	call	2a9e8 <_fflush_r>
   3022c:	103fe326 	beq	r2,zero,301bc <__alt_data_end+0xffff01bc>
   30230:	00bfffc4 	movi	r2,-1
   30234:	003fe206 	br	301c0 <__alt_data_end+0xffff01c0>
   30238:	800b883a 	mov	r5,r16
   3023c:	9009883a 	mov	r4,r18
   30240:	0028d9c0 	call	28d9c <__swsetup_r>
   30244:	103ffa1e 	bne	r2,zero,30230 <__alt_data_end+0xffff0230>
   30248:	8100030b 	ldhu	r4,12(r16)
   3024c:	80c00417 	ldw	r3,16(r16)
   30250:	003fc506 	br	30168 <__alt_data_end+0xffff0168>
   30254:	002adc40 	call	2adc4 <__sinit>
   30258:	003fbc06 	br	3014c <__alt_data_end+0xffff014c>

0003025c <__swbuf>:
   3025c:	008000f4 	movhi	r2,3
   30260:	109a9604 	addi	r2,r2,27224
   30264:	280d883a 	mov	r6,r5
   30268:	200b883a 	mov	r5,r4
   3026c:	11000017 	ldw	r4,0(r2)
   30270:	003011c1 	jmpi	3011c <__swbuf_r>

00030274 <_calloc_r>:
   30274:	298b383a 	mul	r5,r5,r6
   30278:	defffe04 	addi	sp,sp,-8
   3027c:	dfc00115 	stw	ra,4(sp)
   30280:	dc000015 	stw	r16,0(sp)
   30284:	00237440 	call	23744 <_malloc_r>
   30288:	10002926 	beq	r2,zero,30330 <_calloc_r+0xbc>
   3028c:	11bfff17 	ldw	r6,-4(r2)
   30290:	1021883a 	mov	r16,r2
   30294:	00bfff04 	movi	r2,-4
   30298:	308c703a 	and	r6,r6,r2
   3029c:	00c00904 	movi	r3,36
   302a0:	308d883a 	add	r6,r6,r2
   302a4:	19801636 	bltu	r3,r6,30300 <_calloc_r+0x8c>
   302a8:	008004c4 	movi	r2,19
   302ac:	11800b2e 	bgeu	r2,r6,302dc <_calloc_r+0x68>
   302b0:	80000015 	stw	zero,0(r16)
   302b4:	80000115 	stw	zero,4(r16)
   302b8:	008006c4 	movi	r2,27
   302bc:	11801a2e 	bgeu	r2,r6,30328 <_calloc_r+0xb4>
   302c0:	80000215 	stw	zero,8(r16)
   302c4:	80000315 	stw	zero,12(r16)
   302c8:	30c0151e 	bne	r6,r3,30320 <_calloc_r+0xac>
   302cc:	80000415 	stw	zero,16(r16)
   302d0:	80800604 	addi	r2,r16,24
   302d4:	80000515 	stw	zero,20(r16)
   302d8:	00000106 	br	302e0 <_calloc_r+0x6c>
   302dc:	8005883a 	mov	r2,r16
   302e0:	10000015 	stw	zero,0(r2)
   302e4:	10000115 	stw	zero,4(r2)
   302e8:	10000215 	stw	zero,8(r2)
   302ec:	8005883a 	mov	r2,r16
   302f0:	dfc00117 	ldw	ra,4(sp)
   302f4:	dc000017 	ldw	r16,0(sp)
   302f8:	dec00204 	addi	sp,sp,8
   302fc:	f800283a 	ret
   30300:	000b883a 	mov	r5,zero
   30304:	8009883a 	mov	r4,r16
   30308:	0023f500 	call	23f50 <memset>
   3030c:	8005883a 	mov	r2,r16
   30310:	dfc00117 	ldw	ra,4(sp)
   30314:	dc000017 	ldw	r16,0(sp)
   30318:	dec00204 	addi	sp,sp,8
   3031c:	f800283a 	ret
   30320:	80800404 	addi	r2,r16,16
   30324:	003fee06 	br	302e0 <__alt_data_end+0xffff02e0>
   30328:	80800204 	addi	r2,r16,8
   3032c:	003fec06 	br	302e0 <__alt_data_end+0xffff02e0>
   30330:	0005883a 	mov	r2,zero
   30334:	003fee06 	br	302f0 <__alt_data_end+0xffff02f0>

00030338 <_fclose_r>:
   30338:	28003926 	beq	r5,zero,30420 <_fclose_r+0xe8>
   3033c:	defffc04 	addi	sp,sp,-16
   30340:	dc400115 	stw	r17,4(sp)
   30344:	dc000015 	stw	r16,0(sp)
   30348:	dfc00315 	stw	ra,12(sp)
   3034c:	dc800215 	stw	r18,8(sp)
   30350:	2023883a 	mov	r17,r4
   30354:	2821883a 	mov	r16,r5
   30358:	20000226 	beq	r4,zero,30364 <_fclose_r+0x2c>
   3035c:	20800e17 	ldw	r2,56(r4)
   30360:	10002726 	beq	r2,zero,30400 <_fclose_r+0xc8>
   30364:	8080030f 	ldh	r2,12(r16)
   30368:	1000071e 	bne	r2,zero,30388 <_fclose_r+0x50>
   3036c:	0005883a 	mov	r2,zero
   30370:	dfc00317 	ldw	ra,12(sp)
   30374:	dc800217 	ldw	r18,8(sp)
   30378:	dc400117 	ldw	r17,4(sp)
   3037c:	dc000017 	ldw	r16,0(sp)
   30380:	dec00404 	addi	sp,sp,16
   30384:	f800283a 	ret
   30388:	800b883a 	mov	r5,r16
   3038c:	8809883a 	mov	r4,r17
   30390:	002a7cc0 	call	2a7cc <__sflush_r>
   30394:	1025883a 	mov	r18,r2
   30398:	80800b17 	ldw	r2,44(r16)
   3039c:	10000426 	beq	r2,zero,303b0 <_fclose_r+0x78>
   303a0:	81400717 	ldw	r5,28(r16)
   303a4:	8809883a 	mov	r4,r17
   303a8:	103ee83a 	callr	r2
   303ac:	10001616 	blt	r2,zero,30408 <_fclose_r+0xd0>
   303b0:	8080030b 	ldhu	r2,12(r16)
   303b4:	1080200c 	andi	r2,r2,128
   303b8:	1000151e 	bne	r2,zero,30410 <_fclose_r+0xd8>
   303bc:	81400c17 	ldw	r5,48(r16)
   303c0:	28000526 	beq	r5,zero,303d8 <_fclose_r+0xa0>
   303c4:	80801004 	addi	r2,r16,64
   303c8:	28800226 	beq	r5,r2,303d4 <_fclose_r+0x9c>
   303cc:	8809883a 	mov	r4,r17
   303d0:	002afe40 	call	2afe4 <_free_r>
   303d4:	80000c15 	stw	zero,48(r16)
   303d8:	81401117 	ldw	r5,68(r16)
   303dc:	28000326 	beq	r5,zero,303ec <_fclose_r+0xb4>
   303e0:	8809883a 	mov	r4,r17
   303e4:	002afe40 	call	2afe4 <_free_r>
   303e8:	80001115 	stw	zero,68(r16)
   303ec:	002add40 	call	2add4 <__sfp_lock_acquire>
   303f0:	8000030d 	sth	zero,12(r16)
   303f4:	002add80 	call	2add8 <__sfp_lock_release>
   303f8:	9005883a 	mov	r2,r18
   303fc:	003fdc06 	br	30370 <__alt_data_end+0xffff0370>
   30400:	002adc40 	call	2adc4 <__sinit>
   30404:	003fd706 	br	30364 <__alt_data_end+0xffff0364>
   30408:	04bfffc4 	movi	r18,-1
   3040c:	003fe806 	br	303b0 <__alt_data_end+0xffff03b0>
   30410:	81400417 	ldw	r5,16(r16)
   30414:	8809883a 	mov	r4,r17
   30418:	002afe40 	call	2afe4 <_free_r>
   3041c:	003fe706 	br	303bc <__alt_data_end+0xffff03bc>
   30420:	0005883a 	mov	r2,zero
   30424:	f800283a 	ret

00030428 <fclose>:
   30428:	008000f4 	movhi	r2,3
   3042c:	109a9604 	addi	r2,r2,27224
   30430:	200b883a 	mov	r5,r4
   30434:	11000017 	ldw	r4,0(r2)
   30438:	00303381 	jmpi	30338 <_fclose_r>

0003043c <__fputwc>:
   3043c:	defff804 	addi	sp,sp,-32
   30440:	dcc00415 	stw	r19,16(sp)
   30444:	dc800315 	stw	r18,12(sp)
   30448:	dc000115 	stw	r16,4(sp)
   3044c:	dfc00715 	stw	ra,28(sp)
   30450:	dd400615 	stw	r21,24(sp)
   30454:	dd000515 	stw	r20,20(sp)
   30458:	dc400215 	stw	r17,8(sp)
   3045c:	2027883a 	mov	r19,r4
   30460:	2825883a 	mov	r18,r5
   30464:	3021883a 	mov	r16,r6
   30468:	002ba140 	call	2ba14 <__locale_mb_cur_max>
   3046c:	00c00044 	movi	r3,1
   30470:	10c03e26 	beq	r2,r3,3056c <__fputwc+0x130>
   30474:	81c01704 	addi	r7,r16,92
   30478:	900d883a 	mov	r6,r18
   3047c:	d80b883a 	mov	r5,sp
   30480:	9809883a 	mov	r4,r19
   30484:	00306440 	call	30644 <_wcrtomb_r>
   30488:	1029883a 	mov	r20,r2
   3048c:	00bfffc4 	movi	r2,-1
   30490:	a0802026 	beq	r20,r2,30514 <__fputwc+0xd8>
   30494:	d9400003 	ldbu	r5,0(sp)
   30498:	a0001c26 	beq	r20,zero,3050c <__fputwc+0xd0>
   3049c:	0023883a 	mov	r17,zero
   304a0:	05400284 	movi	r21,10
   304a4:	00000906 	br	304cc <__fputwc+0x90>
   304a8:	80800017 	ldw	r2,0(r16)
   304ac:	11400005 	stb	r5,0(r2)
   304b0:	80c00017 	ldw	r3,0(r16)
   304b4:	18c00044 	addi	r3,r3,1
   304b8:	80c00015 	stw	r3,0(r16)
   304bc:	8c400044 	addi	r17,r17,1
   304c0:	dc45883a 	add	r2,sp,r17
   304c4:	8d00112e 	bgeu	r17,r20,3050c <__fputwc+0xd0>
   304c8:	11400003 	ldbu	r5,0(r2)
   304cc:	80c00217 	ldw	r3,8(r16)
   304d0:	18ffffc4 	addi	r3,r3,-1
   304d4:	80c00215 	stw	r3,8(r16)
   304d8:	183ff30e 	bge	r3,zero,304a8 <__alt_data_end+0xffff04a8>
   304dc:	80800617 	ldw	r2,24(r16)
   304e0:	18801916 	blt	r3,r2,30548 <__fputwc+0x10c>
   304e4:	80800017 	ldw	r2,0(r16)
   304e8:	11400005 	stb	r5,0(r2)
   304ec:	80800017 	ldw	r2,0(r16)
   304f0:	10c00003 	ldbu	r3,0(r2)
   304f4:	10800044 	addi	r2,r2,1
   304f8:	1d402326 	beq	r3,r21,30588 <__fputwc+0x14c>
   304fc:	80800015 	stw	r2,0(r16)
   30500:	8c400044 	addi	r17,r17,1
   30504:	dc45883a 	add	r2,sp,r17
   30508:	8d3fef36 	bltu	r17,r20,304c8 <__alt_data_end+0xffff04c8>
   3050c:	9005883a 	mov	r2,r18
   30510:	00000406 	br	30524 <__fputwc+0xe8>
   30514:	80c0030b 	ldhu	r3,12(r16)
   30518:	a005883a 	mov	r2,r20
   3051c:	18c01014 	ori	r3,r3,64
   30520:	80c0030d 	sth	r3,12(r16)
   30524:	dfc00717 	ldw	ra,28(sp)
   30528:	dd400617 	ldw	r21,24(sp)
   3052c:	dd000517 	ldw	r20,20(sp)
   30530:	dcc00417 	ldw	r19,16(sp)
   30534:	dc800317 	ldw	r18,12(sp)
   30538:	dc400217 	ldw	r17,8(sp)
   3053c:	dc000117 	ldw	r16,4(sp)
   30540:	dec00804 	addi	sp,sp,32
   30544:	f800283a 	ret
   30548:	800d883a 	mov	r6,r16
   3054c:	29403fcc 	andi	r5,r5,255
   30550:	9809883a 	mov	r4,r19
   30554:	003011c0 	call	3011c <__swbuf_r>
   30558:	10bfffe0 	cmpeqi	r2,r2,-1
   3055c:	10803fcc 	andi	r2,r2,255
   30560:	103fd626 	beq	r2,zero,304bc <__alt_data_end+0xffff04bc>
   30564:	00bfffc4 	movi	r2,-1
   30568:	003fee06 	br	30524 <__alt_data_end+0xffff0524>
   3056c:	90ffffc4 	addi	r3,r18,-1
   30570:	01003f84 	movi	r4,254
   30574:	20ffbf36 	bltu	r4,r3,30474 <__alt_data_end+0xffff0474>
   30578:	900b883a 	mov	r5,r18
   3057c:	dc800005 	stb	r18,0(sp)
   30580:	1029883a 	mov	r20,r2
   30584:	003fc506 	br	3049c <__alt_data_end+0xffff049c>
   30588:	800d883a 	mov	r6,r16
   3058c:	a80b883a 	mov	r5,r21
   30590:	9809883a 	mov	r4,r19
   30594:	003011c0 	call	3011c <__swbuf_r>
   30598:	10bfffe0 	cmpeqi	r2,r2,-1
   3059c:	003fef06 	br	3055c <__alt_data_end+0xffff055c>

000305a0 <_fputwc_r>:
   305a0:	3080030b 	ldhu	r2,12(r6)
   305a4:	10c8000c 	andi	r3,r2,8192
   305a8:	1800051e 	bne	r3,zero,305c0 <_fputwc_r+0x20>
   305ac:	30c01917 	ldw	r3,100(r6)
   305b0:	10880014 	ori	r2,r2,8192
   305b4:	3080030d 	sth	r2,12(r6)
   305b8:	18880014 	ori	r2,r3,8192
   305bc:	30801915 	stw	r2,100(r6)
   305c0:	003043c1 	jmpi	3043c <__fputwc>

000305c4 <fputwc>:
   305c4:	008000f4 	movhi	r2,3
   305c8:	defffc04 	addi	sp,sp,-16
   305cc:	109a9604 	addi	r2,r2,27224
   305d0:	dc000115 	stw	r16,4(sp)
   305d4:	14000017 	ldw	r16,0(r2)
   305d8:	dc400215 	stw	r17,8(sp)
   305dc:	dfc00315 	stw	ra,12(sp)
   305e0:	2023883a 	mov	r17,r4
   305e4:	80000226 	beq	r16,zero,305f0 <fputwc+0x2c>
   305e8:	80800e17 	ldw	r2,56(r16)
   305ec:	10001026 	beq	r2,zero,30630 <fputwc+0x6c>
   305f0:	2880030b 	ldhu	r2,12(r5)
   305f4:	10c8000c 	andi	r3,r2,8192
   305f8:	1800051e 	bne	r3,zero,30610 <fputwc+0x4c>
   305fc:	28c01917 	ldw	r3,100(r5)
   30600:	10880014 	ori	r2,r2,8192
   30604:	2880030d 	sth	r2,12(r5)
   30608:	18880014 	ori	r2,r3,8192
   3060c:	28801915 	stw	r2,100(r5)
   30610:	280d883a 	mov	r6,r5
   30614:	8009883a 	mov	r4,r16
   30618:	880b883a 	mov	r5,r17
   3061c:	dfc00317 	ldw	ra,12(sp)
   30620:	dc400217 	ldw	r17,8(sp)
   30624:	dc000117 	ldw	r16,4(sp)
   30628:	dec00404 	addi	sp,sp,16
   3062c:	003043c1 	jmpi	3043c <__fputwc>
   30630:	8009883a 	mov	r4,r16
   30634:	d9400015 	stw	r5,0(sp)
   30638:	002adc40 	call	2adc4 <__sinit>
   3063c:	d9400017 	ldw	r5,0(sp)
   30640:	003feb06 	br	305f0 <__alt_data_end+0xffff05f0>

00030644 <_wcrtomb_r>:
   30644:	defff604 	addi	sp,sp,-40
   30648:	008000f4 	movhi	r2,3
   3064c:	dc800815 	stw	r18,32(sp)
   30650:	dc400715 	stw	r17,28(sp)
   30654:	dc000615 	stw	r16,24(sp)
   30658:	109a9a04 	addi	r2,r2,27240
   3065c:	dfc00915 	stw	ra,36(sp)
   30660:	2021883a 	mov	r16,r4
   30664:	3823883a 	mov	r17,r7
   30668:	14800017 	ldw	r18,0(r2)
   3066c:	28001426 	beq	r5,zero,306c0 <_wcrtomb_r+0x7c>
   30670:	d9400415 	stw	r5,16(sp)
   30674:	d9800515 	stw	r6,20(sp)
   30678:	002ba080 	call	2ba08 <__locale_charset>
   3067c:	d9800517 	ldw	r6,20(sp)
   30680:	d9400417 	ldw	r5,16(sp)
   30684:	100f883a 	mov	r7,r2
   30688:	dc400015 	stw	r17,0(sp)
   3068c:	8009883a 	mov	r4,r16
   30690:	903ee83a 	callr	r18
   30694:	00ffffc4 	movi	r3,-1
   30698:	10c0031e 	bne	r2,r3,306a8 <_wcrtomb_r+0x64>
   3069c:	88000015 	stw	zero,0(r17)
   306a0:	00c02284 	movi	r3,138
   306a4:	80c00015 	stw	r3,0(r16)
   306a8:	dfc00917 	ldw	ra,36(sp)
   306ac:	dc800817 	ldw	r18,32(sp)
   306b0:	dc400717 	ldw	r17,28(sp)
   306b4:	dc000617 	ldw	r16,24(sp)
   306b8:	dec00a04 	addi	sp,sp,40
   306bc:	f800283a 	ret
   306c0:	002ba080 	call	2ba08 <__locale_charset>
   306c4:	100f883a 	mov	r7,r2
   306c8:	dc400015 	stw	r17,0(sp)
   306cc:	000d883a 	mov	r6,zero
   306d0:	d9400104 	addi	r5,sp,4
   306d4:	8009883a 	mov	r4,r16
   306d8:	903ee83a 	callr	r18
   306dc:	003fed06 	br	30694 <__alt_data_end+0xffff0694>

000306e0 <wcrtomb>:
   306e0:	defff604 	addi	sp,sp,-40
   306e4:	008000f4 	movhi	r2,3
   306e8:	dc800615 	stw	r18,24(sp)
   306ec:	dc400515 	stw	r17,20(sp)
   306f0:	109a9604 	addi	r2,r2,27224
   306f4:	dfc00915 	stw	ra,36(sp)
   306f8:	dd000815 	stw	r20,32(sp)
   306fc:	dcc00715 	stw	r19,28(sp)
   30700:	dc000415 	stw	r16,16(sp)
   30704:	3025883a 	mov	r18,r6
   30708:	14400017 	ldw	r17,0(r2)
   3070c:	20001926 	beq	r4,zero,30774 <wcrtomb+0x94>
   30710:	008000f4 	movhi	r2,3
   30714:	109a9a04 	addi	r2,r2,27240
   30718:	15000017 	ldw	r20,0(r2)
   3071c:	2021883a 	mov	r16,r4
   30720:	2827883a 	mov	r19,r5
   30724:	002ba080 	call	2ba08 <__locale_charset>
   30728:	100f883a 	mov	r7,r2
   3072c:	dc800015 	stw	r18,0(sp)
   30730:	980d883a 	mov	r6,r19
   30734:	800b883a 	mov	r5,r16
   30738:	8809883a 	mov	r4,r17
   3073c:	a03ee83a 	callr	r20
   30740:	00ffffc4 	movi	r3,-1
   30744:	10c0031e 	bne	r2,r3,30754 <wcrtomb+0x74>
   30748:	90000015 	stw	zero,0(r18)
   3074c:	00c02284 	movi	r3,138
   30750:	88c00015 	stw	r3,0(r17)
   30754:	dfc00917 	ldw	ra,36(sp)
   30758:	dd000817 	ldw	r20,32(sp)
   3075c:	dcc00717 	ldw	r19,28(sp)
   30760:	dc800617 	ldw	r18,24(sp)
   30764:	dc400517 	ldw	r17,20(sp)
   30768:	dc000417 	ldw	r16,16(sp)
   3076c:	dec00a04 	addi	sp,sp,40
   30770:	f800283a 	ret
   30774:	008000f4 	movhi	r2,3
   30778:	109a9a04 	addi	r2,r2,27240
   3077c:	14000017 	ldw	r16,0(r2)
   30780:	002ba080 	call	2ba08 <__locale_charset>
   30784:	100f883a 	mov	r7,r2
   30788:	dc800015 	stw	r18,0(sp)
   3078c:	000d883a 	mov	r6,zero
   30790:	d9400104 	addi	r5,sp,4
   30794:	8809883a 	mov	r4,r17
   30798:	803ee83a 	callr	r16
   3079c:	003fe806 	br	30740 <__alt_data_end+0xffff0740>

000307a0 <__ascii_wctomb>:
   307a0:	28000526 	beq	r5,zero,307b8 <__ascii_wctomb+0x18>
   307a4:	00803fc4 	movi	r2,255
   307a8:	11800536 	bltu	r2,r6,307c0 <__ascii_wctomb+0x20>
   307ac:	29800005 	stb	r6,0(r5)
   307b0:	00800044 	movi	r2,1
   307b4:	f800283a 	ret
   307b8:	0005883a 	mov	r2,zero
   307bc:	f800283a 	ret
   307c0:	00802284 	movi	r2,138
   307c4:	20800015 	stw	r2,0(r4)
   307c8:	00bfffc4 	movi	r2,-1
   307cc:	f800283a 	ret

000307d0 <_wctomb_r>:
   307d0:	008000f4 	movhi	r2,3
   307d4:	defff904 	addi	sp,sp,-28
   307d8:	109a9a04 	addi	r2,r2,27240
   307dc:	dfc00615 	stw	ra,24(sp)
   307e0:	dc400515 	stw	r17,20(sp)
   307e4:	dc000415 	stw	r16,16(sp)
   307e8:	3823883a 	mov	r17,r7
   307ec:	14000017 	ldw	r16,0(r2)
   307f0:	d9000115 	stw	r4,4(sp)
   307f4:	d9400215 	stw	r5,8(sp)
   307f8:	d9800315 	stw	r6,12(sp)
   307fc:	002ba080 	call	2ba08 <__locale_charset>
   30800:	d9800317 	ldw	r6,12(sp)
   30804:	d9400217 	ldw	r5,8(sp)
   30808:	d9000117 	ldw	r4,4(sp)
   3080c:	100f883a 	mov	r7,r2
   30810:	dc400015 	stw	r17,0(sp)
   30814:	803ee83a 	callr	r16
   30818:	dfc00617 	ldw	ra,24(sp)
   3081c:	dc400517 	ldw	r17,20(sp)
   30820:	dc000417 	ldw	r16,16(sp)
   30824:	dec00704 	addi	sp,sp,28
   30828:	f800283a 	ret

0003082c <__udivdi3>:
   3082c:	defff504 	addi	sp,sp,-44
   30830:	dcc00415 	stw	r19,16(sp)
   30834:	dc000115 	stw	r16,4(sp)
   30838:	dfc00a15 	stw	ra,40(sp)
   3083c:	df000915 	stw	fp,36(sp)
   30840:	ddc00815 	stw	r23,32(sp)
   30844:	dd800715 	stw	r22,28(sp)
   30848:	dd400615 	stw	r21,24(sp)
   3084c:	dd000515 	stw	r20,20(sp)
   30850:	dc800315 	stw	r18,12(sp)
   30854:	dc400215 	stw	r17,8(sp)
   30858:	2027883a 	mov	r19,r4
   3085c:	2821883a 	mov	r16,r5
   30860:	3800411e 	bne	r7,zero,30968 <__udivdi3+0x13c>
   30864:	3023883a 	mov	r17,r6
   30868:	2025883a 	mov	r18,r4
   3086c:	2980522e 	bgeu	r5,r6,309b8 <__udivdi3+0x18c>
   30870:	00bfffd4 	movui	r2,65535
   30874:	282d883a 	mov	r22,r5
   30878:	1180a836 	bltu	r2,r6,30b1c <__udivdi3+0x2f0>
   3087c:	00803fc4 	movi	r2,255
   30880:	1185803a 	cmpltu	r2,r2,r6
   30884:	100490fa 	slli	r2,r2,3
   30888:	3086d83a 	srl	r3,r6,r2
   3088c:	010000f4 	movhi	r4,3
   30890:	2115b504 	addi	r4,r4,22228
   30894:	20c7883a 	add	r3,r4,r3
   30898:	18c00003 	ldbu	r3,0(r3)
   3089c:	1885883a 	add	r2,r3,r2
   308a0:	00c00804 	movi	r3,32
   308a4:	1887c83a 	sub	r3,r3,r2
   308a8:	18000526 	beq	r3,zero,308c0 <__udivdi3+0x94>
   308ac:	80e0983a 	sll	r16,r16,r3
   308b0:	9884d83a 	srl	r2,r19,r2
   308b4:	30e2983a 	sll	r17,r6,r3
   308b8:	98e4983a 	sll	r18,r19,r3
   308bc:	142cb03a 	or	r22,r2,r16
   308c0:	882ad43a 	srli	r21,r17,16
   308c4:	b009883a 	mov	r4,r22
   308c8:	8d3fffcc 	andi	r20,r17,65535
   308cc:	a80b883a 	mov	r5,r21
   308d0:	0022e280 	call	22e28 <__umodsi3>
   308d4:	b009883a 	mov	r4,r22
   308d8:	a80b883a 	mov	r5,r21
   308dc:	1027883a 	mov	r19,r2
   308e0:	0022dc40 	call	22dc4 <__udivsi3>
   308e4:	102d883a 	mov	r22,r2
   308e8:	9826943a 	slli	r19,r19,16
   308ec:	9004d43a 	srli	r2,r18,16
   308f0:	a5a1383a 	mul	r16,r20,r22
   308f4:	14c4b03a 	or	r2,r2,r19
   308f8:	1400052e 	bgeu	r2,r16,30910 <__udivdi3+0xe4>
   308fc:	1445883a 	add	r2,r2,r17
   30900:	b0ffffc4 	addi	r3,r22,-1
   30904:	14400136 	bltu	r2,r17,3090c <__udivdi3+0xe0>
   30908:	14012336 	bltu	r2,r16,30d98 <__udivdi3+0x56c>
   3090c:	182d883a 	mov	r22,r3
   30910:	1421c83a 	sub	r16,r2,r16
   30914:	a80b883a 	mov	r5,r21
   30918:	8009883a 	mov	r4,r16
   3091c:	0022e280 	call	22e28 <__umodsi3>
   30920:	1027883a 	mov	r19,r2
   30924:	a80b883a 	mov	r5,r21
   30928:	8009883a 	mov	r4,r16
   3092c:	0022dc40 	call	22dc4 <__udivsi3>
   30930:	9826943a 	slli	r19,r19,16
   30934:	a0a9383a 	mul	r20,r20,r2
   30938:	94bfffcc 	andi	r18,r18,65535
   3093c:	94e4b03a 	or	r18,r18,r19
   30940:	9500052e 	bgeu	r18,r20,30958 <__udivdi3+0x12c>
   30944:	8ca5883a 	add	r18,r17,r18
   30948:	10ffffc4 	addi	r3,r2,-1
   3094c:	9440f136 	bltu	r18,r17,30d14 <__udivdi3+0x4e8>
   30950:	9500f02e 	bgeu	r18,r20,30d14 <__udivdi3+0x4e8>
   30954:	10bfff84 	addi	r2,r2,-2
   30958:	b00c943a 	slli	r6,r22,16
   3095c:	0007883a 	mov	r3,zero
   30960:	3084b03a 	or	r2,r6,r2
   30964:	00005906 	br	30acc <__udivdi3+0x2a0>
   30968:	29c05636 	bltu	r5,r7,30ac4 <__udivdi3+0x298>
   3096c:	00bfffd4 	movui	r2,65535
   30970:	11c0622e 	bgeu	r2,r7,30afc <__udivdi3+0x2d0>
   30974:	00804034 	movhi	r2,256
   30978:	10bfffc4 	addi	r2,r2,-1
   3097c:	11c0ee36 	bltu	r2,r7,30d38 <__udivdi3+0x50c>
   30980:	00800404 	movi	r2,16
   30984:	3886d83a 	srl	r3,r7,r2
   30988:	010000f4 	movhi	r4,3
   3098c:	2115b504 	addi	r4,r4,22228
   30990:	20c7883a 	add	r3,r4,r3
   30994:	18c00003 	ldbu	r3,0(r3)
   30998:	05400804 	movi	r21,32
   3099c:	1885883a 	add	r2,r3,r2
   309a0:	a8abc83a 	sub	r21,r21,r2
   309a4:	a800621e 	bne	r21,zero,30b30 <__udivdi3+0x304>
   309a8:	3c00e936 	bltu	r7,r16,30d50 <__udivdi3+0x524>
   309ac:	9985403a 	cmpgeu	r2,r19,r6
   309b0:	0007883a 	mov	r3,zero
   309b4:	00004506 	br	30acc <__udivdi3+0x2a0>
   309b8:	3000041e 	bne	r6,zero,309cc <__udivdi3+0x1a0>
   309bc:	000b883a 	mov	r5,zero
   309c0:	01000044 	movi	r4,1
   309c4:	0022dc40 	call	22dc4 <__udivsi3>
   309c8:	1023883a 	mov	r17,r2
   309cc:	00bfffd4 	movui	r2,65535
   309d0:	14404e2e 	bgeu	r2,r17,30b0c <__udivdi3+0x2e0>
   309d4:	00804034 	movhi	r2,256
   309d8:	10bfffc4 	addi	r2,r2,-1
   309dc:	1440d836 	bltu	r2,r17,30d40 <__udivdi3+0x514>
   309e0:	00800404 	movi	r2,16
   309e4:	8886d83a 	srl	r3,r17,r2
   309e8:	010000f4 	movhi	r4,3
   309ec:	2115b504 	addi	r4,r4,22228
   309f0:	20c7883a 	add	r3,r4,r3
   309f4:	18c00003 	ldbu	r3,0(r3)
   309f8:	1885883a 	add	r2,r3,r2
   309fc:	00c00804 	movi	r3,32
   30a00:	1887c83a 	sub	r3,r3,r2
   30a04:	18008f1e 	bne	r3,zero,30c44 <__udivdi3+0x418>
   30a08:	882ad43a 	srli	r21,r17,16
   30a0c:	8461c83a 	sub	r16,r16,r17
   30a10:	8d3fffcc 	andi	r20,r17,65535
   30a14:	00c00044 	movi	r3,1
   30a18:	8009883a 	mov	r4,r16
   30a1c:	a80b883a 	mov	r5,r21
   30a20:	d8c00015 	stw	r3,0(sp)
   30a24:	0022e280 	call	22e28 <__umodsi3>
   30a28:	8009883a 	mov	r4,r16
   30a2c:	a80b883a 	mov	r5,r21
   30a30:	1027883a 	mov	r19,r2
   30a34:	0022dc40 	call	22dc4 <__udivsi3>
   30a38:	9826943a 	slli	r19,r19,16
   30a3c:	9008d43a 	srli	r4,r18,16
   30a40:	1521383a 	mul	r16,r2,r20
   30a44:	102d883a 	mov	r22,r2
   30a48:	24c8b03a 	or	r4,r4,r19
   30a4c:	d8c00017 	ldw	r3,0(sp)
   30a50:	2400052e 	bgeu	r4,r16,30a68 <__udivdi3+0x23c>
   30a54:	2449883a 	add	r4,r4,r17
   30a58:	b0bfffc4 	addi	r2,r22,-1
   30a5c:	24400136 	bltu	r4,r17,30a64 <__udivdi3+0x238>
   30a60:	2400ca36 	bltu	r4,r16,30d8c <__udivdi3+0x560>
   30a64:	102d883a 	mov	r22,r2
   30a68:	2421c83a 	sub	r16,r4,r16
   30a6c:	a80b883a 	mov	r5,r21
   30a70:	8009883a 	mov	r4,r16
   30a74:	d8c00015 	stw	r3,0(sp)
   30a78:	0022e280 	call	22e28 <__umodsi3>
   30a7c:	1027883a 	mov	r19,r2
   30a80:	a80b883a 	mov	r5,r21
   30a84:	8009883a 	mov	r4,r16
   30a88:	0022dc40 	call	22dc4 <__udivsi3>
   30a8c:	9826943a 	slli	r19,r19,16
   30a90:	1529383a 	mul	r20,r2,r20
   30a94:	94bfffcc 	andi	r18,r18,65535
   30a98:	94e4b03a 	or	r18,r18,r19
   30a9c:	d8c00017 	ldw	r3,0(sp)
   30aa0:	9500052e 	bgeu	r18,r20,30ab8 <__udivdi3+0x28c>
   30aa4:	8ca5883a 	add	r18,r17,r18
   30aa8:	113fffc4 	addi	r4,r2,-1
   30aac:	94409736 	bltu	r18,r17,30d0c <__udivdi3+0x4e0>
   30ab0:	9500962e 	bgeu	r18,r20,30d0c <__udivdi3+0x4e0>
   30ab4:	10bfff84 	addi	r2,r2,-2
   30ab8:	b00c943a 	slli	r6,r22,16
   30abc:	3084b03a 	or	r2,r6,r2
   30ac0:	00000206 	br	30acc <__udivdi3+0x2a0>
   30ac4:	0007883a 	mov	r3,zero
   30ac8:	0005883a 	mov	r2,zero
   30acc:	dfc00a17 	ldw	ra,40(sp)
   30ad0:	df000917 	ldw	fp,36(sp)
   30ad4:	ddc00817 	ldw	r23,32(sp)
   30ad8:	dd800717 	ldw	r22,28(sp)
   30adc:	dd400617 	ldw	r21,24(sp)
   30ae0:	dd000517 	ldw	r20,20(sp)
   30ae4:	dcc00417 	ldw	r19,16(sp)
   30ae8:	dc800317 	ldw	r18,12(sp)
   30aec:	dc400217 	ldw	r17,8(sp)
   30af0:	dc000117 	ldw	r16,4(sp)
   30af4:	dec00b04 	addi	sp,sp,44
   30af8:	f800283a 	ret
   30afc:	00803fc4 	movi	r2,255
   30b00:	11c5803a 	cmpltu	r2,r2,r7
   30b04:	100490fa 	slli	r2,r2,3
   30b08:	003f9e06 	br	30984 <__alt_data_end+0xffff0984>
   30b0c:	00803fc4 	movi	r2,255
   30b10:	1445803a 	cmpltu	r2,r2,r17
   30b14:	100490fa 	slli	r2,r2,3
   30b18:	003fb206 	br	309e4 <__alt_data_end+0xffff09e4>
   30b1c:	00804034 	movhi	r2,256
   30b20:	10bfffc4 	addi	r2,r2,-1
   30b24:	11808836 	bltu	r2,r6,30d48 <__udivdi3+0x51c>
   30b28:	00800404 	movi	r2,16
   30b2c:	003f5606 	br	30888 <__alt_data_end+0xffff0888>
   30b30:	30aed83a 	srl	r23,r6,r2
   30b34:	3d4e983a 	sll	r7,r7,r21
   30b38:	80acd83a 	srl	r22,r16,r2
   30b3c:	9884d83a 	srl	r2,r19,r2
   30b40:	3deeb03a 	or	r23,r7,r23
   30b44:	b824d43a 	srli	r18,r23,16
   30b48:	8560983a 	sll	r16,r16,r21
   30b4c:	b009883a 	mov	r4,r22
   30b50:	900b883a 	mov	r5,r18
   30b54:	3568983a 	sll	r20,r6,r21
   30b58:	1420b03a 	or	r16,r2,r16
   30b5c:	0022e280 	call	22e28 <__umodsi3>
   30b60:	b009883a 	mov	r4,r22
   30b64:	900b883a 	mov	r5,r18
   30b68:	1023883a 	mov	r17,r2
   30b6c:	0022dc40 	call	22dc4 <__udivsi3>
   30b70:	8808943a 	slli	r4,r17,16
   30b74:	bf3fffcc 	andi	fp,r23,65535
   30b78:	8006d43a 	srli	r3,r16,16
   30b7c:	e0a3383a 	mul	r17,fp,r2
   30b80:	100d883a 	mov	r6,r2
   30b84:	1906b03a 	or	r3,r3,r4
   30b88:	1c40042e 	bgeu	r3,r17,30b9c <__udivdi3+0x370>
   30b8c:	1dc7883a 	add	r3,r3,r23
   30b90:	10bfffc4 	addi	r2,r2,-1
   30b94:	1dc0752e 	bgeu	r3,r23,30d6c <__udivdi3+0x540>
   30b98:	100d883a 	mov	r6,r2
   30b9c:	1c63c83a 	sub	r17,r3,r17
   30ba0:	900b883a 	mov	r5,r18
   30ba4:	8809883a 	mov	r4,r17
   30ba8:	d9800015 	stw	r6,0(sp)
   30bac:	0022e280 	call	22e28 <__umodsi3>
   30bb0:	102d883a 	mov	r22,r2
   30bb4:	8809883a 	mov	r4,r17
   30bb8:	900b883a 	mov	r5,r18
   30bbc:	0022dc40 	call	22dc4 <__udivsi3>
   30bc0:	b02c943a 	slli	r22,r22,16
   30bc4:	e089383a 	mul	r4,fp,r2
   30bc8:	843fffcc 	andi	r16,r16,65535
   30bcc:	85a0b03a 	or	r16,r16,r22
   30bd0:	d9800017 	ldw	r6,0(sp)
   30bd4:	8100042e 	bgeu	r16,r4,30be8 <__udivdi3+0x3bc>
   30bd8:	85e1883a 	add	r16,r16,r23
   30bdc:	10ffffc4 	addi	r3,r2,-1
   30be0:	85c05e2e 	bgeu	r16,r23,30d5c <__udivdi3+0x530>
   30be4:	1805883a 	mov	r2,r3
   30be8:	300c943a 	slli	r6,r6,16
   30bec:	a17fffcc 	andi	r5,r20,65535
   30bf0:	a028d43a 	srli	r20,r20,16
   30bf4:	3084b03a 	or	r2,r6,r2
   30bf8:	10ffffcc 	andi	r3,r2,65535
   30bfc:	100cd43a 	srli	r6,r2,16
   30c00:	194f383a 	mul	r7,r3,r5
   30c04:	1d07383a 	mul	r3,r3,r20
   30c08:	314b383a 	mul	r5,r6,r5
   30c0c:	3810d43a 	srli	r8,r7,16
   30c10:	8121c83a 	sub	r16,r16,r4
   30c14:	1947883a 	add	r3,r3,r5
   30c18:	40c7883a 	add	r3,r8,r3
   30c1c:	350d383a 	mul	r6,r6,r20
   30c20:	1940022e 	bgeu	r3,r5,30c2c <__udivdi3+0x400>
   30c24:	01000074 	movhi	r4,1
   30c28:	310d883a 	add	r6,r6,r4
   30c2c:	1828d43a 	srli	r20,r3,16
   30c30:	a18d883a 	add	r6,r20,r6
   30c34:	81803e36 	bltu	r16,r6,30d30 <__udivdi3+0x504>
   30c38:	81803826 	beq	r16,r6,30d1c <__udivdi3+0x4f0>
   30c3c:	0007883a 	mov	r3,zero
   30c40:	003fa206 	br	30acc <__alt_data_end+0xffff0acc>
   30c44:	88e2983a 	sll	r17,r17,r3
   30c48:	80a8d83a 	srl	r20,r16,r2
   30c4c:	80e0983a 	sll	r16,r16,r3
   30c50:	882ad43a 	srli	r21,r17,16
   30c54:	9884d83a 	srl	r2,r19,r2
   30c58:	a009883a 	mov	r4,r20
   30c5c:	a80b883a 	mov	r5,r21
   30c60:	142eb03a 	or	r23,r2,r16
   30c64:	98e4983a 	sll	r18,r19,r3
   30c68:	0022e280 	call	22e28 <__umodsi3>
   30c6c:	a009883a 	mov	r4,r20
   30c70:	a80b883a 	mov	r5,r21
   30c74:	1021883a 	mov	r16,r2
   30c78:	0022dc40 	call	22dc4 <__udivsi3>
   30c7c:	1039883a 	mov	fp,r2
   30c80:	8d3fffcc 	andi	r20,r17,65535
   30c84:	8020943a 	slli	r16,r16,16
   30c88:	b804d43a 	srli	r2,r23,16
   30c8c:	a72d383a 	mul	r22,r20,fp
   30c90:	1404b03a 	or	r2,r2,r16
   30c94:	1580062e 	bgeu	r2,r22,30cb0 <__udivdi3+0x484>
   30c98:	1445883a 	add	r2,r2,r17
   30c9c:	e0ffffc4 	addi	r3,fp,-1
   30ca0:	14403836 	bltu	r2,r17,30d84 <__udivdi3+0x558>
   30ca4:	1580372e 	bgeu	r2,r22,30d84 <__udivdi3+0x558>
   30ca8:	e73fff84 	addi	fp,fp,-2
   30cac:	1445883a 	add	r2,r2,r17
   30cb0:	15adc83a 	sub	r22,r2,r22
   30cb4:	a80b883a 	mov	r5,r21
   30cb8:	b009883a 	mov	r4,r22
   30cbc:	0022e280 	call	22e28 <__umodsi3>
   30cc0:	1027883a 	mov	r19,r2
   30cc4:	b009883a 	mov	r4,r22
   30cc8:	a80b883a 	mov	r5,r21
   30ccc:	0022dc40 	call	22dc4 <__udivsi3>
   30cd0:	9826943a 	slli	r19,r19,16
   30cd4:	a0a1383a 	mul	r16,r20,r2
   30cd8:	b93fffcc 	andi	r4,r23,65535
   30cdc:	24c8b03a 	or	r4,r4,r19
   30ce0:	2400062e 	bgeu	r4,r16,30cfc <__udivdi3+0x4d0>
   30ce4:	2449883a 	add	r4,r4,r17
   30ce8:	10ffffc4 	addi	r3,r2,-1
   30cec:	24402336 	bltu	r4,r17,30d7c <__udivdi3+0x550>
   30cf0:	2400222e 	bgeu	r4,r16,30d7c <__udivdi3+0x550>
   30cf4:	10bfff84 	addi	r2,r2,-2
   30cf8:	2449883a 	add	r4,r4,r17
   30cfc:	e038943a 	slli	fp,fp,16
   30d00:	2421c83a 	sub	r16,r4,r16
   30d04:	e086b03a 	or	r3,fp,r2
   30d08:	003f4306 	br	30a18 <__alt_data_end+0xffff0a18>
   30d0c:	2005883a 	mov	r2,r4
   30d10:	003f6906 	br	30ab8 <__alt_data_end+0xffff0ab8>
   30d14:	1805883a 	mov	r2,r3
   30d18:	003f0f06 	br	30958 <__alt_data_end+0xffff0958>
   30d1c:	1806943a 	slli	r3,r3,16
   30d20:	9d66983a 	sll	r19,r19,r21
   30d24:	39ffffcc 	andi	r7,r7,65535
   30d28:	19c7883a 	add	r3,r3,r7
   30d2c:	98ffc32e 	bgeu	r19,r3,30c3c <__alt_data_end+0xffff0c3c>
   30d30:	10bfffc4 	addi	r2,r2,-1
   30d34:	003fc106 	br	30c3c <__alt_data_end+0xffff0c3c>
   30d38:	00800604 	movi	r2,24
   30d3c:	003f1106 	br	30984 <__alt_data_end+0xffff0984>
   30d40:	00800604 	movi	r2,24
   30d44:	003f2706 	br	309e4 <__alt_data_end+0xffff09e4>
   30d48:	00800604 	movi	r2,24
   30d4c:	003ece06 	br	30888 <__alt_data_end+0xffff0888>
   30d50:	0007883a 	mov	r3,zero
   30d54:	00800044 	movi	r2,1
   30d58:	003f5c06 	br	30acc <__alt_data_end+0xffff0acc>
   30d5c:	813fa12e 	bgeu	r16,r4,30be4 <__alt_data_end+0xffff0be4>
   30d60:	10bfff84 	addi	r2,r2,-2
   30d64:	85e1883a 	add	r16,r16,r23
   30d68:	003f9f06 	br	30be8 <__alt_data_end+0xffff0be8>
   30d6c:	1c7f8a2e 	bgeu	r3,r17,30b98 <__alt_data_end+0xffff0b98>
   30d70:	31bfff84 	addi	r6,r6,-2
   30d74:	1dc7883a 	add	r3,r3,r23
   30d78:	003f8806 	br	30b9c <__alt_data_end+0xffff0b9c>
   30d7c:	1805883a 	mov	r2,r3
   30d80:	003fde06 	br	30cfc <__alt_data_end+0xffff0cfc>
   30d84:	1839883a 	mov	fp,r3
   30d88:	003fc906 	br	30cb0 <__alt_data_end+0xffff0cb0>
   30d8c:	b5bfff84 	addi	r22,r22,-2
   30d90:	2449883a 	add	r4,r4,r17
   30d94:	003f3406 	br	30a68 <__alt_data_end+0xffff0a68>
   30d98:	b5bfff84 	addi	r22,r22,-2
   30d9c:	1445883a 	add	r2,r2,r17
   30da0:	003edb06 	br	30910 <__alt_data_end+0xffff0910>

00030da4 <__umoddi3>:
   30da4:	defff404 	addi	sp,sp,-48
   30da8:	df000a15 	stw	fp,40(sp)
   30dac:	dc400315 	stw	r17,12(sp)
   30db0:	dc000215 	stw	r16,8(sp)
   30db4:	dfc00b15 	stw	ra,44(sp)
   30db8:	ddc00915 	stw	r23,36(sp)
   30dbc:	dd800815 	stw	r22,32(sp)
   30dc0:	dd400715 	stw	r21,28(sp)
   30dc4:	dd000615 	stw	r20,24(sp)
   30dc8:	dcc00515 	stw	r19,20(sp)
   30dcc:	dc800415 	stw	r18,16(sp)
   30dd0:	2021883a 	mov	r16,r4
   30dd4:	2823883a 	mov	r17,r5
   30dd8:	2839883a 	mov	fp,r5
   30ddc:	38003c1e 	bne	r7,zero,30ed0 <__umoddi3+0x12c>
   30de0:	3027883a 	mov	r19,r6
   30de4:	2029883a 	mov	r20,r4
   30de8:	2980512e 	bgeu	r5,r6,30f30 <__umoddi3+0x18c>
   30dec:	00bfffd4 	movui	r2,65535
   30df0:	11809a36 	bltu	r2,r6,3105c <__umoddi3+0x2b8>
   30df4:	01003fc4 	movi	r4,255
   30df8:	2189803a 	cmpltu	r4,r4,r6
   30dfc:	200890fa 	slli	r4,r4,3
   30e00:	3104d83a 	srl	r2,r6,r4
   30e04:	00c000f4 	movhi	r3,3
   30e08:	18d5b504 	addi	r3,r3,22228
   30e0c:	1885883a 	add	r2,r3,r2
   30e10:	10c00003 	ldbu	r3,0(r2)
   30e14:	00800804 	movi	r2,32
   30e18:	1909883a 	add	r4,r3,r4
   30e1c:	1125c83a 	sub	r18,r2,r4
   30e20:	90000526 	beq	r18,zero,30e38 <__umoddi3+0x94>
   30e24:	8ca2983a 	sll	r17,r17,r18
   30e28:	8108d83a 	srl	r4,r16,r4
   30e2c:	34a6983a 	sll	r19,r6,r18
   30e30:	84a8983a 	sll	r20,r16,r18
   30e34:	2478b03a 	or	fp,r4,r17
   30e38:	982ed43a 	srli	r23,r19,16
   30e3c:	e009883a 	mov	r4,fp
   30e40:	9dbfffcc 	andi	r22,r19,65535
   30e44:	b80b883a 	mov	r5,r23
   30e48:	0022e280 	call	22e28 <__umodsi3>
   30e4c:	e009883a 	mov	r4,fp
   30e50:	b80b883a 	mov	r5,r23
   30e54:	102b883a 	mov	r21,r2
   30e58:	0022dc40 	call	22dc4 <__udivsi3>
   30e5c:	a806943a 	slli	r3,r21,16
   30e60:	a008d43a 	srli	r4,r20,16
   30e64:	b085383a 	mul	r2,r22,r2
   30e68:	20c8b03a 	or	r4,r4,r3
   30e6c:	2080032e 	bgeu	r4,r2,30e7c <__umoddi3+0xd8>
   30e70:	24c9883a 	add	r4,r4,r19
   30e74:	24c00136 	bltu	r4,r19,30e7c <__umoddi3+0xd8>
   30e78:	20811036 	bltu	r4,r2,312bc <__umoddi3+0x518>
   30e7c:	20abc83a 	sub	r21,r4,r2
   30e80:	b80b883a 	mov	r5,r23
   30e84:	a809883a 	mov	r4,r21
   30e88:	0022e280 	call	22e28 <__umodsi3>
   30e8c:	1023883a 	mov	r17,r2
   30e90:	b80b883a 	mov	r5,r23
   30e94:	a809883a 	mov	r4,r21
   30e98:	0022dc40 	call	22dc4 <__udivsi3>
   30e9c:	8822943a 	slli	r17,r17,16
   30ea0:	b085383a 	mul	r2,r22,r2
   30ea4:	a0ffffcc 	andi	r3,r20,65535
   30ea8:	1c46b03a 	or	r3,r3,r17
   30eac:	1880042e 	bgeu	r3,r2,30ec0 <__umoddi3+0x11c>
   30eb0:	1cc7883a 	add	r3,r3,r19
   30eb4:	1cc00236 	bltu	r3,r19,30ec0 <__umoddi3+0x11c>
   30eb8:	1880012e 	bgeu	r3,r2,30ec0 <__umoddi3+0x11c>
   30ebc:	1cc7883a 	add	r3,r3,r19
   30ec0:	1885c83a 	sub	r2,r3,r2
   30ec4:	1484d83a 	srl	r2,r2,r18
   30ec8:	0007883a 	mov	r3,zero
   30ecc:	00004f06 	br	3100c <__umoddi3+0x268>
   30ed0:	29c04c36 	bltu	r5,r7,31004 <__umoddi3+0x260>
   30ed4:	00bfffd4 	movui	r2,65535
   30ed8:	11c0582e 	bgeu	r2,r7,3103c <__umoddi3+0x298>
   30edc:	00804034 	movhi	r2,256
   30ee0:	10bfffc4 	addi	r2,r2,-1
   30ee4:	11c0e736 	bltu	r2,r7,31284 <__umoddi3+0x4e0>
   30ee8:	01000404 	movi	r4,16
   30eec:	3904d83a 	srl	r2,r7,r4
   30ef0:	00c000f4 	movhi	r3,3
   30ef4:	18d5b504 	addi	r3,r3,22228
   30ef8:	1885883a 	add	r2,r3,r2
   30efc:	14c00003 	ldbu	r19,0(r2)
   30f00:	00c00804 	movi	r3,32
   30f04:	9927883a 	add	r19,r19,r4
   30f08:	1ce9c83a 	sub	r20,r3,r19
   30f0c:	a000581e 	bne	r20,zero,31070 <__umoddi3+0x2cc>
   30f10:	3c400136 	bltu	r7,r17,30f18 <__umoddi3+0x174>
   30f14:	8180eb36 	bltu	r16,r6,312c4 <__umoddi3+0x520>
   30f18:	8185c83a 	sub	r2,r16,r6
   30f1c:	89e3c83a 	sub	r17,r17,r7
   30f20:	8089803a 	cmpltu	r4,r16,r2
   30f24:	8939c83a 	sub	fp,r17,r4
   30f28:	e007883a 	mov	r3,fp
   30f2c:	00003706 	br	3100c <__umoddi3+0x268>
   30f30:	3000041e 	bne	r6,zero,30f44 <__umoddi3+0x1a0>
   30f34:	000b883a 	mov	r5,zero
   30f38:	01000044 	movi	r4,1
   30f3c:	0022dc40 	call	22dc4 <__udivsi3>
   30f40:	1027883a 	mov	r19,r2
   30f44:	00bfffd4 	movui	r2,65535
   30f48:	14c0402e 	bgeu	r2,r19,3104c <__umoddi3+0x2a8>
   30f4c:	00804034 	movhi	r2,256
   30f50:	10bfffc4 	addi	r2,r2,-1
   30f54:	14c0cd36 	bltu	r2,r19,3128c <__umoddi3+0x4e8>
   30f58:	00800404 	movi	r2,16
   30f5c:	9886d83a 	srl	r3,r19,r2
   30f60:	010000f4 	movhi	r4,3
   30f64:	2115b504 	addi	r4,r4,22228
   30f68:	20c7883a 	add	r3,r4,r3
   30f6c:	18c00003 	ldbu	r3,0(r3)
   30f70:	1887883a 	add	r3,r3,r2
   30f74:	00800804 	movi	r2,32
   30f78:	10e5c83a 	sub	r18,r2,r3
   30f7c:	9000901e 	bne	r18,zero,311c0 <__umoddi3+0x41c>
   30f80:	982cd43a 	srli	r22,r19,16
   30f84:	8ce3c83a 	sub	r17,r17,r19
   30f88:	9d7fffcc 	andi	r21,r19,65535
   30f8c:	b00b883a 	mov	r5,r22
   30f90:	8809883a 	mov	r4,r17
   30f94:	0022e280 	call	22e28 <__umodsi3>
   30f98:	8809883a 	mov	r4,r17
   30f9c:	b00b883a 	mov	r5,r22
   30fa0:	1021883a 	mov	r16,r2
   30fa4:	0022dc40 	call	22dc4 <__udivsi3>
   30fa8:	8006943a 	slli	r3,r16,16
   30fac:	a008d43a 	srli	r4,r20,16
   30fb0:	1545383a 	mul	r2,r2,r21
   30fb4:	20c8b03a 	or	r4,r4,r3
   30fb8:	2080042e 	bgeu	r4,r2,30fcc <__umoddi3+0x228>
   30fbc:	24c9883a 	add	r4,r4,r19
   30fc0:	24c00236 	bltu	r4,r19,30fcc <__umoddi3+0x228>
   30fc4:	2080012e 	bgeu	r4,r2,30fcc <__umoddi3+0x228>
   30fc8:	24c9883a 	add	r4,r4,r19
   30fcc:	20a1c83a 	sub	r16,r4,r2
   30fd0:	b00b883a 	mov	r5,r22
   30fd4:	8009883a 	mov	r4,r16
   30fd8:	0022e280 	call	22e28 <__umodsi3>
   30fdc:	1023883a 	mov	r17,r2
   30fe0:	b00b883a 	mov	r5,r22
   30fe4:	8009883a 	mov	r4,r16
   30fe8:	0022dc40 	call	22dc4 <__udivsi3>
   30fec:	8822943a 	slli	r17,r17,16
   30ff0:	1545383a 	mul	r2,r2,r21
   30ff4:	a53fffcc 	andi	r20,r20,65535
   30ff8:	a446b03a 	or	r3,r20,r17
   30ffc:	18bfb02e 	bgeu	r3,r2,30ec0 <__alt_data_end+0xffff0ec0>
   31000:	003fab06 	br	30eb0 <__alt_data_end+0xffff0eb0>
   31004:	2005883a 	mov	r2,r4
   31008:	2807883a 	mov	r3,r5
   3100c:	dfc00b17 	ldw	ra,44(sp)
   31010:	df000a17 	ldw	fp,40(sp)
   31014:	ddc00917 	ldw	r23,36(sp)
   31018:	dd800817 	ldw	r22,32(sp)
   3101c:	dd400717 	ldw	r21,28(sp)
   31020:	dd000617 	ldw	r20,24(sp)
   31024:	dcc00517 	ldw	r19,20(sp)
   31028:	dc800417 	ldw	r18,16(sp)
   3102c:	dc400317 	ldw	r17,12(sp)
   31030:	dc000217 	ldw	r16,8(sp)
   31034:	dec00c04 	addi	sp,sp,48
   31038:	f800283a 	ret
   3103c:	04c03fc4 	movi	r19,255
   31040:	99c9803a 	cmpltu	r4,r19,r7
   31044:	200890fa 	slli	r4,r4,3
   31048:	003fa806 	br	30eec <__alt_data_end+0xffff0eec>
   3104c:	00803fc4 	movi	r2,255
   31050:	14c5803a 	cmpltu	r2,r2,r19
   31054:	100490fa 	slli	r2,r2,3
   31058:	003fc006 	br	30f5c <__alt_data_end+0xffff0f5c>
   3105c:	00804034 	movhi	r2,256
   31060:	10bfffc4 	addi	r2,r2,-1
   31064:	11808b36 	bltu	r2,r6,31294 <__umoddi3+0x4f0>
   31068:	01000404 	movi	r4,16
   3106c:	003f6406 	br	30e00 <__alt_data_end+0xffff0e00>
   31070:	34c4d83a 	srl	r2,r6,r19
   31074:	3d0e983a 	sll	r7,r7,r20
   31078:	8cf8d83a 	srl	fp,r17,r19
   3107c:	8d10983a 	sll	r8,r17,r20
   31080:	38aab03a 	or	r21,r7,r2
   31084:	a82cd43a 	srli	r22,r21,16
   31088:	84e2d83a 	srl	r17,r16,r19
   3108c:	e009883a 	mov	r4,fp
   31090:	b00b883a 	mov	r5,r22
   31094:	8a22b03a 	or	r17,r17,r8
   31098:	3524983a 	sll	r18,r6,r20
   3109c:	0022e280 	call	22e28 <__umodsi3>
   310a0:	e009883a 	mov	r4,fp
   310a4:	b00b883a 	mov	r5,r22
   310a8:	102f883a 	mov	r23,r2
   310ac:	0022dc40 	call	22dc4 <__udivsi3>
   310b0:	100d883a 	mov	r6,r2
   310b4:	b808943a 	slli	r4,r23,16
   310b8:	aa3fffcc 	andi	r8,r21,65535
   310bc:	8804d43a 	srli	r2,r17,16
   310c0:	41af383a 	mul	r23,r8,r6
   310c4:	8520983a 	sll	r16,r16,r20
   310c8:	1104b03a 	or	r2,r2,r4
   310cc:	15c0042e 	bgeu	r2,r23,310e0 <__umoddi3+0x33c>
   310d0:	1545883a 	add	r2,r2,r21
   310d4:	30ffffc4 	addi	r3,r6,-1
   310d8:	1540742e 	bgeu	r2,r21,312ac <__umoddi3+0x508>
   310dc:	180d883a 	mov	r6,r3
   310e0:	15efc83a 	sub	r23,r2,r23
   310e4:	b00b883a 	mov	r5,r22
   310e8:	b809883a 	mov	r4,r23
   310ec:	d9800115 	stw	r6,4(sp)
   310f0:	da000015 	stw	r8,0(sp)
   310f4:	0022e280 	call	22e28 <__umodsi3>
   310f8:	b00b883a 	mov	r5,r22
   310fc:	b809883a 	mov	r4,r23
   31100:	1039883a 	mov	fp,r2
   31104:	0022dc40 	call	22dc4 <__udivsi3>
   31108:	da000017 	ldw	r8,0(sp)
   3110c:	e038943a 	slli	fp,fp,16
   31110:	100b883a 	mov	r5,r2
   31114:	4089383a 	mul	r4,r8,r2
   31118:	8a3fffcc 	andi	r8,r17,65535
   3111c:	4710b03a 	or	r8,r8,fp
   31120:	d9800117 	ldw	r6,4(sp)
   31124:	4100042e 	bgeu	r8,r4,31138 <__umoddi3+0x394>
   31128:	4551883a 	add	r8,r8,r21
   3112c:	10bfffc4 	addi	r2,r2,-1
   31130:	45405a2e 	bgeu	r8,r21,3129c <__umoddi3+0x4f8>
   31134:	100b883a 	mov	r5,r2
   31138:	300c943a 	slli	r6,r6,16
   3113c:	91ffffcc 	andi	r7,r18,65535
   31140:	9004d43a 	srli	r2,r18,16
   31144:	314cb03a 	or	r6,r6,r5
   31148:	317fffcc 	andi	r5,r6,65535
   3114c:	300cd43a 	srli	r6,r6,16
   31150:	29d3383a 	mul	r9,r5,r7
   31154:	288b383a 	mul	r5,r5,r2
   31158:	31cf383a 	mul	r7,r6,r7
   3115c:	4806d43a 	srli	r3,r9,16
   31160:	4111c83a 	sub	r8,r8,r4
   31164:	29cb883a 	add	r5,r5,r7
   31168:	194b883a 	add	r5,r3,r5
   3116c:	3085383a 	mul	r2,r6,r2
   31170:	29c0022e 	bgeu	r5,r7,3117c <__umoddi3+0x3d8>
   31174:	00c00074 	movhi	r3,1
   31178:	10c5883a 	add	r2,r2,r3
   3117c:	2808d43a 	srli	r4,r5,16
   31180:	280a943a 	slli	r5,r5,16
   31184:	4a7fffcc 	andi	r9,r9,65535
   31188:	2085883a 	add	r2,r4,r2
   3118c:	2a4b883a 	add	r5,r5,r9
   31190:	40803636 	bltu	r8,r2,3126c <__umoddi3+0x4c8>
   31194:	40804d26 	beq	r8,r2,312cc <__umoddi3+0x528>
   31198:	4089c83a 	sub	r4,r8,r2
   3119c:	280f883a 	mov	r7,r5
   311a0:	81cfc83a 	sub	r7,r16,r7
   311a4:	81c7803a 	cmpltu	r3,r16,r7
   311a8:	20c7c83a 	sub	r3,r4,r3
   311ac:	1cc4983a 	sll	r2,r3,r19
   311b0:	3d0ed83a 	srl	r7,r7,r20
   311b4:	1d06d83a 	srl	r3,r3,r20
   311b8:	11c4b03a 	or	r2,r2,r7
   311bc:	003f9306 	br	3100c <__alt_data_end+0xffff100c>
   311c0:	9ca6983a 	sll	r19,r19,r18
   311c4:	88e8d83a 	srl	r20,r17,r3
   311c8:	80c4d83a 	srl	r2,r16,r3
   311cc:	982cd43a 	srli	r22,r19,16
   311d0:	8ca2983a 	sll	r17,r17,r18
   311d4:	a009883a 	mov	r4,r20
   311d8:	b00b883a 	mov	r5,r22
   311dc:	1478b03a 	or	fp,r2,r17
   311e0:	0022e280 	call	22e28 <__umodsi3>
   311e4:	a009883a 	mov	r4,r20
   311e8:	b00b883a 	mov	r5,r22
   311ec:	1023883a 	mov	r17,r2
   311f0:	0022dc40 	call	22dc4 <__udivsi3>
   311f4:	9d7fffcc 	andi	r21,r19,65535
   311f8:	880a943a 	slli	r5,r17,16
   311fc:	e008d43a 	srli	r4,fp,16
   31200:	a885383a 	mul	r2,r21,r2
   31204:	84a8983a 	sll	r20,r16,r18
   31208:	2148b03a 	or	r4,r4,r5
   3120c:	2080042e 	bgeu	r4,r2,31220 <__umoddi3+0x47c>
   31210:	24c9883a 	add	r4,r4,r19
   31214:	24c00236 	bltu	r4,r19,31220 <__umoddi3+0x47c>
   31218:	2080012e 	bgeu	r4,r2,31220 <__umoddi3+0x47c>
   3121c:	24c9883a 	add	r4,r4,r19
   31220:	20a3c83a 	sub	r17,r4,r2
   31224:	b00b883a 	mov	r5,r22
   31228:	8809883a 	mov	r4,r17
   3122c:	0022e280 	call	22e28 <__umodsi3>
   31230:	102f883a 	mov	r23,r2
   31234:	8809883a 	mov	r4,r17
   31238:	b00b883a 	mov	r5,r22
   3123c:	0022dc40 	call	22dc4 <__udivsi3>
   31240:	b82e943a 	slli	r23,r23,16
   31244:	a885383a 	mul	r2,r21,r2
   31248:	e13fffcc 	andi	r4,fp,65535
   3124c:	25c8b03a 	or	r4,r4,r23
   31250:	2080042e 	bgeu	r4,r2,31264 <__umoddi3+0x4c0>
   31254:	24c9883a 	add	r4,r4,r19
   31258:	24c00236 	bltu	r4,r19,31264 <__umoddi3+0x4c0>
   3125c:	2080012e 	bgeu	r4,r2,31264 <__umoddi3+0x4c0>
   31260:	24c9883a 	add	r4,r4,r19
   31264:	20a3c83a 	sub	r17,r4,r2
   31268:	003f4806 	br	30f8c <__alt_data_end+0xffff0f8c>
   3126c:	2c8fc83a 	sub	r7,r5,r18
   31270:	1545c83a 	sub	r2,r2,r21
   31274:	29cb803a 	cmpltu	r5,r5,r7
   31278:	1145c83a 	sub	r2,r2,r5
   3127c:	4089c83a 	sub	r4,r8,r2
   31280:	003fc706 	br	311a0 <__alt_data_end+0xffff11a0>
   31284:	01000604 	movi	r4,24
   31288:	003f1806 	br	30eec <__alt_data_end+0xffff0eec>
   3128c:	00800604 	movi	r2,24
   31290:	003f3206 	br	30f5c <__alt_data_end+0xffff0f5c>
   31294:	01000604 	movi	r4,24
   31298:	003ed906 	br	30e00 <__alt_data_end+0xffff0e00>
   3129c:	413fa52e 	bgeu	r8,r4,31134 <__alt_data_end+0xffff1134>
   312a0:	297fff84 	addi	r5,r5,-2
   312a4:	4551883a 	add	r8,r8,r21
   312a8:	003fa306 	br	31138 <__alt_data_end+0xffff1138>
   312ac:	15ff8b2e 	bgeu	r2,r23,310dc <__alt_data_end+0xffff10dc>
   312b0:	31bfff84 	addi	r6,r6,-2
   312b4:	1545883a 	add	r2,r2,r21
   312b8:	003f8906 	br	310e0 <__alt_data_end+0xffff10e0>
   312bc:	24c9883a 	add	r4,r4,r19
   312c0:	003eee06 	br	30e7c <__alt_data_end+0xffff0e7c>
   312c4:	8005883a 	mov	r2,r16
   312c8:	003f1706 	br	30f28 <__alt_data_end+0xffff0f28>
   312cc:	817fe736 	bltu	r16,r5,3126c <__alt_data_end+0xffff126c>
   312d0:	280f883a 	mov	r7,r5
   312d4:	0009883a 	mov	r4,zero
   312d8:	003fb106 	br	311a0 <__alt_data_end+0xffff11a0>

000312dc <__adddf3>:
   312dc:	02c00434 	movhi	r11,16
   312e0:	5affffc4 	addi	r11,r11,-1
   312e4:	2806d7fa 	srli	r3,r5,31
   312e8:	2ad4703a 	and	r10,r5,r11
   312ec:	3ad2703a 	and	r9,r7,r11
   312f0:	3804d53a 	srli	r2,r7,20
   312f4:	3018d77a 	srli	r12,r6,29
   312f8:	280ad53a 	srli	r5,r5,20
   312fc:	501490fa 	slli	r10,r10,3
   31300:	2010d77a 	srli	r8,r4,29
   31304:	481290fa 	slli	r9,r9,3
   31308:	380ed7fa 	srli	r7,r7,31
   3130c:	defffb04 	addi	sp,sp,-20
   31310:	dc800215 	stw	r18,8(sp)
   31314:	dc400115 	stw	r17,4(sp)
   31318:	dc000015 	stw	r16,0(sp)
   3131c:	dfc00415 	stw	ra,16(sp)
   31320:	dcc00315 	stw	r19,12(sp)
   31324:	1c803fcc 	andi	r18,r3,255
   31328:	2c01ffcc 	andi	r16,r5,2047
   3132c:	5210b03a 	or	r8,r10,r8
   31330:	202290fa 	slli	r17,r4,3
   31334:	1081ffcc 	andi	r2,r2,2047
   31338:	4b12b03a 	or	r9,r9,r12
   3133c:	300c90fa 	slli	r6,r6,3
   31340:	91c07526 	beq	r18,r7,31518 <__adddf3+0x23c>
   31344:	8087c83a 	sub	r3,r16,r2
   31348:	00c0ab0e 	bge	zero,r3,315f8 <__adddf3+0x31c>
   3134c:	10002a1e 	bne	r2,zero,313f8 <__adddf3+0x11c>
   31350:	4984b03a 	or	r2,r9,r6
   31354:	1000961e 	bne	r2,zero,315b0 <__adddf3+0x2d4>
   31358:	888001cc 	andi	r2,r17,7
   3135c:	10000726 	beq	r2,zero,3137c <__adddf3+0xa0>
   31360:	888003cc 	andi	r2,r17,15
   31364:	00c00104 	movi	r3,4
   31368:	10c00426 	beq	r2,r3,3137c <__adddf3+0xa0>
   3136c:	88c7883a 	add	r3,r17,r3
   31370:	1c63803a 	cmpltu	r17,r3,r17
   31374:	4451883a 	add	r8,r8,r17
   31378:	1823883a 	mov	r17,r3
   3137c:	4080202c 	andhi	r2,r8,128
   31380:	10005926 	beq	r2,zero,314e8 <__adddf3+0x20c>
   31384:	84000044 	addi	r16,r16,1
   31388:	0081ffc4 	movi	r2,2047
   3138c:	8080ba26 	beq	r16,r2,31678 <__adddf3+0x39c>
   31390:	00bfe034 	movhi	r2,65408
   31394:	10bfffc4 	addi	r2,r2,-1
   31398:	4090703a 	and	r8,r8,r2
   3139c:	4004977a 	slli	r2,r8,29
   313a0:	4010927a 	slli	r8,r8,9
   313a4:	8822d0fa 	srli	r17,r17,3
   313a8:	8401ffcc 	andi	r16,r16,2047
   313ac:	4010d33a 	srli	r8,r8,12
   313b0:	9007883a 	mov	r3,r18
   313b4:	1444b03a 	or	r2,r2,r17
   313b8:	8401ffcc 	andi	r16,r16,2047
   313bc:	8020953a 	slli	r16,r16,20
   313c0:	18c03fcc 	andi	r3,r3,255
   313c4:	01000434 	movhi	r4,16
   313c8:	213fffc4 	addi	r4,r4,-1
   313cc:	180697fa 	slli	r3,r3,31
   313d0:	4110703a 	and	r8,r8,r4
   313d4:	4410b03a 	or	r8,r8,r16
   313d8:	40c6b03a 	or	r3,r8,r3
   313dc:	dfc00417 	ldw	ra,16(sp)
   313e0:	dcc00317 	ldw	r19,12(sp)
   313e4:	dc800217 	ldw	r18,8(sp)
   313e8:	dc400117 	ldw	r17,4(sp)
   313ec:	dc000017 	ldw	r16,0(sp)
   313f0:	dec00504 	addi	sp,sp,20
   313f4:	f800283a 	ret
   313f8:	0081ffc4 	movi	r2,2047
   313fc:	80bfd626 	beq	r16,r2,31358 <__alt_data_end+0xffff1358>
   31400:	4a402034 	orhi	r9,r9,128
   31404:	00800e04 	movi	r2,56
   31408:	10c09f16 	blt	r2,r3,31688 <__adddf3+0x3ac>
   3140c:	008007c4 	movi	r2,31
   31410:	10c0c216 	blt	r2,r3,3171c <__adddf3+0x440>
   31414:	00800804 	movi	r2,32
   31418:	10c5c83a 	sub	r2,r2,r3
   3141c:	488a983a 	sll	r5,r9,r2
   31420:	30c8d83a 	srl	r4,r6,r3
   31424:	3084983a 	sll	r2,r6,r2
   31428:	48c6d83a 	srl	r3,r9,r3
   3142c:	290cb03a 	or	r6,r5,r4
   31430:	1004c03a 	cmpne	r2,r2,zero
   31434:	308cb03a 	or	r6,r6,r2
   31438:	898dc83a 	sub	r6,r17,r6
   3143c:	89a3803a 	cmpltu	r17,r17,r6
   31440:	40d1c83a 	sub	r8,r8,r3
   31444:	4451c83a 	sub	r8,r8,r17
   31448:	3023883a 	mov	r17,r6
   3144c:	4080202c 	andhi	r2,r8,128
   31450:	10002326 	beq	r2,zero,314e0 <__adddf3+0x204>
   31454:	04c02034 	movhi	r19,128
   31458:	9cffffc4 	addi	r19,r19,-1
   3145c:	44e6703a 	and	r19,r8,r19
   31460:	98007626 	beq	r19,zero,3163c <__adddf3+0x360>
   31464:	9809883a 	mov	r4,r19
   31468:	00338e00 	call	338e0 <__clzsi2>
   3146c:	10fffe04 	addi	r3,r2,-8
   31470:	010007c4 	movi	r4,31
   31474:	20c07716 	blt	r4,r3,31654 <__adddf3+0x378>
   31478:	00800804 	movi	r2,32
   3147c:	10c5c83a 	sub	r2,r2,r3
   31480:	8884d83a 	srl	r2,r17,r2
   31484:	98d0983a 	sll	r8,r19,r3
   31488:	88e2983a 	sll	r17,r17,r3
   3148c:	1204b03a 	or	r2,r2,r8
   31490:	1c007416 	blt	r3,r16,31664 <__adddf3+0x388>
   31494:	1c21c83a 	sub	r16,r3,r16
   31498:	82000044 	addi	r8,r16,1
   3149c:	00c007c4 	movi	r3,31
   314a0:	1a009116 	blt	r3,r8,316e8 <__adddf3+0x40c>
   314a4:	00c00804 	movi	r3,32
   314a8:	1a07c83a 	sub	r3,r3,r8
   314ac:	8a08d83a 	srl	r4,r17,r8
   314b0:	88e2983a 	sll	r17,r17,r3
   314b4:	10c6983a 	sll	r3,r2,r3
   314b8:	1210d83a 	srl	r8,r2,r8
   314bc:	8804c03a 	cmpne	r2,r17,zero
   314c0:	1906b03a 	or	r3,r3,r4
   314c4:	18a2b03a 	or	r17,r3,r2
   314c8:	0021883a 	mov	r16,zero
   314cc:	003fa206 	br	31358 <__alt_data_end+0xffff1358>
   314d0:	1890b03a 	or	r8,r3,r2
   314d4:	40017d26 	beq	r8,zero,31acc <__adddf3+0x7f0>
   314d8:	1011883a 	mov	r8,r2
   314dc:	1823883a 	mov	r17,r3
   314e0:	888001cc 	andi	r2,r17,7
   314e4:	103f9e1e 	bne	r2,zero,31360 <__alt_data_end+0xffff1360>
   314e8:	4004977a 	slli	r2,r8,29
   314ec:	8822d0fa 	srli	r17,r17,3
   314f0:	4010d0fa 	srli	r8,r8,3
   314f4:	9007883a 	mov	r3,r18
   314f8:	1444b03a 	or	r2,r2,r17
   314fc:	0101ffc4 	movi	r4,2047
   31500:	81002426 	beq	r16,r4,31594 <__adddf3+0x2b8>
   31504:	8120703a 	and	r16,r16,r4
   31508:	01000434 	movhi	r4,16
   3150c:	213fffc4 	addi	r4,r4,-1
   31510:	4110703a 	and	r8,r8,r4
   31514:	003fa806 	br	313b8 <__alt_data_end+0xffff13b8>
   31518:	8089c83a 	sub	r4,r16,r2
   3151c:	01005e0e 	bge	zero,r4,31698 <__adddf3+0x3bc>
   31520:	10002b26 	beq	r2,zero,315d0 <__adddf3+0x2f4>
   31524:	0081ffc4 	movi	r2,2047
   31528:	80bf8b26 	beq	r16,r2,31358 <__alt_data_end+0xffff1358>
   3152c:	4a402034 	orhi	r9,r9,128
   31530:	00800e04 	movi	r2,56
   31534:	1100a40e 	bge	r2,r4,317c8 <__adddf3+0x4ec>
   31538:	498cb03a 	or	r6,r9,r6
   3153c:	300ac03a 	cmpne	r5,r6,zero
   31540:	0013883a 	mov	r9,zero
   31544:	2c4b883a 	add	r5,r5,r17
   31548:	2c63803a 	cmpltu	r17,r5,r17
   3154c:	4a11883a 	add	r8,r9,r8
   31550:	8a11883a 	add	r8,r17,r8
   31554:	2823883a 	mov	r17,r5
   31558:	4080202c 	andhi	r2,r8,128
   3155c:	103fe026 	beq	r2,zero,314e0 <__alt_data_end+0xffff14e0>
   31560:	84000044 	addi	r16,r16,1
   31564:	0081ffc4 	movi	r2,2047
   31568:	8080d226 	beq	r16,r2,318b4 <__adddf3+0x5d8>
   3156c:	00bfe034 	movhi	r2,65408
   31570:	10bfffc4 	addi	r2,r2,-1
   31574:	4090703a 	and	r8,r8,r2
   31578:	880ad07a 	srli	r5,r17,1
   3157c:	400897fa 	slli	r4,r8,31
   31580:	88c0004c 	andi	r3,r17,1
   31584:	28e2b03a 	or	r17,r5,r3
   31588:	4010d07a 	srli	r8,r8,1
   3158c:	2462b03a 	or	r17,r4,r17
   31590:	003f7106 	br	31358 <__alt_data_end+0xffff1358>
   31594:	4088b03a 	or	r4,r8,r2
   31598:	20014526 	beq	r4,zero,31ab0 <__adddf3+0x7d4>
   3159c:	01000434 	movhi	r4,16
   315a0:	42000234 	orhi	r8,r8,8
   315a4:	213fffc4 	addi	r4,r4,-1
   315a8:	4110703a 	and	r8,r8,r4
   315ac:	003f8206 	br	313b8 <__alt_data_end+0xffff13b8>
   315b0:	18ffffc4 	addi	r3,r3,-1
   315b4:	1800491e 	bne	r3,zero,316dc <__adddf3+0x400>
   315b8:	898bc83a 	sub	r5,r17,r6
   315bc:	8963803a 	cmpltu	r17,r17,r5
   315c0:	4251c83a 	sub	r8,r8,r9
   315c4:	4451c83a 	sub	r8,r8,r17
   315c8:	2823883a 	mov	r17,r5
   315cc:	003f9f06 	br	3144c <__alt_data_end+0xffff144c>
   315d0:	4984b03a 	or	r2,r9,r6
   315d4:	103f6026 	beq	r2,zero,31358 <__alt_data_end+0xffff1358>
   315d8:	213fffc4 	addi	r4,r4,-1
   315dc:	2000931e 	bne	r4,zero,3182c <__adddf3+0x550>
   315e0:	898d883a 	add	r6,r17,r6
   315e4:	3463803a 	cmpltu	r17,r6,r17
   315e8:	4251883a 	add	r8,r8,r9
   315ec:	8a11883a 	add	r8,r17,r8
   315f0:	3023883a 	mov	r17,r6
   315f4:	003fd806 	br	31558 <__alt_data_end+0xffff1558>
   315f8:	1800541e 	bne	r3,zero,3174c <__adddf3+0x470>
   315fc:	80800044 	addi	r2,r16,1
   31600:	1081ffcc 	andi	r2,r2,2047
   31604:	00c00044 	movi	r3,1
   31608:	1880a00e 	bge	r3,r2,3188c <__adddf3+0x5b0>
   3160c:	8989c83a 	sub	r4,r17,r6
   31610:	8905803a 	cmpltu	r2,r17,r4
   31614:	4267c83a 	sub	r19,r8,r9
   31618:	98a7c83a 	sub	r19,r19,r2
   3161c:	9880202c 	andhi	r2,r19,128
   31620:	10006326 	beq	r2,zero,317b0 <__adddf3+0x4d4>
   31624:	3463c83a 	sub	r17,r6,r17
   31628:	4a07c83a 	sub	r3,r9,r8
   3162c:	344d803a 	cmpltu	r6,r6,r17
   31630:	19a7c83a 	sub	r19,r3,r6
   31634:	3825883a 	mov	r18,r7
   31638:	983f8a1e 	bne	r19,zero,31464 <__alt_data_end+0xffff1464>
   3163c:	8809883a 	mov	r4,r17
   31640:	00338e00 	call	338e0 <__clzsi2>
   31644:	10800804 	addi	r2,r2,32
   31648:	10fffe04 	addi	r3,r2,-8
   3164c:	010007c4 	movi	r4,31
   31650:	20ff890e 	bge	r4,r3,31478 <__alt_data_end+0xffff1478>
   31654:	10bff604 	addi	r2,r2,-40
   31658:	8884983a 	sll	r2,r17,r2
   3165c:	0023883a 	mov	r17,zero
   31660:	1c3f8c0e 	bge	r3,r16,31494 <__alt_data_end+0xffff1494>
   31664:	023fe034 	movhi	r8,65408
   31668:	423fffc4 	addi	r8,r8,-1
   3166c:	80e1c83a 	sub	r16,r16,r3
   31670:	1210703a 	and	r8,r2,r8
   31674:	003f3806 	br	31358 <__alt_data_end+0xffff1358>
   31678:	9007883a 	mov	r3,r18
   3167c:	0011883a 	mov	r8,zero
   31680:	0005883a 	mov	r2,zero
   31684:	003f4c06 	br	313b8 <__alt_data_end+0xffff13b8>
   31688:	498cb03a 	or	r6,r9,r6
   3168c:	300cc03a 	cmpne	r6,r6,zero
   31690:	0007883a 	mov	r3,zero
   31694:	003f6806 	br	31438 <__alt_data_end+0xffff1438>
   31698:	20009c1e 	bne	r4,zero,3190c <__adddf3+0x630>
   3169c:	80800044 	addi	r2,r16,1
   316a0:	1141ffcc 	andi	r5,r2,2047
   316a4:	01000044 	movi	r4,1
   316a8:	2140670e 	bge	r4,r5,31848 <__adddf3+0x56c>
   316ac:	0101ffc4 	movi	r4,2047
   316b0:	11007f26 	beq	r2,r4,318b0 <__adddf3+0x5d4>
   316b4:	898d883a 	add	r6,r17,r6
   316b8:	4247883a 	add	r3,r8,r9
   316bc:	3451803a 	cmpltu	r8,r6,r17
   316c0:	40d1883a 	add	r8,r8,r3
   316c4:	402297fa 	slli	r17,r8,31
   316c8:	300cd07a 	srli	r6,r6,1
   316cc:	4010d07a 	srli	r8,r8,1
   316d0:	1021883a 	mov	r16,r2
   316d4:	89a2b03a 	or	r17,r17,r6
   316d8:	003f1f06 	br	31358 <__alt_data_end+0xffff1358>
   316dc:	0081ffc4 	movi	r2,2047
   316e0:	80bf481e 	bne	r16,r2,31404 <__alt_data_end+0xffff1404>
   316e4:	003f1c06 	br	31358 <__alt_data_end+0xffff1358>
   316e8:	843ff844 	addi	r16,r16,-31
   316ec:	01000804 	movi	r4,32
   316f0:	1406d83a 	srl	r3,r2,r16
   316f4:	41005026 	beq	r8,r4,31838 <__adddf3+0x55c>
   316f8:	01001004 	movi	r4,64
   316fc:	2211c83a 	sub	r8,r4,r8
   31700:	1204983a 	sll	r2,r2,r8
   31704:	88a2b03a 	or	r17,r17,r2
   31708:	8822c03a 	cmpne	r17,r17,zero
   3170c:	1c62b03a 	or	r17,r3,r17
   31710:	0011883a 	mov	r8,zero
   31714:	0021883a 	mov	r16,zero
   31718:	003f7106 	br	314e0 <__alt_data_end+0xffff14e0>
   3171c:	193ff804 	addi	r4,r3,-32
   31720:	00800804 	movi	r2,32
   31724:	4908d83a 	srl	r4,r9,r4
   31728:	18804526 	beq	r3,r2,31840 <__adddf3+0x564>
   3172c:	00801004 	movi	r2,64
   31730:	10c5c83a 	sub	r2,r2,r3
   31734:	4886983a 	sll	r3,r9,r2
   31738:	198cb03a 	or	r6,r3,r6
   3173c:	300cc03a 	cmpne	r6,r6,zero
   31740:	218cb03a 	or	r6,r4,r6
   31744:	0007883a 	mov	r3,zero
   31748:	003f3b06 	br	31438 <__alt_data_end+0xffff1438>
   3174c:	80002a26 	beq	r16,zero,317f8 <__adddf3+0x51c>
   31750:	0101ffc4 	movi	r4,2047
   31754:	11006826 	beq	r2,r4,318f8 <__adddf3+0x61c>
   31758:	00c7c83a 	sub	r3,zero,r3
   3175c:	42002034 	orhi	r8,r8,128
   31760:	01000e04 	movi	r4,56
   31764:	20c07c16 	blt	r4,r3,31958 <__adddf3+0x67c>
   31768:	010007c4 	movi	r4,31
   3176c:	20c0da16 	blt	r4,r3,31ad8 <__adddf3+0x7fc>
   31770:	01000804 	movi	r4,32
   31774:	20c9c83a 	sub	r4,r4,r3
   31778:	4114983a 	sll	r10,r8,r4
   3177c:	88cad83a 	srl	r5,r17,r3
   31780:	8908983a 	sll	r4,r17,r4
   31784:	40c6d83a 	srl	r3,r8,r3
   31788:	5162b03a 	or	r17,r10,r5
   3178c:	2008c03a 	cmpne	r4,r4,zero
   31790:	8922b03a 	or	r17,r17,r4
   31794:	3463c83a 	sub	r17,r6,r17
   31798:	48c7c83a 	sub	r3,r9,r3
   3179c:	344d803a 	cmpltu	r6,r6,r17
   317a0:	1991c83a 	sub	r8,r3,r6
   317a4:	1021883a 	mov	r16,r2
   317a8:	3825883a 	mov	r18,r7
   317ac:	003f2706 	br	3144c <__alt_data_end+0xffff144c>
   317b0:	24d0b03a 	or	r8,r4,r19
   317b4:	40001b1e 	bne	r8,zero,31824 <__adddf3+0x548>
   317b8:	0005883a 	mov	r2,zero
   317bc:	0007883a 	mov	r3,zero
   317c0:	0021883a 	mov	r16,zero
   317c4:	003f4d06 	br	314fc <__alt_data_end+0xffff14fc>
   317c8:	008007c4 	movi	r2,31
   317cc:	11003c16 	blt	r2,r4,318c0 <__adddf3+0x5e4>
   317d0:	00800804 	movi	r2,32
   317d4:	1105c83a 	sub	r2,r2,r4
   317d8:	488e983a 	sll	r7,r9,r2
   317dc:	310ad83a 	srl	r5,r6,r4
   317e0:	3084983a 	sll	r2,r6,r2
   317e4:	4912d83a 	srl	r9,r9,r4
   317e8:	394ab03a 	or	r5,r7,r5
   317ec:	1004c03a 	cmpne	r2,r2,zero
   317f0:	288ab03a 	or	r5,r5,r2
   317f4:	003f5306 	br	31544 <__alt_data_end+0xffff1544>
   317f8:	4448b03a 	or	r4,r8,r17
   317fc:	20003e26 	beq	r4,zero,318f8 <__adddf3+0x61c>
   31800:	00c6303a 	nor	r3,zero,r3
   31804:	18003a1e 	bne	r3,zero,318f0 <__adddf3+0x614>
   31808:	3463c83a 	sub	r17,r6,r17
   3180c:	4a07c83a 	sub	r3,r9,r8
   31810:	344d803a 	cmpltu	r6,r6,r17
   31814:	1991c83a 	sub	r8,r3,r6
   31818:	1021883a 	mov	r16,r2
   3181c:	3825883a 	mov	r18,r7
   31820:	003f0a06 	br	3144c <__alt_data_end+0xffff144c>
   31824:	2023883a 	mov	r17,r4
   31828:	003f0d06 	br	31460 <__alt_data_end+0xffff1460>
   3182c:	0081ffc4 	movi	r2,2047
   31830:	80bf3f1e 	bne	r16,r2,31530 <__alt_data_end+0xffff1530>
   31834:	003ec806 	br	31358 <__alt_data_end+0xffff1358>
   31838:	0005883a 	mov	r2,zero
   3183c:	003fb106 	br	31704 <__alt_data_end+0xffff1704>
   31840:	0007883a 	mov	r3,zero
   31844:	003fbc06 	br	31738 <__alt_data_end+0xffff1738>
   31848:	4444b03a 	or	r2,r8,r17
   3184c:	8000871e 	bne	r16,zero,31a6c <__adddf3+0x790>
   31850:	1000ba26 	beq	r2,zero,31b3c <__adddf3+0x860>
   31854:	4984b03a 	or	r2,r9,r6
   31858:	103ebf26 	beq	r2,zero,31358 <__alt_data_end+0xffff1358>
   3185c:	8985883a 	add	r2,r17,r6
   31860:	4247883a 	add	r3,r8,r9
   31864:	1451803a 	cmpltu	r8,r2,r17
   31868:	40d1883a 	add	r8,r8,r3
   3186c:	40c0202c 	andhi	r3,r8,128
   31870:	1023883a 	mov	r17,r2
   31874:	183f1a26 	beq	r3,zero,314e0 <__alt_data_end+0xffff14e0>
   31878:	00bfe034 	movhi	r2,65408
   3187c:	10bfffc4 	addi	r2,r2,-1
   31880:	2021883a 	mov	r16,r4
   31884:	4090703a 	and	r8,r8,r2
   31888:	003eb306 	br	31358 <__alt_data_end+0xffff1358>
   3188c:	4444b03a 	or	r2,r8,r17
   31890:	8000291e 	bne	r16,zero,31938 <__adddf3+0x65c>
   31894:	10004b1e 	bne	r2,zero,319c4 <__adddf3+0x6e8>
   31898:	4990b03a 	or	r8,r9,r6
   3189c:	40008b26 	beq	r8,zero,31acc <__adddf3+0x7f0>
   318a0:	4811883a 	mov	r8,r9
   318a4:	3023883a 	mov	r17,r6
   318a8:	3825883a 	mov	r18,r7
   318ac:	003eaa06 	br	31358 <__alt_data_end+0xffff1358>
   318b0:	1021883a 	mov	r16,r2
   318b4:	0011883a 	mov	r8,zero
   318b8:	0005883a 	mov	r2,zero
   318bc:	003f0f06 	br	314fc <__alt_data_end+0xffff14fc>
   318c0:	217ff804 	addi	r5,r4,-32
   318c4:	00800804 	movi	r2,32
   318c8:	494ad83a 	srl	r5,r9,r5
   318cc:	20807d26 	beq	r4,r2,31ac4 <__adddf3+0x7e8>
   318d0:	00801004 	movi	r2,64
   318d4:	1109c83a 	sub	r4,r2,r4
   318d8:	4912983a 	sll	r9,r9,r4
   318dc:	498cb03a 	or	r6,r9,r6
   318e0:	300cc03a 	cmpne	r6,r6,zero
   318e4:	298ab03a 	or	r5,r5,r6
   318e8:	0013883a 	mov	r9,zero
   318ec:	003f1506 	br	31544 <__alt_data_end+0xffff1544>
   318f0:	0101ffc4 	movi	r4,2047
   318f4:	113f9a1e 	bne	r2,r4,31760 <__alt_data_end+0xffff1760>
   318f8:	4811883a 	mov	r8,r9
   318fc:	3023883a 	mov	r17,r6
   31900:	1021883a 	mov	r16,r2
   31904:	3825883a 	mov	r18,r7
   31908:	003e9306 	br	31358 <__alt_data_end+0xffff1358>
   3190c:	8000161e 	bne	r16,zero,31968 <__adddf3+0x68c>
   31910:	444ab03a 	or	r5,r8,r17
   31914:	28005126 	beq	r5,zero,31a5c <__adddf3+0x780>
   31918:	0108303a 	nor	r4,zero,r4
   3191c:	20004d1e 	bne	r4,zero,31a54 <__adddf3+0x778>
   31920:	89a3883a 	add	r17,r17,r6
   31924:	4253883a 	add	r9,r8,r9
   31928:	898d803a 	cmpltu	r6,r17,r6
   3192c:	3251883a 	add	r8,r6,r9
   31930:	1021883a 	mov	r16,r2
   31934:	003f0806 	br	31558 <__alt_data_end+0xffff1558>
   31938:	1000301e 	bne	r2,zero,319fc <__adddf3+0x720>
   3193c:	4984b03a 	or	r2,r9,r6
   31940:	10007126 	beq	r2,zero,31b08 <__adddf3+0x82c>
   31944:	4811883a 	mov	r8,r9
   31948:	3023883a 	mov	r17,r6
   3194c:	3825883a 	mov	r18,r7
   31950:	0401ffc4 	movi	r16,2047
   31954:	003e8006 	br	31358 <__alt_data_end+0xffff1358>
   31958:	4462b03a 	or	r17,r8,r17
   3195c:	8822c03a 	cmpne	r17,r17,zero
   31960:	0007883a 	mov	r3,zero
   31964:	003f8b06 	br	31794 <__alt_data_end+0xffff1794>
   31968:	0141ffc4 	movi	r5,2047
   3196c:	11403b26 	beq	r2,r5,31a5c <__adddf3+0x780>
   31970:	0109c83a 	sub	r4,zero,r4
   31974:	42002034 	orhi	r8,r8,128
   31978:	01400e04 	movi	r5,56
   3197c:	29006716 	blt	r5,r4,31b1c <__adddf3+0x840>
   31980:	014007c4 	movi	r5,31
   31984:	29007016 	blt	r5,r4,31b48 <__adddf3+0x86c>
   31988:	01400804 	movi	r5,32
   3198c:	290bc83a 	sub	r5,r5,r4
   31990:	4154983a 	sll	r10,r8,r5
   31994:	890ed83a 	srl	r7,r17,r4
   31998:	894a983a 	sll	r5,r17,r5
   3199c:	4108d83a 	srl	r4,r8,r4
   319a0:	51e2b03a 	or	r17,r10,r7
   319a4:	280ac03a 	cmpne	r5,r5,zero
   319a8:	8962b03a 	or	r17,r17,r5
   319ac:	89a3883a 	add	r17,r17,r6
   319b0:	2253883a 	add	r9,r4,r9
   319b4:	898d803a 	cmpltu	r6,r17,r6
   319b8:	3251883a 	add	r8,r6,r9
   319bc:	1021883a 	mov	r16,r2
   319c0:	003ee506 	br	31558 <__alt_data_end+0xffff1558>
   319c4:	4984b03a 	or	r2,r9,r6
   319c8:	103e6326 	beq	r2,zero,31358 <__alt_data_end+0xffff1358>
   319cc:	8987c83a 	sub	r3,r17,r6
   319d0:	88c9803a 	cmpltu	r4,r17,r3
   319d4:	4245c83a 	sub	r2,r8,r9
   319d8:	1105c83a 	sub	r2,r2,r4
   319dc:	1100202c 	andhi	r4,r2,128
   319e0:	203ebb26 	beq	r4,zero,314d0 <__alt_data_end+0xffff14d0>
   319e4:	3463c83a 	sub	r17,r6,r17
   319e8:	4a07c83a 	sub	r3,r9,r8
   319ec:	344d803a 	cmpltu	r6,r6,r17
   319f0:	1991c83a 	sub	r8,r3,r6
   319f4:	3825883a 	mov	r18,r7
   319f8:	003e5706 	br	31358 <__alt_data_end+0xffff1358>
   319fc:	4984b03a 	or	r2,r9,r6
   31a00:	10002e26 	beq	r2,zero,31abc <__adddf3+0x7e0>
   31a04:	4004d0fa 	srli	r2,r8,3
   31a08:	8822d0fa 	srli	r17,r17,3
   31a0c:	4010977a 	slli	r8,r8,29
   31a10:	10c0022c 	andhi	r3,r2,8
   31a14:	4462b03a 	or	r17,r8,r17
   31a18:	18000826 	beq	r3,zero,31a3c <__adddf3+0x760>
   31a1c:	4808d0fa 	srli	r4,r9,3
   31a20:	20c0022c 	andhi	r3,r4,8
   31a24:	1800051e 	bne	r3,zero,31a3c <__adddf3+0x760>
   31a28:	300cd0fa 	srli	r6,r6,3
   31a2c:	4806977a 	slli	r3,r9,29
   31a30:	2005883a 	mov	r2,r4
   31a34:	3825883a 	mov	r18,r7
   31a38:	19a2b03a 	or	r17,r3,r6
   31a3c:	8810d77a 	srli	r8,r17,29
   31a40:	100490fa 	slli	r2,r2,3
   31a44:	882290fa 	slli	r17,r17,3
   31a48:	0401ffc4 	movi	r16,2047
   31a4c:	4090b03a 	or	r8,r8,r2
   31a50:	003e4106 	br	31358 <__alt_data_end+0xffff1358>
   31a54:	0141ffc4 	movi	r5,2047
   31a58:	117fc71e 	bne	r2,r5,31978 <__alt_data_end+0xffff1978>
   31a5c:	4811883a 	mov	r8,r9
   31a60:	3023883a 	mov	r17,r6
   31a64:	1021883a 	mov	r16,r2
   31a68:	003e3b06 	br	31358 <__alt_data_end+0xffff1358>
   31a6c:	10002f26 	beq	r2,zero,31b2c <__adddf3+0x850>
   31a70:	4984b03a 	or	r2,r9,r6
   31a74:	10001126 	beq	r2,zero,31abc <__adddf3+0x7e0>
   31a78:	4004d0fa 	srli	r2,r8,3
   31a7c:	8822d0fa 	srli	r17,r17,3
   31a80:	4010977a 	slli	r8,r8,29
   31a84:	10c0022c 	andhi	r3,r2,8
   31a88:	4462b03a 	or	r17,r8,r17
   31a8c:	183feb26 	beq	r3,zero,31a3c <__alt_data_end+0xffff1a3c>
   31a90:	4808d0fa 	srli	r4,r9,3
   31a94:	20c0022c 	andhi	r3,r4,8
   31a98:	183fe81e 	bne	r3,zero,31a3c <__alt_data_end+0xffff1a3c>
   31a9c:	300cd0fa 	srli	r6,r6,3
   31aa0:	4806977a 	slli	r3,r9,29
   31aa4:	2005883a 	mov	r2,r4
   31aa8:	19a2b03a 	or	r17,r3,r6
   31aac:	003fe306 	br	31a3c <__alt_data_end+0xffff1a3c>
   31ab0:	0011883a 	mov	r8,zero
   31ab4:	0005883a 	mov	r2,zero
   31ab8:	003e3f06 	br	313b8 <__alt_data_end+0xffff13b8>
   31abc:	0401ffc4 	movi	r16,2047
   31ac0:	003e2506 	br	31358 <__alt_data_end+0xffff1358>
   31ac4:	0013883a 	mov	r9,zero
   31ac8:	003f8406 	br	318dc <__alt_data_end+0xffff18dc>
   31acc:	0005883a 	mov	r2,zero
   31ad0:	0007883a 	mov	r3,zero
   31ad4:	003e8906 	br	314fc <__alt_data_end+0xffff14fc>
   31ad8:	197ff804 	addi	r5,r3,-32
   31adc:	01000804 	movi	r4,32
   31ae0:	414ad83a 	srl	r5,r8,r5
   31ae4:	19002426 	beq	r3,r4,31b78 <__adddf3+0x89c>
   31ae8:	01001004 	movi	r4,64
   31aec:	20c7c83a 	sub	r3,r4,r3
   31af0:	40c6983a 	sll	r3,r8,r3
   31af4:	1c46b03a 	or	r3,r3,r17
   31af8:	1806c03a 	cmpne	r3,r3,zero
   31afc:	28e2b03a 	or	r17,r5,r3
   31b00:	0007883a 	mov	r3,zero
   31b04:	003f2306 	br	31794 <__alt_data_end+0xffff1794>
   31b08:	0007883a 	mov	r3,zero
   31b0c:	5811883a 	mov	r8,r11
   31b10:	00bfffc4 	movi	r2,-1
   31b14:	0401ffc4 	movi	r16,2047
   31b18:	003e7806 	br	314fc <__alt_data_end+0xffff14fc>
   31b1c:	4462b03a 	or	r17,r8,r17
   31b20:	8822c03a 	cmpne	r17,r17,zero
   31b24:	0009883a 	mov	r4,zero
   31b28:	003fa006 	br	319ac <__alt_data_end+0xffff19ac>
   31b2c:	4811883a 	mov	r8,r9
   31b30:	3023883a 	mov	r17,r6
   31b34:	0401ffc4 	movi	r16,2047
   31b38:	003e0706 	br	31358 <__alt_data_end+0xffff1358>
   31b3c:	4811883a 	mov	r8,r9
   31b40:	3023883a 	mov	r17,r6
   31b44:	003e0406 	br	31358 <__alt_data_end+0xffff1358>
   31b48:	21fff804 	addi	r7,r4,-32
   31b4c:	01400804 	movi	r5,32
   31b50:	41ced83a 	srl	r7,r8,r7
   31b54:	21400a26 	beq	r4,r5,31b80 <__adddf3+0x8a4>
   31b58:	01401004 	movi	r5,64
   31b5c:	2909c83a 	sub	r4,r5,r4
   31b60:	4108983a 	sll	r4,r8,r4
   31b64:	2448b03a 	or	r4,r4,r17
   31b68:	2008c03a 	cmpne	r4,r4,zero
   31b6c:	3922b03a 	or	r17,r7,r4
   31b70:	0009883a 	mov	r4,zero
   31b74:	003f8d06 	br	319ac <__alt_data_end+0xffff19ac>
   31b78:	0007883a 	mov	r3,zero
   31b7c:	003fdd06 	br	31af4 <__alt_data_end+0xffff1af4>
   31b80:	0009883a 	mov	r4,zero
   31b84:	003ff706 	br	31b64 <__alt_data_end+0xffff1b64>

00031b88 <__divdf3>:
   31b88:	defff204 	addi	sp,sp,-56
   31b8c:	dd400915 	stw	r21,36(sp)
   31b90:	282ad53a 	srli	r21,r5,20
   31b94:	dd000815 	stw	r20,32(sp)
   31b98:	2828d7fa 	srli	r20,r5,31
   31b9c:	dc000415 	stw	r16,16(sp)
   31ba0:	04000434 	movhi	r16,16
   31ba4:	df000c15 	stw	fp,48(sp)
   31ba8:	843fffc4 	addi	r16,r16,-1
   31bac:	dfc00d15 	stw	ra,52(sp)
   31bb0:	ddc00b15 	stw	r23,44(sp)
   31bb4:	dd800a15 	stw	r22,40(sp)
   31bb8:	dcc00715 	stw	r19,28(sp)
   31bbc:	dc800615 	stw	r18,24(sp)
   31bc0:	dc400515 	stw	r17,20(sp)
   31bc4:	ad41ffcc 	andi	r21,r21,2047
   31bc8:	2c20703a 	and	r16,r5,r16
   31bcc:	a7003fcc 	andi	fp,r20,255
   31bd0:	a8006126 	beq	r21,zero,31d58 <__divdf3+0x1d0>
   31bd4:	0081ffc4 	movi	r2,2047
   31bd8:	2025883a 	mov	r18,r4
   31bdc:	a8803726 	beq	r21,r2,31cbc <__divdf3+0x134>
   31be0:	80800434 	orhi	r2,r16,16
   31be4:	100490fa 	slli	r2,r2,3
   31be8:	2020d77a 	srli	r16,r4,29
   31bec:	202490fa 	slli	r18,r4,3
   31bf0:	ad7f0044 	addi	r21,r21,-1023
   31bf4:	80a0b03a 	or	r16,r16,r2
   31bf8:	0027883a 	mov	r19,zero
   31bfc:	0013883a 	mov	r9,zero
   31c00:	3804d53a 	srli	r2,r7,20
   31c04:	382cd7fa 	srli	r22,r7,31
   31c08:	04400434 	movhi	r17,16
   31c0c:	8c7fffc4 	addi	r17,r17,-1
   31c10:	1081ffcc 	andi	r2,r2,2047
   31c14:	3011883a 	mov	r8,r6
   31c18:	3c62703a 	and	r17,r7,r17
   31c1c:	b5c03fcc 	andi	r23,r22,255
   31c20:	10006c26 	beq	r2,zero,31dd4 <__divdf3+0x24c>
   31c24:	00c1ffc4 	movi	r3,2047
   31c28:	10c06426 	beq	r2,r3,31dbc <__divdf3+0x234>
   31c2c:	88c00434 	orhi	r3,r17,16
   31c30:	180690fa 	slli	r3,r3,3
   31c34:	3022d77a 	srli	r17,r6,29
   31c38:	301090fa 	slli	r8,r6,3
   31c3c:	10bf0044 	addi	r2,r2,-1023
   31c40:	88e2b03a 	or	r17,r17,r3
   31c44:	000f883a 	mov	r7,zero
   31c48:	a58cf03a 	xor	r6,r20,r22
   31c4c:	3cc8b03a 	or	r4,r7,r19
   31c50:	a8abc83a 	sub	r21,r21,r2
   31c54:	008003c4 	movi	r2,15
   31c58:	3007883a 	mov	r3,r6
   31c5c:	34c03fcc 	andi	r19,r6,255
   31c60:	11009036 	bltu	r2,r4,31ea4 <__divdf3+0x31c>
   31c64:	200890ba 	slli	r4,r4,2
   31c68:	008000f4 	movhi	r2,3
   31c6c:	10871f04 	addi	r2,r2,7292
   31c70:	2089883a 	add	r4,r4,r2
   31c74:	20800017 	ldw	r2,0(r4)
   31c78:	1000683a 	jmp	r2
   31c7c:	00031ea4 	muli	zero,zero,3194
   31c80:	00031cf4 	movhi	zero,3187
   31c84:	00031e94 	movui	zero,3194
   31c88:	00031ce8 	cmpgeui	zero,zero,3187
   31c8c:	00031e94 	movui	zero,3194
   31c90:	00031e68 	cmpgeui	zero,zero,3193
   31c94:	00031e94 	movui	zero,3194
   31c98:	00031ce8 	cmpgeui	zero,zero,3187
   31c9c:	00031cf4 	movhi	zero,3187
   31ca0:	00031cf4 	movhi	zero,3187
   31ca4:	00031e68 	cmpgeui	zero,zero,3193
   31ca8:	00031ce8 	cmpgeui	zero,zero,3187
   31cac:	00031cd8 	cmpnei	zero,zero,3187
   31cb0:	00031cd8 	cmpnei	zero,zero,3187
   31cb4:	00031cd8 	cmpnei	zero,zero,3187
   31cb8:	00032188 	cmpgei	zero,zero,3206
   31cbc:	2404b03a 	or	r2,r4,r16
   31cc0:	1000661e 	bne	r2,zero,31e5c <__divdf3+0x2d4>
   31cc4:	04c00204 	movi	r19,8
   31cc8:	0021883a 	mov	r16,zero
   31ccc:	0025883a 	mov	r18,zero
   31cd0:	02400084 	movi	r9,2
   31cd4:	003fca06 	br	31c00 <__alt_data_end+0xffff1c00>
   31cd8:	8023883a 	mov	r17,r16
   31cdc:	9011883a 	mov	r8,r18
   31ce0:	e02f883a 	mov	r23,fp
   31ce4:	480f883a 	mov	r7,r9
   31ce8:	00800084 	movi	r2,2
   31cec:	3881311e 	bne	r7,r2,321b4 <__divdf3+0x62c>
   31cf0:	b827883a 	mov	r19,r23
   31cf4:	98c0004c 	andi	r3,r19,1
   31cf8:	0081ffc4 	movi	r2,2047
   31cfc:	000b883a 	mov	r5,zero
   31d00:	0025883a 	mov	r18,zero
   31d04:	1004953a 	slli	r2,r2,20
   31d08:	18c03fcc 	andi	r3,r3,255
   31d0c:	04400434 	movhi	r17,16
   31d10:	8c7fffc4 	addi	r17,r17,-1
   31d14:	180697fa 	slli	r3,r3,31
   31d18:	2c4a703a 	and	r5,r5,r17
   31d1c:	288ab03a 	or	r5,r5,r2
   31d20:	28c6b03a 	or	r3,r5,r3
   31d24:	9005883a 	mov	r2,r18
   31d28:	dfc00d17 	ldw	ra,52(sp)
   31d2c:	df000c17 	ldw	fp,48(sp)
   31d30:	ddc00b17 	ldw	r23,44(sp)
   31d34:	dd800a17 	ldw	r22,40(sp)
   31d38:	dd400917 	ldw	r21,36(sp)
   31d3c:	dd000817 	ldw	r20,32(sp)
   31d40:	dcc00717 	ldw	r19,28(sp)
   31d44:	dc800617 	ldw	r18,24(sp)
   31d48:	dc400517 	ldw	r17,20(sp)
   31d4c:	dc000417 	ldw	r16,16(sp)
   31d50:	dec00e04 	addi	sp,sp,56
   31d54:	f800283a 	ret
   31d58:	2404b03a 	or	r2,r4,r16
   31d5c:	2027883a 	mov	r19,r4
   31d60:	10003926 	beq	r2,zero,31e48 <__divdf3+0x2c0>
   31d64:	80012e26 	beq	r16,zero,32220 <__divdf3+0x698>
   31d68:	8009883a 	mov	r4,r16
   31d6c:	d9800315 	stw	r6,12(sp)
   31d70:	d9c00215 	stw	r7,8(sp)
   31d74:	00338e00 	call	338e0 <__clzsi2>
   31d78:	d9800317 	ldw	r6,12(sp)
   31d7c:	d9c00217 	ldw	r7,8(sp)
   31d80:	113ffd44 	addi	r4,r2,-11
   31d84:	00c00704 	movi	r3,28
   31d88:	19012116 	blt	r3,r4,32210 <__divdf3+0x688>
   31d8c:	00c00744 	movi	r3,29
   31d90:	147ffe04 	addi	r17,r2,-8
   31d94:	1907c83a 	sub	r3,r3,r4
   31d98:	8460983a 	sll	r16,r16,r17
   31d9c:	98c6d83a 	srl	r3,r19,r3
   31da0:	9c64983a 	sll	r18,r19,r17
   31da4:	1c20b03a 	or	r16,r3,r16
   31da8:	1080fcc4 	addi	r2,r2,1011
   31dac:	00abc83a 	sub	r21,zero,r2
   31db0:	0027883a 	mov	r19,zero
   31db4:	0013883a 	mov	r9,zero
   31db8:	003f9106 	br	31c00 <__alt_data_end+0xffff1c00>
   31dbc:	3446b03a 	or	r3,r6,r17
   31dc0:	18001f1e 	bne	r3,zero,31e40 <__divdf3+0x2b8>
   31dc4:	0023883a 	mov	r17,zero
   31dc8:	0011883a 	mov	r8,zero
   31dcc:	01c00084 	movi	r7,2
   31dd0:	003f9d06 	br	31c48 <__alt_data_end+0xffff1c48>
   31dd4:	3446b03a 	or	r3,r6,r17
   31dd8:	18001526 	beq	r3,zero,31e30 <__divdf3+0x2a8>
   31ddc:	88011b26 	beq	r17,zero,3224c <__divdf3+0x6c4>
   31de0:	8809883a 	mov	r4,r17
   31de4:	d9800315 	stw	r6,12(sp)
   31de8:	da400115 	stw	r9,4(sp)
   31dec:	00338e00 	call	338e0 <__clzsi2>
   31df0:	d9800317 	ldw	r6,12(sp)
   31df4:	da400117 	ldw	r9,4(sp)
   31df8:	113ffd44 	addi	r4,r2,-11
   31dfc:	00c00704 	movi	r3,28
   31e00:	19010e16 	blt	r3,r4,3223c <__divdf3+0x6b4>
   31e04:	00c00744 	movi	r3,29
   31e08:	123ffe04 	addi	r8,r2,-8
   31e0c:	1907c83a 	sub	r3,r3,r4
   31e10:	8a22983a 	sll	r17,r17,r8
   31e14:	30c6d83a 	srl	r3,r6,r3
   31e18:	3210983a 	sll	r8,r6,r8
   31e1c:	1c62b03a 	or	r17,r3,r17
   31e20:	1080fcc4 	addi	r2,r2,1011
   31e24:	0085c83a 	sub	r2,zero,r2
   31e28:	000f883a 	mov	r7,zero
   31e2c:	003f8606 	br	31c48 <__alt_data_end+0xffff1c48>
   31e30:	0023883a 	mov	r17,zero
   31e34:	0011883a 	mov	r8,zero
   31e38:	01c00044 	movi	r7,1
   31e3c:	003f8206 	br	31c48 <__alt_data_end+0xffff1c48>
   31e40:	01c000c4 	movi	r7,3
   31e44:	003f8006 	br	31c48 <__alt_data_end+0xffff1c48>
   31e48:	04c00104 	movi	r19,4
   31e4c:	0021883a 	mov	r16,zero
   31e50:	0025883a 	mov	r18,zero
   31e54:	02400044 	movi	r9,1
   31e58:	003f6906 	br	31c00 <__alt_data_end+0xffff1c00>
   31e5c:	04c00304 	movi	r19,12
   31e60:	024000c4 	movi	r9,3
   31e64:	003f6606 	br	31c00 <__alt_data_end+0xffff1c00>
   31e68:	01400434 	movhi	r5,16
   31e6c:	0007883a 	mov	r3,zero
   31e70:	297fffc4 	addi	r5,r5,-1
   31e74:	04bfffc4 	movi	r18,-1
   31e78:	0081ffc4 	movi	r2,2047
   31e7c:	003fa106 	br	31d04 <__alt_data_end+0xffff1d04>
   31e80:	00c00044 	movi	r3,1
   31e84:	1887c83a 	sub	r3,r3,r2
   31e88:	01000e04 	movi	r4,56
   31e8c:	20c1210e 	bge	r4,r3,32314 <__divdf3+0x78c>
   31e90:	98c0004c 	andi	r3,r19,1
   31e94:	0005883a 	mov	r2,zero
   31e98:	000b883a 	mov	r5,zero
   31e9c:	0025883a 	mov	r18,zero
   31ea0:	003f9806 	br	31d04 <__alt_data_end+0xffff1d04>
   31ea4:	8c00fd36 	bltu	r17,r16,3229c <__divdf3+0x714>
   31ea8:	8440fb26 	beq	r16,r17,32298 <__divdf3+0x710>
   31eac:	8007883a 	mov	r3,r16
   31eb0:	ad7fffc4 	addi	r21,r21,-1
   31eb4:	0021883a 	mov	r16,zero
   31eb8:	4004d63a 	srli	r2,r8,24
   31ebc:	8822923a 	slli	r17,r17,8
   31ec0:	1809883a 	mov	r4,r3
   31ec4:	402c923a 	slli	r22,r8,8
   31ec8:	88b8b03a 	or	fp,r17,r2
   31ecc:	e028d43a 	srli	r20,fp,16
   31ed0:	d8c00015 	stw	r3,0(sp)
   31ed4:	e5ffffcc 	andi	r23,fp,65535
   31ed8:	a00b883a 	mov	r5,r20
   31edc:	0022dc40 	call	22dc4 <__udivsi3>
   31ee0:	d8c00017 	ldw	r3,0(sp)
   31ee4:	a00b883a 	mov	r5,r20
   31ee8:	d8800315 	stw	r2,12(sp)
   31eec:	1809883a 	mov	r4,r3
   31ef0:	0022e280 	call	22e28 <__umodsi3>
   31ef4:	d9800317 	ldw	r6,12(sp)
   31ef8:	1006943a 	slli	r3,r2,16
   31efc:	9004d43a 	srli	r2,r18,16
   31f00:	b9a3383a 	mul	r17,r23,r6
   31f04:	10c4b03a 	or	r2,r2,r3
   31f08:	1440062e 	bgeu	r2,r17,31f24 <__divdf3+0x39c>
   31f0c:	1705883a 	add	r2,r2,fp
   31f10:	30ffffc4 	addi	r3,r6,-1
   31f14:	1700ee36 	bltu	r2,fp,322d0 <__divdf3+0x748>
   31f18:	1440ed2e 	bgeu	r2,r17,322d0 <__divdf3+0x748>
   31f1c:	31bfff84 	addi	r6,r6,-2
   31f20:	1705883a 	add	r2,r2,fp
   31f24:	1463c83a 	sub	r17,r2,r17
   31f28:	a00b883a 	mov	r5,r20
   31f2c:	8809883a 	mov	r4,r17
   31f30:	d9800315 	stw	r6,12(sp)
   31f34:	0022dc40 	call	22dc4 <__udivsi3>
   31f38:	a00b883a 	mov	r5,r20
   31f3c:	8809883a 	mov	r4,r17
   31f40:	d8800215 	stw	r2,8(sp)
   31f44:	0022e280 	call	22e28 <__umodsi3>
   31f48:	d9c00217 	ldw	r7,8(sp)
   31f4c:	1004943a 	slli	r2,r2,16
   31f50:	94bfffcc 	andi	r18,r18,65535
   31f54:	b9d1383a 	mul	r8,r23,r7
   31f58:	90a4b03a 	or	r18,r18,r2
   31f5c:	d9800317 	ldw	r6,12(sp)
   31f60:	9200062e 	bgeu	r18,r8,31f7c <__divdf3+0x3f4>
   31f64:	9725883a 	add	r18,r18,fp
   31f68:	38bfffc4 	addi	r2,r7,-1
   31f6c:	9700d636 	bltu	r18,fp,322c8 <__divdf3+0x740>
   31f70:	9200d52e 	bgeu	r18,r8,322c8 <__divdf3+0x740>
   31f74:	39ffff84 	addi	r7,r7,-2
   31f78:	9725883a 	add	r18,r18,fp
   31f7c:	3004943a 	slli	r2,r6,16
   31f80:	b012d43a 	srli	r9,r22,16
   31f84:	b1bfffcc 	andi	r6,r22,65535
   31f88:	11e2b03a 	or	r17,r2,r7
   31f8c:	8806d43a 	srli	r3,r17,16
   31f90:	893fffcc 	andi	r4,r17,65535
   31f94:	218b383a 	mul	r5,r4,r6
   31f98:	30c5383a 	mul	r2,r6,r3
   31f9c:	2249383a 	mul	r4,r4,r9
   31fa0:	280ed43a 	srli	r7,r5,16
   31fa4:	9225c83a 	sub	r18,r18,r8
   31fa8:	2089883a 	add	r4,r4,r2
   31fac:	3909883a 	add	r4,r7,r4
   31fb0:	1a47383a 	mul	r3,r3,r9
   31fb4:	2080022e 	bgeu	r4,r2,31fc0 <__divdf3+0x438>
   31fb8:	00800074 	movhi	r2,1
   31fbc:	1887883a 	add	r3,r3,r2
   31fc0:	2004d43a 	srli	r2,r4,16
   31fc4:	2008943a 	slli	r4,r4,16
   31fc8:	297fffcc 	andi	r5,r5,65535
   31fcc:	10c7883a 	add	r3,r2,r3
   31fd0:	2149883a 	add	r4,r4,r5
   31fd4:	90c0a536 	bltu	r18,r3,3226c <__divdf3+0x6e4>
   31fd8:	90c0bf26 	beq	r18,r3,322d8 <__divdf3+0x750>
   31fdc:	90c7c83a 	sub	r3,r18,r3
   31fe0:	810fc83a 	sub	r7,r16,r4
   31fe4:	81e5803a 	cmpltu	r18,r16,r7
   31fe8:	1ca5c83a 	sub	r18,r3,r18
   31fec:	e480c126 	beq	fp,r18,322f4 <__divdf3+0x76c>
   31ff0:	a00b883a 	mov	r5,r20
   31ff4:	9009883a 	mov	r4,r18
   31ff8:	d9800315 	stw	r6,12(sp)
   31ffc:	d9c00215 	stw	r7,8(sp)
   32000:	da400115 	stw	r9,4(sp)
   32004:	0022dc40 	call	22dc4 <__udivsi3>
   32008:	a00b883a 	mov	r5,r20
   3200c:	9009883a 	mov	r4,r18
   32010:	d8800015 	stw	r2,0(sp)
   32014:	0022e280 	call	22e28 <__umodsi3>
   32018:	d9c00217 	ldw	r7,8(sp)
   3201c:	da000017 	ldw	r8,0(sp)
   32020:	1006943a 	slli	r3,r2,16
   32024:	3804d43a 	srli	r2,r7,16
   32028:	ba21383a 	mul	r16,r23,r8
   3202c:	d9800317 	ldw	r6,12(sp)
   32030:	10c4b03a 	or	r2,r2,r3
   32034:	da400117 	ldw	r9,4(sp)
   32038:	1400062e 	bgeu	r2,r16,32054 <__divdf3+0x4cc>
   3203c:	1705883a 	add	r2,r2,fp
   32040:	40ffffc4 	addi	r3,r8,-1
   32044:	1700ad36 	bltu	r2,fp,322fc <__divdf3+0x774>
   32048:	1400ac2e 	bgeu	r2,r16,322fc <__divdf3+0x774>
   3204c:	423fff84 	addi	r8,r8,-2
   32050:	1705883a 	add	r2,r2,fp
   32054:	1421c83a 	sub	r16,r2,r16
   32058:	a00b883a 	mov	r5,r20
   3205c:	8009883a 	mov	r4,r16
   32060:	d9800315 	stw	r6,12(sp)
   32064:	d9c00215 	stw	r7,8(sp)
   32068:	da000015 	stw	r8,0(sp)
   3206c:	da400115 	stw	r9,4(sp)
   32070:	0022dc40 	call	22dc4 <__udivsi3>
   32074:	8009883a 	mov	r4,r16
   32078:	a00b883a 	mov	r5,r20
   3207c:	1025883a 	mov	r18,r2
   32080:	0022e280 	call	22e28 <__umodsi3>
   32084:	d9c00217 	ldw	r7,8(sp)
   32088:	1004943a 	slli	r2,r2,16
   3208c:	bcaf383a 	mul	r23,r23,r18
   32090:	393fffcc 	andi	r4,r7,65535
   32094:	2088b03a 	or	r4,r4,r2
   32098:	d9800317 	ldw	r6,12(sp)
   3209c:	da000017 	ldw	r8,0(sp)
   320a0:	da400117 	ldw	r9,4(sp)
   320a4:	25c0062e 	bgeu	r4,r23,320c0 <__divdf3+0x538>
   320a8:	2709883a 	add	r4,r4,fp
   320ac:	90bfffc4 	addi	r2,r18,-1
   320b0:	27009436 	bltu	r4,fp,32304 <__divdf3+0x77c>
   320b4:	25c0932e 	bgeu	r4,r23,32304 <__divdf3+0x77c>
   320b8:	94bfff84 	addi	r18,r18,-2
   320bc:	2709883a 	add	r4,r4,fp
   320c0:	4004943a 	slli	r2,r8,16
   320c4:	25efc83a 	sub	r23,r4,r23
   320c8:	1490b03a 	or	r8,r2,r18
   320cc:	4008d43a 	srli	r4,r8,16
   320d0:	40ffffcc 	andi	r3,r8,65535
   320d4:	30c5383a 	mul	r2,r6,r3
   320d8:	1a47383a 	mul	r3,r3,r9
   320dc:	310d383a 	mul	r6,r6,r4
   320e0:	100ad43a 	srli	r5,r2,16
   320e4:	4913383a 	mul	r9,r9,r4
   320e8:	1987883a 	add	r3,r3,r6
   320ec:	28c7883a 	add	r3,r5,r3
   320f0:	1980022e 	bgeu	r3,r6,320fc <__divdf3+0x574>
   320f4:	01000074 	movhi	r4,1
   320f8:	4913883a 	add	r9,r9,r4
   320fc:	1808d43a 	srli	r4,r3,16
   32100:	1806943a 	slli	r3,r3,16
   32104:	10bfffcc 	andi	r2,r2,65535
   32108:	2253883a 	add	r9,r4,r9
   3210c:	1887883a 	add	r3,r3,r2
   32110:	ba403836 	bltu	r23,r9,321f4 <__divdf3+0x66c>
   32114:	ba403626 	beq	r23,r9,321f0 <__divdf3+0x668>
   32118:	42000054 	ori	r8,r8,1
   3211c:	a880ffc4 	addi	r2,r21,1023
   32120:	00bf570e 	bge	zero,r2,31e80 <__alt_data_end+0xffff1e80>
   32124:	40c001cc 	andi	r3,r8,7
   32128:	18000726 	beq	r3,zero,32148 <__divdf3+0x5c0>
   3212c:	40c003cc 	andi	r3,r8,15
   32130:	01000104 	movi	r4,4
   32134:	19000426 	beq	r3,r4,32148 <__divdf3+0x5c0>
   32138:	4107883a 	add	r3,r8,r4
   3213c:	1a11803a 	cmpltu	r8,r3,r8
   32140:	8a23883a 	add	r17,r17,r8
   32144:	1811883a 	mov	r8,r3
   32148:	88c0402c 	andhi	r3,r17,256
   3214c:	18000426 	beq	r3,zero,32160 <__divdf3+0x5d8>
   32150:	00ffc034 	movhi	r3,65280
   32154:	18ffffc4 	addi	r3,r3,-1
   32158:	a8810004 	addi	r2,r21,1024
   3215c:	88e2703a 	and	r17,r17,r3
   32160:	00c1ff84 	movi	r3,2046
   32164:	18bee316 	blt	r3,r2,31cf4 <__alt_data_end+0xffff1cf4>
   32168:	8824977a 	slli	r18,r17,29
   3216c:	4010d0fa 	srli	r8,r8,3
   32170:	8822927a 	slli	r17,r17,9
   32174:	1081ffcc 	andi	r2,r2,2047
   32178:	9224b03a 	or	r18,r18,r8
   3217c:	880ad33a 	srli	r5,r17,12
   32180:	98c0004c 	andi	r3,r19,1
   32184:	003edf06 	br	31d04 <__alt_data_end+0xffff1d04>
   32188:	8080022c 	andhi	r2,r16,8
   3218c:	10001226 	beq	r2,zero,321d8 <__divdf3+0x650>
   32190:	8880022c 	andhi	r2,r17,8
   32194:	1000101e 	bne	r2,zero,321d8 <__divdf3+0x650>
   32198:	00800434 	movhi	r2,16
   3219c:	89400234 	orhi	r5,r17,8
   321a0:	10bfffc4 	addi	r2,r2,-1
   321a4:	b007883a 	mov	r3,r22
   321a8:	288a703a 	and	r5,r5,r2
   321ac:	4025883a 	mov	r18,r8
   321b0:	003f3106 	br	31e78 <__alt_data_end+0xffff1e78>
   321b4:	008000c4 	movi	r2,3
   321b8:	3880a626 	beq	r7,r2,32454 <__divdf3+0x8cc>
   321bc:	00800044 	movi	r2,1
   321c0:	3880521e 	bne	r7,r2,3230c <__divdf3+0x784>
   321c4:	b807883a 	mov	r3,r23
   321c8:	0005883a 	mov	r2,zero
   321cc:	000b883a 	mov	r5,zero
   321d0:	0025883a 	mov	r18,zero
   321d4:	003ecb06 	br	31d04 <__alt_data_end+0xffff1d04>
   321d8:	00800434 	movhi	r2,16
   321dc:	81400234 	orhi	r5,r16,8
   321e0:	10bfffc4 	addi	r2,r2,-1
   321e4:	a007883a 	mov	r3,r20
   321e8:	288a703a 	and	r5,r5,r2
   321ec:	003f2206 	br	31e78 <__alt_data_end+0xffff1e78>
   321f0:	183fca26 	beq	r3,zero,3211c <__alt_data_end+0xffff211c>
   321f4:	e5ef883a 	add	r23,fp,r23
   321f8:	40bfffc4 	addi	r2,r8,-1
   321fc:	bf00392e 	bgeu	r23,fp,322e4 <__divdf3+0x75c>
   32200:	1011883a 	mov	r8,r2
   32204:	ba7fc41e 	bne	r23,r9,32118 <__alt_data_end+0xffff2118>
   32208:	b0ffc31e 	bne	r22,r3,32118 <__alt_data_end+0xffff2118>
   3220c:	003fc306 	br	3211c <__alt_data_end+0xffff211c>
   32210:	143ff604 	addi	r16,r2,-40
   32214:	9c20983a 	sll	r16,r19,r16
   32218:	0025883a 	mov	r18,zero
   3221c:	003ee206 	br	31da8 <__alt_data_end+0xffff1da8>
   32220:	d9800315 	stw	r6,12(sp)
   32224:	d9c00215 	stw	r7,8(sp)
   32228:	00338e00 	call	338e0 <__clzsi2>
   3222c:	10800804 	addi	r2,r2,32
   32230:	d9c00217 	ldw	r7,8(sp)
   32234:	d9800317 	ldw	r6,12(sp)
   32238:	003ed106 	br	31d80 <__alt_data_end+0xffff1d80>
   3223c:	147ff604 	addi	r17,r2,-40
   32240:	3462983a 	sll	r17,r6,r17
   32244:	0011883a 	mov	r8,zero
   32248:	003ef506 	br	31e20 <__alt_data_end+0xffff1e20>
   3224c:	3009883a 	mov	r4,r6
   32250:	d9800315 	stw	r6,12(sp)
   32254:	da400115 	stw	r9,4(sp)
   32258:	00338e00 	call	338e0 <__clzsi2>
   3225c:	10800804 	addi	r2,r2,32
   32260:	da400117 	ldw	r9,4(sp)
   32264:	d9800317 	ldw	r6,12(sp)
   32268:	003ee306 	br	31df8 <__alt_data_end+0xffff1df8>
   3226c:	85a1883a 	add	r16,r16,r22
   32270:	8585803a 	cmpltu	r2,r16,r22
   32274:	1705883a 	add	r2,r2,fp
   32278:	14a5883a 	add	r18,r2,r18
   3227c:	88bfffc4 	addi	r2,r17,-1
   32280:	e4800c2e 	bgeu	fp,r18,322b4 <__divdf3+0x72c>
   32284:	90c03e36 	bltu	r18,r3,32380 <__divdf3+0x7f8>
   32288:	1c806926 	beq	r3,r18,32430 <__divdf3+0x8a8>
   3228c:	90c7c83a 	sub	r3,r18,r3
   32290:	1023883a 	mov	r17,r2
   32294:	003f5206 	br	31fe0 <__alt_data_end+0xffff1fe0>
   32298:	923f0436 	bltu	r18,r8,31eac <__alt_data_end+0xffff1eac>
   3229c:	800897fa 	slli	r4,r16,31
   322a0:	9004d07a 	srli	r2,r18,1
   322a4:	8006d07a 	srli	r3,r16,1
   322a8:	902097fa 	slli	r16,r18,31
   322ac:	20a4b03a 	or	r18,r4,r2
   322b0:	003f0106 	br	31eb8 <__alt_data_end+0xffff1eb8>
   322b4:	e4bff51e 	bne	fp,r18,3228c <__alt_data_end+0xffff228c>
   322b8:	85bff22e 	bgeu	r16,r22,32284 <__alt_data_end+0xffff2284>
   322bc:	e0c7c83a 	sub	r3,fp,r3
   322c0:	1023883a 	mov	r17,r2
   322c4:	003f4606 	br	31fe0 <__alt_data_end+0xffff1fe0>
   322c8:	100f883a 	mov	r7,r2
   322cc:	003f2b06 	br	31f7c <__alt_data_end+0xffff1f7c>
   322d0:	180d883a 	mov	r6,r3
   322d4:	003f1306 	br	31f24 <__alt_data_end+0xffff1f24>
   322d8:	813fe436 	bltu	r16,r4,3226c <__alt_data_end+0xffff226c>
   322dc:	0007883a 	mov	r3,zero
   322e0:	003f3f06 	br	31fe0 <__alt_data_end+0xffff1fe0>
   322e4:	ba402c36 	bltu	r23,r9,32398 <__divdf3+0x810>
   322e8:	4dc05426 	beq	r9,r23,3243c <__divdf3+0x8b4>
   322ec:	1011883a 	mov	r8,r2
   322f0:	003f8906 	br	32118 <__alt_data_end+0xffff2118>
   322f4:	023fffc4 	movi	r8,-1
   322f8:	003f8806 	br	3211c <__alt_data_end+0xffff211c>
   322fc:	1811883a 	mov	r8,r3
   32300:	003f5406 	br	32054 <__alt_data_end+0xffff2054>
   32304:	1025883a 	mov	r18,r2
   32308:	003f6d06 	br	320c0 <__alt_data_end+0xffff20c0>
   3230c:	b827883a 	mov	r19,r23
   32310:	003f8206 	br	3211c <__alt_data_end+0xffff211c>
   32314:	010007c4 	movi	r4,31
   32318:	20c02616 	blt	r4,r3,323b4 <__divdf3+0x82c>
   3231c:	00800804 	movi	r2,32
   32320:	10c5c83a 	sub	r2,r2,r3
   32324:	888a983a 	sll	r5,r17,r2
   32328:	40c8d83a 	srl	r4,r8,r3
   3232c:	4084983a 	sll	r2,r8,r2
   32330:	88e2d83a 	srl	r17,r17,r3
   32334:	2906b03a 	or	r3,r5,r4
   32338:	1004c03a 	cmpne	r2,r2,zero
   3233c:	1886b03a 	or	r3,r3,r2
   32340:	188001cc 	andi	r2,r3,7
   32344:	10000726 	beq	r2,zero,32364 <__divdf3+0x7dc>
   32348:	188003cc 	andi	r2,r3,15
   3234c:	01000104 	movi	r4,4
   32350:	11000426 	beq	r2,r4,32364 <__divdf3+0x7dc>
   32354:	1805883a 	mov	r2,r3
   32358:	10c00104 	addi	r3,r2,4
   3235c:	1885803a 	cmpltu	r2,r3,r2
   32360:	88a3883a 	add	r17,r17,r2
   32364:	8880202c 	andhi	r2,r17,128
   32368:	10002726 	beq	r2,zero,32408 <__divdf3+0x880>
   3236c:	98c0004c 	andi	r3,r19,1
   32370:	00800044 	movi	r2,1
   32374:	000b883a 	mov	r5,zero
   32378:	0025883a 	mov	r18,zero
   3237c:	003e6106 	br	31d04 <__alt_data_end+0xffff1d04>
   32380:	85a1883a 	add	r16,r16,r22
   32384:	8585803a 	cmpltu	r2,r16,r22
   32388:	1705883a 	add	r2,r2,fp
   3238c:	14a5883a 	add	r18,r2,r18
   32390:	8c7fff84 	addi	r17,r17,-2
   32394:	003f1106 	br	31fdc <__alt_data_end+0xffff1fdc>
   32398:	b589883a 	add	r4,r22,r22
   3239c:	25ad803a 	cmpltu	r22,r4,r22
   323a0:	b739883a 	add	fp,r22,fp
   323a4:	40bfff84 	addi	r2,r8,-2
   323a8:	bf2f883a 	add	r23,r23,fp
   323ac:	202d883a 	mov	r22,r4
   323b0:	003f9306 	br	32200 <__alt_data_end+0xffff2200>
   323b4:	013ff844 	movi	r4,-31
   323b8:	2085c83a 	sub	r2,r4,r2
   323bc:	8888d83a 	srl	r4,r17,r2
   323c0:	00800804 	movi	r2,32
   323c4:	18802126 	beq	r3,r2,3244c <__divdf3+0x8c4>
   323c8:	00801004 	movi	r2,64
   323cc:	10c5c83a 	sub	r2,r2,r3
   323d0:	8884983a 	sll	r2,r17,r2
   323d4:	1204b03a 	or	r2,r2,r8
   323d8:	1004c03a 	cmpne	r2,r2,zero
   323dc:	2084b03a 	or	r2,r4,r2
   323e0:	144001cc 	andi	r17,r2,7
   323e4:	88000d1e 	bne	r17,zero,3241c <__divdf3+0x894>
   323e8:	000b883a 	mov	r5,zero
   323ec:	1024d0fa 	srli	r18,r2,3
   323f0:	98c0004c 	andi	r3,r19,1
   323f4:	0005883a 	mov	r2,zero
   323f8:	9464b03a 	or	r18,r18,r17
   323fc:	003e4106 	br	31d04 <__alt_data_end+0xffff1d04>
   32400:	1007883a 	mov	r3,r2
   32404:	0023883a 	mov	r17,zero
   32408:	880a927a 	slli	r5,r17,9
   3240c:	1805883a 	mov	r2,r3
   32410:	8822977a 	slli	r17,r17,29
   32414:	280ad33a 	srli	r5,r5,12
   32418:	003ff406 	br	323ec <__alt_data_end+0xffff23ec>
   3241c:	10c003cc 	andi	r3,r2,15
   32420:	01000104 	movi	r4,4
   32424:	193ff626 	beq	r3,r4,32400 <__alt_data_end+0xffff2400>
   32428:	0023883a 	mov	r17,zero
   3242c:	003fca06 	br	32358 <__alt_data_end+0xffff2358>
   32430:	813fd336 	bltu	r16,r4,32380 <__alt_data_end+0xffff2380>
   32434:	1023883a 	mov	r17,r2
   32438:	003fa806 	br	322dc <__alt_data_end+0xffff22dc>
   3243c:	b0ffd636 	bltu	r22,r3,32398 <__alt_data_end+0xffff2398>
   32440:	1011883a 	mov	r8,r2
   32444:	b0ff341e 	bne	r22,r3,32118 <__alt_data_end+0xffff2118>
   32448:	003f3406 	br	3211c <__alt_data_end+0xffff211c>
   3244c:	0005883a 	mov	r2,zero
   32450:	003fe006 	br	323d4 <__alt_data_end+0xffff23d4>
   32454:	00800434 	movhi	r2,16
   32458:	89400234 	orhi	r5,r17,8
   3245c:	10bfffc4 	addi	r2,r2,-1
   32460:	b807883a 	mov	r3,r23
   32464:	288a703a 	and	r5,r5,r2
   32468:	4025883a 	mov	r18,r8
   3246c:	003e8206 	br	31e78 <__alt_data_end+0xffff1e78>

00032470 <__eqdf2>:
   32470:	2804d53a 	srli	r2,r5,20
   32474:	3806d53a 	srli	r3,r7,20
   32478:	02000434 	movhi	r8,16
   3247c:	423fffc4 	addi	r8,r8,-1
   32480:	1081ffcc 	andi	r2,r2,2047
   32484:	0281ffc4 	movi	r10,2047
   32488:	2a12703a 	and	r9,r5,r8
   3248c:	18c1ffcc 	andi	r3,r3,2047
   32490:	3a10703a 	and	r8,r7,r8
   32494:	280ad7fa 	srli	r5,r5,31
   32498:	380ed7fa 	srli	r7,r7,31
   3249c:	12801026 	beq	r2,r10,324e0 <__eqdf2+0x70>
   324a0:	0281ffc4 	movi	r10,2047
   324a4:	1a800a26 	beq	r3,r10,324d0 <__eqdf2+0x60>
   324a8:	10c00226 	beq	r2,r3,324b4 <__eqdf2+0x44>
   324ac:	00800044 	movi	r2,1
   324b0:	f800283a 	ret
   324b4:	4a3ffd1e 	bne	r9,r8,324ac <__alt_data_end+0xffff24ac>
   324b8:	21bffc1e 	bne	r4,r6,324ac <__alt_data_end+0xffff24ac>
   324bc:	29c00c26 	beq	r5,r7,324f0 <__eqdf2+0x80>
   324c0:	103ffa1e 	bne	r2,zero,324ac <__alt_data_end+0xffff24ac>
   324c4:	2244b03a 	or	r2,r4,r9
   324c8:	1004c03a 	cmpne	r2,r2,zero
   324cc:	f800283a 	ret
   324d0:	3214b03a 	or	r10,r6,r8
   324d4:	503ff426 	beq	r10,zero,324a8 <__alt_data_end+0xffff24a8>
   324d8:	00800044 	movi	r2,1
   324dc:	f800283a 	ret
   324e0:	2254b03a 	or	r10,r4,r9
   324e4:	503fee26 	beq	r10,zero,324a0 <__alt_data_end+0xffff24a0>
   324e8:	00800044 	movi	r2,1
   324ec:	f800283a 	ret
   324f0:	0005883a 	mov	r2,zero
   324f4:	f800283a 	ret

000324f8 <__gedf2>:
   324f8:	2804d53a 	srli	r2,r5,20
   324fc:	3806d53a 	srli	r3,r7,20
   32500:	02000434 	movhi	r8,16
   32504:	423fffc4 	addi	r8,r8,-1
   32508:	1081ffcc 	andi	r2,r2,2047
   3250c:	0241ffc4 	movi	r9,2047
   32510:	2a14703a 	and	r10,r5,r8
   32514:	18c1ffcc 	andi	r3,r3,2047
   32518:	3a10703a 	and	r8,r7,r8
   3251c:	280ad7fa 	srli	r5,r5,31
   32520:	380ed7fa 	srli	r7,r7,31
   32524:	12401d26 	beq	r2,r9,3259c <__gedf2+0xa4>
   32528:	0241ffc4 	movi	r9,2047
   3252c:	1a401226 	beq	r3,r9,32578 <__gedf2+0x80>
   32530:	1000081e 	bne	r2,zero,32554 <__gedf2+0x5c>
   32534:	2296b03a 	or	r11,r4,r10
   32538:	5813003a 	cmpeq	r9,r11,zero
   3253c:	1800091e 	bne	r3,zero,32564 <__gedf2+0x6c>
   32540:	3218b03a 	or	r12,r6,r8
   32544:	6000071e 	bne	r12,zero,32564 <__gedf2+0x6c>
   32548:	0005883a 	mov	r2,zero
   3254c:	5800101e 	bne	r11,zero,32590 <__gedf2+0x98>
   32550:	f800283a 	ret
   32554:	18000c1e 	bne	r3,zero,32588 <__gedf2+0x90>
   32558:	3212b03a 	or	r9,r6,r8
   3255c:	48000c26 	beq	r9,zero,32590 <__gedf2+0x98>
   32560:	0013883a 	mov	r9,zero
   32564:	39c03fcc 	andi	r7,r7,255
   32568:	48000826 	beq	r9,zero,3258c <__gedf2+0x94>
   3256c:	38000926 	beq	r7,zero,32594 <__gedf2+0x9c>
   32570:	00800044 	movi	r2,1
   32574:	f800283a 	ret
   32578:	3212b03a 	or	r9,r6,r8
   3257c:	483fec26 	beq	r9,zero,32530 <__alt_data_end+0xffff2530>
   32580:	00bfff84 	movi	r2,-2
   32584:	f800283a 	ret
   32588:	39c03fcc 	andi	r7,r7,255
   3258c:	29c00626 	beq	r5,r7,325a8 <__gedf2+0xb0>
   32590:	283ff726 	beq	r5,zero,32570 <__alt_data_end+0xffff2570>
   32594:	00bfffc4 	movi	r2,-1
   32598:	f800283a 	ret
   3259c:	2292b03a 	or	r9,r4,r10
   325a0:	483fe126 	beq	r9,zero,32528 <__alt_data_end+0xffff2528>
   325a4:	003ff606 	br	32580 <__alt_data_end+0xffff2580>
   325a8:	18bff916 	blt	r3,r2,32590 <__alt_data_end+0xffff2590>
   325ac:	10c00316 	blt	r2,r3,325bc <__gedf2+0xc4>
   325b0:	42bff736 	bltu	r8,r10,32590 <__alt_data_end+0xffff2590>
   325b4:	52000326 	beq	r10,r8,325c4 <__gedf2+0xcc>
   325b8:	5200042e 	bgeu	r10,r8,325cc <__gedf2+0xd4>
   325bc:	283fec1e 	bne	r5,zero,32570 <__alt_data_end+0xffff2570>
   325c0:	003ff406 	br	32594 <__alt_data_end+0xffff2594>
   325c4:	313ff236 	bltu	r6,r4,32590 <__alt_data_end+0xffff2590>
   325c8:	21bffc36 	bltu	r4,r6,325bc <__alt_data_end+0xffff25bc>
   325cc:	0005883a 	mov	r2,zero
   325d0:	f800283a 	ret

000325d4 <__ledf2>:
   325d4:	2804d53a 	srli	r2,r5,20
   325d8:	3810d53a 	srli	r8,r7,20
   325dc:	00c00434 	movhi	r3,16
   325e0:	18ffffc4 	addi	r3,r3,-1
   325e4:	1081ffcc 	andi	r2,r2,2047
   325e8:	0241ffc4 	movi	r9,2047
   325ec:	28d4703a 	and	r10,r5,r3
   325f0:	4201ffcc 	andi	r8,r8,2047
   325f4:	38c6703a 	and	r3,r7,r3
   325f8:	280ad7fa 	srli	r5,r5,31
   325fc:	380ed7fa 	srli	r7,r7,31
   32600:	12401f26 	beq	r2,r9,32680 <__ledf2+0xac>
   32604:	0241ffc4 	movi	r9,2047
   32608:	42401426 	beq	r8,r9,3265c <__ledf2+0x88>
   3260c:	1000091e 	bne	r2,zero,32634 <__ledf2+0x60>
   32610:	2296b03a 	or	r11,r4,r10
   32614:	5813003a 	cmpeq	r9,r11,zero
   32618:	29403fcc 	andi	r5,r5,255
   3261c:	40000a1e 	bne	r8,zero,32648 <__ledf2+0x74>
   32620:	30d8b03a 	or	r12,r6,r3
   32624:	6000081e 	bne	r12,zero,32648 <__ledf2+0x74>
   32628:	0005883a 	mov	r2,zero
   3262c:	5800111e 	bne	r11,zero,32674 <__ledf2+0xa0>
   32630:	f800283a 	ret
   32634:	29403fcc 	andi	r5,r5,255
   32638:	40000c1e 	bne	r8,zero,3266c <__ledf2+0x98>
   3263c:	30d2b03a 	or	r9,r6,r3
   32640:	48000c26 	beq	r9,zero,32674 <__ledf2+0xa0>
   32644:	0013883a 	mov	r9,zero
   32648:	39c03fcc 	andi	r7,r7,255
   3264c:	48000826 	beq	r9,zero,32670 <__ledf2+0x9c>
   32650:	38001126 	beq	r7,zero,32698 <__ledf2+0xc4>
   32654:	00800044 	movi	r2,1
   32658:	f800283a 	ret
   3265c:	30d2b03a 	or	r9,r6,r3
   32660:	483fea26 	beq	r9,zero,3260c <__alt_data_end+0xffff260c>
   32664:	00800084 	movi	r2,2
   32668:	f800283a 	ret
   3266c:	39c03fcc 	andi	r7,r7,255
   32670:	39400726 	beq	r7,r5,32690 <__ledf2+0xbc>
   32674:	2800081e 	bne	r5,zero,32698 <__ledf2+0xc4>
   32678:	00800044 	movi	r2,1
   3267c:	f800283a 	ret
   32680:	2292b03a 	or	r9,r4,r10
   32684:	483fdf26 	beq	r9,zero,32604 <__alt_data_end+0xffff2604>
   32688:	00800084 	movi	r2,2
   3268c:	f800283a 	ret
   32690:	4080030e 	bge	r8,r2,326a0 <__ledf2+0xcc>
   32694:	383fef26 	beq	r7,zero,32654 <__alt_data_end+0xffff2654>
   32698:	00bfffc4 	movi	r2,-1
   3269c:	f800283a 	ret
   326a0:	123feb16 	blt	r2,r8,32650 <__alt_data_end+0xffff2650>
   326a4:	1abff336 	bltu	r3,r10,32674 <__alt_data_end+0xffff2674>
   326a8:	50c00326 	beq	r10,r3,326b8 <__ledf2+0xe4>
   326ac:	50c0042e 	bgeu	r10,r3,326c0 <__ledf2+0xec>
   326b0:	283fe81e 	bne	r5,zero,32654 <__alt_data_end+0xffff2654>
   326b4:	003ff806 	br	32698 <__alt_data_end+0xffff2698>
   326b8:	313fee36 	bltu	r6,r4,32674 <__alt_data_end+0xffff2674>
   326bc:	21bffc36 	bltu	r4,r6,326b0 <__alt_data_end+0xffff26b0>
   326c0:	0005883a 	mov	r2,zero
   326c4:	f800283a 	ret

000326c8 <__muldf3>:
   326c8:	defff304 	addi	sp,sp,-52
   326cc:	2804d53a 	srli	r2,r5,20
   326d0:	dd800915 	stw	r22,36(sp)
   326d4:	282cd7fa 	srli	r22,r5,31
   326d8:	dc000315 	stw	r16,12(sp)
   326dc:	04000434 	movhi	r16,16
   326e0:	dd400815 	stw	r21,32(sp)
   326e4:	dc800515 	stw	r18,20(sp)
   326e8:	843fffc4 	addi	r16,r16,-1
   326ec:	dfc00c15 	stw	ra,48(sp)
   326f0:	df000b15 	stw	fp,44(sp)
   326f4:	ddc00a15 	stw	r23,40(sp)
   326f8:	dd000715 	stw	r20,28(sp)
   326fc:	dcc00615 	stw	r19,24(sp)
   32700:	dc400415 	stw	r17,16(sp)
   32704:	1481ffcc 	andi	r18,r2,2047
   32708:	2c20703a 	and	r16,r5,r16
   3270c:	b02b883a 	mov	r21,r22
   32710:	b2403fcc 	andi	r9,r22,255
   32714:	90006026 	beq	r18,zero,32898 <__muldf3+0x1d0>
   32718:	0081ffc4 	movi	r2,2047
   3271c:	2029883a 	mov	r20,r4
   32720:	90803626 	beq	r18,r2,327fc <__muldf3+0x134>
   32724:	80800434 	orhi	r2,r16,16
   32728:	100490fa 	slli	r2,r2,3
   3272c:	2020d77a 	srli	r16,r4,29
   32730:	202890fa 	slli	r20,r4,3
   32734:	94bf0044 	addi	r18,r18,-1023
   32738:	80a0b03a 	or	r16,r16,r2
   3273c:	0027883a 	mov	r19,zero
   32740:	0039883a 	mov	fp,zero
   32744:	3804d53a 	srli	r2,r7,20
   32748:	382ed7fa 	srli	r23,r7,31
   3274c:	04400434 	movhi	r17,16
   32750:	8c7fffc4 	addi	r17,r17,-1
   32754:	1081ffcc 	andi	r2,r2,2047
   32758:	3011883a 	mov	r8,r6
   3275c:	3c62703a 	and	r17,r7,r17
   32760:	ba803fcc 	andi	r10,r23,255
   32764:	10006d26 	beq	r2,zero,3291c <__muldf3+0x254>
   32768:	00c1ffc4 	movi	r3,2047
   3276c:	10c06526 	beq	r2,r3,32904 <__muldf3+0x23c>
   32770:	88c00434 	orhi	r3,r17,16
   32774:	180690fa 	slli	r3,r3,3
   32778:	3022d77a 	srli	r17,r6,29
   3277c:	301090fa 	slli	r8,r6,3
   32780:	10bf0044 	addi	r2,r2,-1023
   32784:	88e2b03a 	or	r17,r17,r3
   32788:	000b883a 	mov	r5,zero
   3278c:	9085883a 	add	r2,r18,r2
   32790:	2cc8b03a 	or	r4,r5,r19
   32794:	00c003c4 	movi	r3,15
   32798:	bdacf03a 	xor	r22,r23,r22
   3279c:	12c00044 	addi	r11,r2,1
   327a0:	19009936 	bltu	r3,r4,32a08 <__muldf3+0x340>
   327a4:	200890ba 	slli	r4,r4,2
   327a8:	00c000f4 	movhi	r3,3
   327ac:	18c9ef04 	addi	r3,r3,10172
   327b0:	20c9883a 	add	r4,r4,r3
   327b4:	20c00017 	ldw	r3,0(r4)
   327b8:	1800683a 	jmp	r3
   327bc:	00032a08 	cmpgei	zero,zero,3240
   327c0:	0003281c 	xori	zero,zero,3232
   327c4:	0003281c 	xori	zero,zero,3232
   327c8:	00032818 	cmpnei	zero,zero,3232
   327cc:	000329e4 	muli	zero,zero,3239
   327d0:	000329e4 	muli	zero,zero,3239
   327d4:	000329cc 	andi	zero,zero,3239
   327d8:	00032818 	cmpnei	zero,zero,3232
   327dc:	000329e4 	muli	zero,zero,3239
   327e0:	000329cc 	andi	zero,zero,3239
   327e4:	000329e4 	muli	zero,zero,3239
   327e8:	00032818 	cmpnei	zero,zero,3232
   327ec:	000329f4 	movhi	zero,3239
   327f0:	000329f4 	movhi	zero,3239
   327f4:	000329f4 	movhi	zero,3239
   327f8:	00032c10 	cmplti	zero,zero,3248
   327fc:	2404b03a 	or	r2,r4,r16
   32800:	10006f1e 	bne	r2,zero,329c0 <__muldf3+0x2f8>
   32804:	04c00204 	movi	r19,8
   32808:	0021883a 	mov	r16,zero
   3280c:	0029883a 	mov	r20,zero
   32810:	07000084 	movi	fp,2
   32814:	003fcb06 	br	32744 <__alt_data_end+0xffff2744>
   32818:	502d883a 	mov	r22,r10
   3281c:	00800084 	movi	r2,2
   32820:	28805726 	beq	r5,r2,32980 <__muldf3+0x2b8>
   32824:	008000c4 	movi	r2,3
   32828:	28816626 	beq	r5,r2,32dc4 <__muldf3+0x6fc>
   3282c:	00800044 	movi	r2,1
   32830:	2881411e 	bne	r5,r2,32d38 <__muldf3+0x670>
   32834:	b02b883a 	mov	r21,r22
   32838:	0005883a 	mov	r2,zero
   3283c:	000b883a 	mov	r5,zero
   32840:	0029883a 	mov	r20,zero
   32844:	1004953a 	slli	r2,r2,20
   32848:	a8c03fcc 	andi	r3,r21,255
   3284c:	04400434 	movhi	r17,16
   32850:	8c7fffc4 	addi	r17,r17,-1
   32854:	180697fa 	slli	r3,r3,31
   32858:	2c4a703a 	and	r5,r5,r17
   3285c:	288ab03a 	or	r5,r5,r2
   32860:	28c6b03a 	or	r3,r5,r3
   32864:	a005883a 	mov	r2,r20
   32868:	dfc00c17 	ldw	ra,48(sp)
   3286c:	df000b17 	ldw	fp,44(sp)
   32870:	ddc00a17 	ldw	r23,40(sp)
   32874:	dd800917 	ldw	r22,36(sp)
   32878:	dd400817 	ldw	r21,32(sp)
   3287c:	dd000717 	ldw	r20,28(sp)
   32880:	dcc00617 	ldw	r19,24(sp)
   32884:	dc800517 	ldw	r18,20(sp)
   32888:	dc400417 	ldw	r17,16(sp)
   3288c:	dc000317 	ldw	r16,12(sp)
   32890:	dec00d04 	addi	sp,sp,52
   32894:	f800283a 	ret
   32898:	2404b03a 	or	r2,r4,r16
   3289c:	2027883a 	mov	r19,r4
   328a0:	10004226 	beq	r2,zero,329ac <__muldf3+0x2e4>
   328a4:	8000fc26 	beq	r16,zero,32c98 <__muldf3+0x5d0>
   328a8:	8009883a 	mov	r4,r16
   328ac:	d9800215 	stw	r6,8(sp)
   328b0:	d9c00015 	stw	r7,0(sp)
   328b4:	da400115 	stw	r9,4(sp)
   328b8:	00338e00 	call	338e0 <__clzsi2>
   328bc:	d9800217 	ldw	r6,8(sp)
   328c0:	d9c00017 	ldw	r7,0(sp)
   328c4:	da400117 	ldw	r9,4(sp)
   328c8:	113ffd44 	addi	r4,r2,-11
   328cc:	00c00704 	movi	r3,28
   328d0:	1900ed16 	blt	r3,r4,32c88 <__muldf3+0x5c0>
   328d4:	00c00744 	movi	r3,29
   328d8:	147ffe04 	addi	r17,r2,-8
   328dc:	1907c83a 	sub	r3,r3,r4
   328e0:	8460983a 	sll	r16,r16,r17
   328e4:	98c6d83a 	srl	r3,r19,r3
   328e8:	9c68983a 	sll	r20,r19,r17
   328ec:	1c20b03a 	or	r16,r3,r16
   328f0:	1080fcc4 	addi	r2,r2,1011
   328f4:	00a5c83a 	sub	r18,zero,r2
   328f8:	0027883a 	mov	r19,zero
   328fc:	0039883a 	mov	fp,zero
   32900:	003f9006 	br	32744 <__alt_data_end+0xffff2744>
   32904:	3446b03a 	or	r3,r6,r17
   32908:	1800261e 	bne	r3,zero,329a4 <__muldf3+0x2dc>
   3290c:	0023883a 	mov	r17,zero
   32910:	0011883a 	mov	r8,zero
   32914:	01400084 	movi	r5,2
   32918:	003f9c06 	br	3278c <__alt_data_end+0xffff278c>
   3291c:	3446b03a 	or	r3,r6,r17
   32920:	18001c26 	beq	r3,zero,32994 <__muldf3+0x2cc>
   32924:	8800ce26 	beq	r17,zero,32c60 <__muldf3+0x598>
   32928:	8809883a 	mov	r4,r17
   3292c:	d9800215 	stw	r6,8(sp)
   32930:	da400115 	stw	r9,4(sp)
   32934:	da800015 	stw	r10,0(sp)
   32938:	00338e00 	call	338e0 <__clzsi2>
   3293c:	d9800217 	ldw	r6,8(sp)
   32940:	da400117 	ldw	r9,4(sp)
   32944:	da800017 	ldw	r10,0(sp)
   32948:	113ffd44 	addi	r4,r2,-11
   3294c:	00c00704 	movi	r3,28
   32950:	1900bf16 	blt	r3,r4,32c50 <__muldf3+0x588>
   32954:	00c00744 	movi	r3,29
   32958:	123ffe04 	addi	r8,r2,-8
   3295c:	1907c83a 	sub	r3,r3,r4
   32960:	8a22983a 	sll	r17,r17,r8
   32964:	30c6d83a 	srl	r3,r6,r3
   32968:	3210983a 	sll	r8,r6,r8
   3296c:	1c62b03a 	or	r17,r3,r17
   32970:	1080fcc4 	addi	r2,r2,1011
   32974:	0085c83a 	sub	r2,zero,r2
   32978:	000b883a 	mov	r5,zero
   3297c:	003f8306 	br	3278c <__alt_data_end+0xffff278c>
   32980:	b02b883a 	mov	r21,r22
   32984:	0081ffc4 	movi	r2,2047
   32988:	000b883a 	mov	r5,zero
   3298c:	0029883a 	mov	r20,zero
   32990:	003fac06 	br	32844 <__alt_data_end+0xffff2844>
   32994:	0023883a 	mov	r17,zero
   32998:	0011883a 	mov	r8,zero
   3299c:	01400044 	movi	r5,1
   329a0:	003f7a06 	br	3278c <__alt_data_end+0xffff278c>
   329a4:	014000c4 	movi	r5,3
   329a8:	003f7806 	br	3278c <__alt_data_end+0xffff278c>
   329ac:	04c00104 	movi	r19,4
   329b0:	0021883a 	mov	r16,zero
   329b4:	0029883a 	mov	r20,zero
   329b8:	07000044 	movi	fp,1
   329bc:	003f6106 	br	32744 <__alt_data_end+0xffff2744>
   329c0:	04c00304 	movi	r19,12
   329c4:	070000c4 	movi	fp,3
   329c8:	003f5e06 	br	32744 <__alt_data_end+0xffff2744>
   329cc:	01400434 	movhi	r5,16
   329d0:	002b883a 	mov	r21,zero
   329d4:	297fffc4 	addi	r5,r5,-1
   329d8:	053fffc4 	movi	r20,-1
   329dc:	0081ffc4 	movi	r2,2047
   329e0:	003f9806 	br	32844 <__alt_data_end+0xffff2844>
   329e4:	8023883a 	mov	r17,r16
   329e8:	a011883a 	mov	r8,r20
   329ec:	e00b883a 	mov	r5,fp
   329f0:	003f8a06 	br	3281c <__alt_data_end+0xffff281c>
   329f4:	8023883a 	mov	r17,r16
   329f8:	a011883a 	mov	r8,r20
   329fc:	482d883a 	mov	r22,r9
   32a00:	e00b883a 	mov	r5,fp
   32a04:	003f8506 	br	3281c <__alt_data_end+0xffff281c>
   32a08:	a00ad43a 	srli	r5,r20,16
   32a0c:	401ad43a 	srli	r13,r8,16
   32a10:	a53fffcc 	andi	r20,r20,65535
   32a14:	423fffcc 	andi	r8,r8,65535
   32a18:	4519383a 	mul	r12,r8,r20
   32a1c:	4147383a 	mul	r3,r8,r5
   32a20:	6d09383a 	mul	r4,r13,r20
   32a24:	600cd43a 	srli	r6,r12,16
   32a28:	2b5d383a 	mul	r14,r5,r13
   32a2c:	20c9883a 	add	r4,r4,r3
   32a30:	310d883a 	add	r6,r6,r4
   32a34:	30c0022e 	bgeu	r6,r3,32a40 <__muldf3+0x378>
   32a38:	00c00074 	movhi	r3,1
   32a3c:	70dd883a 	add	r14,r14,r3
   32a40:	8826d43a 	srli	r19,r17,16
   32a44:	8bffffcc 	andi	r15,r17,65535
   32a48:	7d23383a 	mul	r17,r15,r20
   32a4c:	7949383a 	mul	r4,r15,r5
   32a50:	9d29383a 	mul	r20,r19,r20
   32a54:	8814d43a 	srli	r10,r17,16
   32a58:	3012943a 	slli	r9,r6,16
   32a5c:	a129883a 	add	r20,r20,r4
   32a60:	633fffcc 	andi	r12,r12,65535
   32a64:	5515883a 	add	r10,r10,r20
   32a68:	3006d43a 	srli	r3,r6,16
   32a6c:	4b13883a 	add	r9,r9,r12
   32a70:	2ccb383a 	mul	r5,r5,r19
   32a74:	5100022e 	bgeu	r10,r4,32a80 <__muldf3+0x3b8>
   32a78:	01000074 	movhi	r4,1
   32a7c:	290b883a 	add	r5,r5,r4
   32a80:	802ad43a 	srli	r21,r16,16
   32a84:	843fffcc 	andi	r16,r16,65535
   32a88:	440d383a 	mul	r6,r8,r16
   32a8c:	4565383a 	mul	r18,r8,r21
   32a90:	8349383a 	mul	r4,r16,r13
   32a94:	500e943a 	slli	r7,r10,16
   32a98:	3010d43a 	srli	r8,r6,16
   32a9c:	5028d43a 	srli	r20,r10,16
   32aa0:	2489883a 	add	r4,r4,r18
   32aa4:	8abfffcc 	andi	r10,r17,65535
   32aa8:	3a95883a 	add	r10,r7,r10
   32aac:	4119883a 	add	r12,r8,r4
   32ab0:	a169883a 	add	r20,r20,r5
   32ab4:	1a87883a 	add	r3,r3,r10
   32ab8:	6d5b383a 	mul	r13,r13,r21
   32abc:	6480022e 	bgeu	r12,r18,32ac8 <__muldf3+0x400>
   32ac0:	01000074 	movhi	r4,1
   32ac4:	691b883a 	add	r13,r13,r4
   32ac8:	7c25383a 	mul	r18,r15,r16
   32acc:	7d4b383a 	mul	r5,r15,r21
   32ad0:	84cf383a 	mul	r7,r16,r19
   32ad4:	901ed43a 	srli	r15,r18,16
   32ad8:	6008d43a 	srli	r4,r12,16
   32adc:	6010943a 	slli	r8,r12,16
   32ae0:	394f883a 	add	r7,r7,r5
   32ae4:	333fffcc 	andi	r12,r6,65535
   32ae8:	79df883a 	add	r15,r15,r7
   32aec:	235b883a 	add	r13,r4,r13
   32af0:	9d63383a 	mul	r17,r19,r21
   32af4:	4309883a 	add	r4,r8,r12
   32af8:	7940022e 	bgeu	r15,r5,32b04 <__muldf3+0x43c>
   32afc:	01400074 	movhi	r5,1
   32b00:	8963883a 	add	r17,r17,r5
   32b04:	780a943a 	slli	r5,r15,16
   32b08:	91bfffcc 	andi	r6,r18,65535
   32b0c:	70c7883a 	add	r3,r14,r3
   32b10:	298d883a 	add	r6,r5,r6
   32b14:	1a8f803a 	cmpltu	r7,r3,r10
   32b18:	350b883a 	add	r5,r6,r20
   32b1c:	20c7883a 	add	r3,r4,r3
   32b20:	3955883a 	add	r10,r7,r5
   32b24:	1909803a 	cmpltu	r4,r3,r4
   32b28:	6a91883a 	add	r8,r13,r10
   32b2c:	780cd43a 	srli	r6,r15,16
   32b30:	2219883a 	add	r12,r4,r8
   32b34:	2d0b803a 	cmpltu	r5,r5,r20
   32b38:	51cf803a 	cmpltu	r7,r10,r7
   32b3c:	29ceb03a 	or	r7,r5,r7
   32b40:	4351803a 	cmpltu	r8,r8,r13
   32b44:	610b803a 	cmpltu	r5,r12,r4
   32b48:	4148b03a 	or	r4,r8,r5
   32b4c:	398f883a 	add	r7,r7,r6
   32b50:	3909883a 	add	r4,r7,r4
   32b54:	1810927a 	slli	r8,r3,9
   32b58:	2449883a 	add	r4,r4,r17
   32b5c:	2008927a 	slli	r4,r4,9
   32b60:	6022d5fa 	srli	r17,r12,23
   32b64:	1806d5fa 	srli	r3,r3,23
   32b68:	4252b03a 	or	r9,r8,r9
   32b6c:	600a927a 	slli	r5,r12,9
   32b70:	4810c03a 	cmpne	r8,r9,zero
   32b74:	2462b03a 	or	r17,r4,r17
   32b78:	40c6b03a 	or	r3,r8,r3
   32b7c:	8900402c 	andhi	r4,r17,256
   32b80:	1950b03a 	or	r8,r3,r5
   32b84:	20000726 	beq	r4,zero,32ba4 <__muldf3+0x4dc>
   32b88:	4006d07a 	srli	r3,r8,1
   32b8c:	880497fa 	slli	r2,r17,31
   32b90:	4200004c 	andi	r8,r8,1
   32b94:	8822d07a 	srli	r17,r17,1
   32b98:	1a10b03a 	or	r8,r3,r8
   32b9c:	1210b03a 	or	r8,r2,r8
   32ba0:	5805883a 	mov	r2,r11
   32ba4:	1140ffc4 	addi	r5,r2,1023
   32ba8:	0140440e 	bge	zero,r5,32cbc <__muldf3+0x5f4>
   32bac:	40c001cc 	andi	r3,r8,7
   32bb0:	18000726 	beq	r3,zero,32bd0 <__muldf3+0x508>
   32bb4:	40c003cc 	andi	r3,r8,15
   32bb8:	01000104 	movi	r4,4
   32bbc:	19000426 	beq	r3,r4,32bd0 <__muldf3+0x508>
   32bc0:	4107883a 	add	r3,r8,r4
   32bc4:	1a11803a 	cmpltu	r8,r3,r8
   32bc8:	8a23883a 	add	r17,r17,r8
   32bcc:	1811883a 	mov	r8,r3
   32bd0:	88c0402c 	andhi	r3,r17,256
   32bd4:	18000426 	beq	r3,zero,32be8 <__muldf3+0x520>
   32bd8:	11410004 	addi	r5,r2,1024
   32bdc:	00bfc034 	movhi	r2,65280
   32be0:	10bfffc4 	addi	r2,r2,-1
   32be4:	88a2703a 	and	r17,r17,r2
   32be8:	0081ff84 	movi	r2,2046
   32bec:	117f6416 	blt	r2,r5,32980 <__alt_data_end+0xffff2980>
   32bf0:	8828977a 	slli	r20,r17,29
   32bf4:	4010d0fa 	srli	r8,r8,3
   32bf8:	8822927a 	slli	r17,r17,9
   32bfc:	2881ffcc 	andi	r2,r5,2047
   32c00:	a228b03a 	or	r20,r20,r8
   32c04:	880ad33a 	srli	r5,r17,12
   32c08:	b02b883a 	mov	r21,r22
   32c0c:	003f0d06 	br	32844 <__alt_data_end+0xffff2844>
   32c10:	8080022c 	andhi	r2,r16,8
   32c14:	10000926 	beq	r2,zero,32c3c <__muldf3+0x574>
   32c18:	8880022c 	andhi	r2,r17,8
   32c1c:	1000071e 	bne	r2,zero,32c3c <__muldf3+0x574>
   32c20:	00800434 	movhi	r2,16
   32c24:	89400234 	orhi	r5,r17,8
   32c28:	10bfffc4 	addi	r2,r2,-1
   32c2c:	b82b883a 	mov	r21,r23
   32c30:	288a703a 	and	r5,r5,r2
   32c34:	4029883a 	mov	r20,r8
   32c38:	003f6806 	br	329dc <__alt_data_end+0xffff29dc>
   32c3c:	00800434 	movhi	r2,16
   32c40:	81400234 	orhi	r5,r16,8
   32c44:	10bfffc4 	addi	r2,r2,-1
   32c48:	288a703a 	and	r5,r5,r2
   32c4c:	003f6306 	br	329dc <__alt_data_end+0xffff29dc>
   32c50:	147ff604 	addi	r17,r2,-40
   32c54:	3462983a 	sll	r17,r6,r17
   32c58:	0011883a 	mov	r8,zero
   32c5c:	003f4406 	br	32970 <__alt_data_end+0xffff2970>
   32c60:	3009883a 	mov	r4,r6
   32c64:	d9800215 	stw	r6,8(sp)
   32c68:	da400115 	stw	r9,4(sp)
   32c6c:	da800015 	stw	r10,0(sp)
   32c70:	00338e00 	call	338e0 <__clzsi2>
   32c74:	10800804 	addi	r2,r2,32
   32c78:	da800017 	ldw	r10,0(sp)
   32c7c:	da400117 	ldw	r9,4(sp)
   32c80:	d9800217 	ldw	r6,8(sp)
   32c84:	003f3006 	br	32948 <__alt_data_end+0xffff2948>
   32c88:	143ff604 	addi	r16,r2,-40
   32c8c:	9c20983a 	sll	r16,r19,r16
   32c90:	0029883a 	mov	r20,zero
   32c94:	003f1606 	br	328f0 <__alt_data_end+0xffff28f0>
   32c98:	d9800215 	stw	r6,8(sp)
   32c9c:	d9c00015 	stw	r7,0(sp)
   32ca0:	da400115 	stw	r9,4(sp)
   32ca4:	00338e00 	call	338e0 <__clzsi2>
   32ca8:	10800804 	addi	r2,r2,32
   32cac:	da400117 	ldw	r9,4(sp)
   32cb0:	d9c00017 	ldw	r7,0(sp)
   32cb4:	d9800217 	ldw	r6,8(sp)
   32cb8:	003f0306 	br	328c8 <__alt_data_end+0xffff28c8>
   32cbc:	00c00044 	movi	r3,1
   32cc0:	1947c83a 	sub	r3,r3,r5
   32cc4:	00800e04 	movi	r2,56
   32cc8:	10feda16 	blt	r2,r3,32834 <__alt_data_end+0xffff2834>
   32ccc:	008007c4 	movi	r2,31
   32cd0:	10c01b16 	blt	r2,r3,32d40 <__muldf3+0x678>
   32cd4:	00800804 	movi	r2,32
   32cd8:	10c5c83a 	sub	r2,r2,r3
   32cdc:	888a983a 	sll	r5,r17,r2
   32ce0:	40c8d83a 	srl	r4,r8,r3
   32ce4:	4084983a 	sll	r2,r8,r2
   32ce8:	88e2d83a 	srl	r17,r17,r3
   32cec:	2906b03a 	or	r3,r5,r4
   32cf0:	1004c03a 	cmpne	r2,r2,zero
   32cf4:	1886b03a 	or	r3,r3,r2
   32cf8:	188001cc 	andi	r2,r3,7
   32cfc:	10000726 	beq	r2,zero,32d1c <__muldf3+0x654>
   32d00:	188003cc 	andi	r2,r3,15
   32d04:	01000104 	movi	r4,4
   32d08:	11000426 	beq	r2,r4,32d1c <__muldf3+0x654>
   32d0c:	1805883a 	mov	r2,r3
   32d10:	10c00104 	addi	r3,r2,4
   32d14:	1885803a 	cmpltu	r2,r3,r2
   32d18:	88a3883a 	add	r17,r17,r2
   32d1c:	8880202c 	andhi	r2,r17,128
   32d20:	10001c26 	beq	r2,zero,32d94 <__muldf3+0x6cc>
   32d24:	b02b883a 	mov	r21,r22
   32d28:	00800044 	movi	r2,1
   32d2c:	000b883a 	mov	r5,zero
   32d30:	0029883a 	mov	r20,zero
   32d34:	003ec306 	br	32844 <__alt_data_end+0xffff2844>
   32d38:	5805883a 	mov	r2,r11
   32d3c:	003f9906 	br	32ba4 <__alt_data_end+0xffff2ba4>
   32d40:	00bff844 	movi	r2,-31
   32d44:	1145c83a 	sub	r2,r2,r5
   32d48:	8888d83a 	srl	r4,r17,r2
   32d4c:	00800804 	movi	r2,32
   32d50:	18801a26 	beq	r3,r2,32dbc <__muldf3+0x6f4>
   32d54:	00801004 	movi	r2,64
   32d58:	10c5c83a 	sub	r2,r2,r3
   32d5c:	8884983a 	sll	r2,r17,r2
   32d60:	1204b03a 	or	r2,r2,r8
   32d64:	1004c03a 	cmpne	r2,r2,zero
   32d68:	2084b03a 	or	r2,r4,r2
   32d6c:	144001cc 	andi	r17,r2,7
   32d70:	88000d1e 	bne	r17,zero,32da8 <__muldf3+0x6e0>
   32d74:	000b883a 	mov	r5,zero
   32d78:	1028d0fa 	srli	r20,r2,3
   32d7c:	b02b883a 	mov	r21,r22
   32d80:	0005883a 	mov	r2,zero
   32d84:	a468b03a 	or	r20,r20,r17
   32d88:	003eae06 	br	32844 <__alt_data_end+0xffff2844>
   32d8c:	1007883a 	mov	r3,r2
   32d90:	0023883a 	mov	r17,zero
   32d94:	880a927a 	slli	r5,r17,9
   32d98:	1805883a 	mov	r2,r3
   32d9c:	8822977a 	slli	r17,r17,29
   32da0:	280ad33a 	srli	r5,r5,12
   32da4:	003ff406 	br	32d78 <__alt_data_end+0xffff2d78>
   32da8:	10c003cc 	andi	r3,r2,15
   32dac:	01000104 	movi	r4,4
   32db0:	193ff626 	beq	r3,r4,32d8c <__alt_data_end+0xffff2d8c>
   32db4:	0023883a 	mov	r17,zero
   32db8:	003fd506 	br	32d10 <__alt_data_end+0xffff2d10>
   32dbc:	0005883a 	mov	r2,zero
   32dc0:	003fe706 	br	32d60 <__alt_data_end+0xffff2d60>
   32dc4:	00800434 	movhi	r2,16
   32dc8:	89400234 	orhi	r5,r17,8
   32dcc:	10bfffc4 	addi	r2,r2,-1
   32dd0:	b02b883a 	mov	r21,r22
   32dd4:	288a703a 	and	r5,r5,r2
   32dd8:	4029883a 	mov	r20,r8
   32ddc:	003eff06 	br	329dc <__alt_data_end+0xffff29dc>

00032de0 <__subdf3>:
   32de0:	02000434 	movhi	r8,16
   32de4:	423fffc4 	addi	r8,r8,-1
   32de8:	defffb04 	addi	sp,sp,-20
   32dec:	2a14703a 	and	r10,r5,r8
   32df0:	3812d53a 	srli	r9,r7,20
   32df4:	3a10703a 	and	r8,r7,r8
   32df8:	2006d77a 	srli	r3,r4,29
   32dfc:	3004d77a 	srli	r2,r6,29
   32e00:	dc000015 	stw	r16,0(sp)
   32e04:	501490fa 	slli	r10,r10,3
   32e08:	2820d53a 	srli	r16,r5,20
   32e0c:	401090fa 	slli	r8,r8,3
   32e10:	dc800215 	stw	r18,8(sp)
   32e14:	dc400115 	stw	r17,4(sp)
   32e18:	dfc00415 	stw	ra,16(sp)
   32e1c:	202290fa 	slli	r17,r4,3
   32e20:	dcc00315 	stw	r19,12(sp)
   32e24:	4a41ffcc 	andi	r9,r9,2047
   32e28:	0101ffc4 	movi	r4,2047
   32e2c:	2824d7fa 	srli	r18,r5,31
   32e30:	8401ffcc 	andi	r16,r16,2047
   32e34:	50c6b03a 	or	r3,r10,r3
   32e38:	380ed7fa 	srli	r7,r7,31
   32e3c:	408ab03a 	or	r5,r8,r2
   32e40:	300c90fa 	slli	r6,r6,3
   32e44:	49009626 	beq	r9,r4,330a0 <__subdf3+0x2c0>
   32e48:	39c0005c 	xori	r7,r7,1
   32e4c:	8245c83a 	sub	r2,r16,r9
   32e50:	3c807426 	beq	r7,r18,33024 <__subdf3+0x244>
   32e54:	0080af0e 	bge	zero,r2,33114 <__subdf3+0x334>
   32e58:	48002a1e 	bne	r9,zero,32f04 <__subdf3+0x124>
   32e5c:	2988b03a 	or	r4,r5,r6
   32e60:	20009a1e 	bne	r4,zero,330cc <__subdf3+0x2ec>
   32e64:	888001cc 	andi	r2,r17,7
   32e68:	10000726 	beq	r2,zero,32e88 <__subdf3+0xa8>
   32e6c:	888003cc 	andi	r2,r17,15
   32e70:	01000104 	movi	r4,4
   32e74:	11000426 	beq	r2,r4,32e88 <__subdf3+0xa8>
   32e78:	890b883a 	add	r5,r17,r4
   32e7c:	2c63803a 	cmpltu	r17,r5,r17
   32e80:	1c47883a 	add	r3,r3,r17
   32e84:	2823883a 	mov	r17,r5
   32e88:	1880202c 	andhi	r2,r3,128
   32e8c:	10005926 	beq	r2,zero,32ff4 <__subdf3+0x214>
   32e90:	84000044 	addi	r16,r16,1
   32e94:	0081ffc4 	movi	r2,2047
   32e98:	8080be26 	beq	r16,r2,33194 <__subdf3+0x3b4>
   32e9c:	017fe034 	movhi	r5,65408
   32ea0:	297fffc4 	addi	r5,r5,-1
   32ea4:	1946703a 	and	r3,r3,r5
   32ea8:	1804977a 	slli	r2,r3,29
   32eac:	1806927a 	slli	r3,r3,9
   32eb0:	8822d0fa 	srli	r17,r17,3
   32eb4:	8401ffcc 	andi	r16,r16,2047
   32eb8:	180ad33a 	srli	r5,r3,12
   32ebc:	9100004c 	andi	r4,r18,1
   32ec0:	1444b03a 	or	r2,r2,r17
   32ec4:	80c1ffcc 	andi	r3,r16,2047
   32ec8:	1820953a 	slli	r16,r3,20
   32ecc:	20c03fcc 	andi	r3,r4,255
   32ed0:	180897fa 	slli	r4,r3,31
   32ed4:	00c00434 	movhi	r3,16
   32ed8:	18ffffc4 	addi	r3,r3,-1
   32edc:	28c6703a 	and	r3,r5,r3
   32ee0:	1c06b03a 	or	r3,r3,r16
   32ee4:	1906b03a 	or	r3,r3,r4
   32ee8:	dfc00417 	ldw	ra,16(sp)
   32eec:	dcc00317 	ldw	r19,12(sp)
   32ef0:	dc800217 	ldw	r18,8(sp)
   32ef4:	dc400117 	ldw	r17,4(sp)
   32ef8:	dc000017 	ldw	r16,0(sp)
   32efc:	dec00504 	addi	sp,sp,20
   32f00:	f800283a 	ret
   32f04:	0101ffc4 	movi	r4,2047
   32f08:	813fd626 	beq	r16,r4,32e64 <__alt_data_end+0xffff2e64>
   32f0c:	29402034 	orhi	r5,r5,128
   32f10:	01000e04 	movi	r4,56
   32f14:	2080a316 	blt	r4,r2,331a4 <__subdf3+0x3c4>
   32f18:	010007c4 	movi	r4,31
   32f1c:	2080c616 	blt	r4,r2,33238 <__subdf3+0x458>
   32f20:	01000804 	movi	r4,32
   32f24:	2089c83a 	sub	r4,r4,r2
   32f28:	2910983a 	sll	r8,r5,r4
   32f2c:	308ed83a 	srl	r7,r6,r2
   32f30:	3108983a 	sll	r4,r6,r4
   32f34:	2884d83a 	srl	r2,r5,r2
   32f38:	41ccb03a 	or	r6,r8,r7
   32f3c:	2008c03a 	cmpne	r4,r4,zero
   32f40:	310cb03a 	or	r6,r6,r4
   32f44:	898dc83a 	sub	r6,r17,r6
   32f48:	89a3803a 	cmpltu	r17,r17,r6
   32f4c:	1887c83a 	sub	r3,r3,r2
   32f50:	1c47c83a 	sub	r3,r3,r17
   32f54:	3023883a 	mov	r17,r6
   32f58:	1880202c 	andhi	r2,r3,128
   32f5c:	10002326 	beq	r2,zero,32fec <__subdf3+0x20c>
   32f60:	04c02034 	movhi	r19,128
   32f64:	9cffffc4 	addi	r19,r19,-1
   32f68:	1ce6703a 	and	r19,r3,r19
   32f6c:	98007a26 	beq	r19,zero,33158 <__subdf3+0x378>
   32f70:	9809883a 	mov	r4,r19
   32f74:	00338e00 	call	338e0 <__clzsi2>
   32f78:	113ffe04 	addi	r4,r2,-8
   32f7c:	00c007c4 	movi	r3,31
   32f80:	19007b16 	blt	r3,r4,33170 <__subdf3+0x390>
   32f84:	00800804 	movi	r2,32
   32f88:	1105c83a 	sub	r2,r2,r4
   32f8c:	8884d83a 	srl	r2,r17,r2
   32f90:	9906983a 	sll	r3,r19,r4
   32f94:	8922983a 	sll	r17,r17,r4
   32f98:	10c4b03a 	or	r2,r2,r3
   32f9c:	24007816 	blt	r4,r16,33180 <__subdf3+0x3a0>
   32fa0:	2421c83a 	sub	r16,r4,r16
   32fa4:	80c00044 	addi	r3,r16,1
   32fa8:	010007c4 	movi	r4,31
   32fac:	20c09516 	blt	r4,r3,33204 <__subdf3+0x424>
   32fb0:	01400804 	movi	r5,32
   32fb4:	28cbc83a 	sub	r5,r5,r3
   32fb8:	88c8d83a 	srl	r4,r17,r3
   32fbc:	8962983a 	sll	r17,r17,r5
   32fc0:	114a983a 	sll	r5,r2,r5
   32fc4:	10c6d83a 	srl	r3,r2,r3
   32fc8:	8804c03a 	cmpne	r2,r17,zero
   32fcc:	290ab03a 	or	r5,r5,r4
   32fd0:	28a2b03a 	or	r17,r5,r2
   32fd4:	0021883a 	mov	r16,zero
   32fd8:	003fa206 	br	32e64 <__alt_data_end+0xffff2e64>
   32fdc:	2090b03a 	or	r8,r4,r2
   32fe0:	40018e26 	beq	r8,zero,3361c <__subdf3+0x83c>
   32fe4:	1007883a 	mov	r3,r2
   32fe8:	2023883a 	mov	r17,r4
   32fec:	888001cc 	andi	r2,r17,7
   32ff0:	103f9e1e 	bne	r2,zero,32e6c <__alt_data_end+0xffff2e6c>
   32ff4:	1804977a 	slli	r2,r3,29
   32ff8:	8822d0fa 	srli	r17,r17,3
   32ffc:	1810d0fa 	srli	r8,r3,3
   33000:	9100004c 	andi	r4,r18,1
   33004:	1444b03a 	or	r2,r2,r17
   33008:	00c1ffc4 	movi	r3,2047
   3300c:	80c02826 	beq	r16,r3,330b0 <__subdf3+0x2d0>
   33010:	01400434 	movhi	r5,16
   33014:	297fffc4 	addi	r5,r5,-1
   33018:	80e0703a 	and	r16,r16,r3
   3301c:	414a703a 	and	r5,r8,r5
   33020:	003fa806 	br	32ec4 <__alt_data_end+0xffff2ec4>
   33024:	0080630e 	bge	zero,r2,331b4 <__subdf3+0x3d4>
   33028:	48003026 	beq	r9,zero,330ec <__subdf3+0x30c>
   3302c:	0101ffc4 	movi	r4,2047
   33030:	813f8c26 	beq	r16,r4,32e64 <__alt_data_end+0xffff2e64>
   33034:	29402034 	orhi	r5,r5,128
   33038:	01000e04 	movi	r4,56
   3303c:	2080a90e 	bge	r4,r2,332e4 <__subdf3+0x504>
   33040:	298cb03a 	or	r6,r5,r6
   33044:	3012c03a 	cmpne	r9,r6,zero
   33048:	0005883a 	mov	r2,zero
   3304c:	4c53883a 	add	r9,r9,r17
   33050:	4c63803a 	cmpltu	r17,r9,r17
   33054:	10c7883a 	add	r3,r2,r3
   33058:	88c7883a 	add	r3,r17,r3
   3305c:	4823883a 	mov	r17,r9
   33060:	1880202c 	andhi	r2,r3,128
   33064:	1000d026 	beq	r2,zero,333a8 <__subdf3+0x5c8>
   33068:	84000044 	addi	r16,r16,1
   3306c:	0081ffc4 	movi	r2,2047
   33070:	8080fe26 	beq	r16,r2,3346c <__subdf3+0x68c>
   33074:	00bfe034 	movhi	r2,65408
   33078:	10bfffc4 	addi	r2,r2,-1
   3307c:	1886703a 	and	r3,r3,r2
   33080:	880ad07a 	srli	r5,r17,1
   33084:	180497fa 	slli	r2,r3,31
   33088:	8900004c 	andi	r4,r17,1
   3308c:	2922b03a 	or	r17,r5,r4
   33090:	1806d07a 	srli	r3,r3,1
   33094:	1462b03a 	or	r17,r2,r17
   33098:	3825883a 	mov	r18,r7
   3309c:	003f7106 	br	32e64 <__alt_data_end+0xffff2e64>
   330a0:	2984b03a 	or	r2,r5,r6
   330a4:	103f6826 	beq	r2,zero,32e48 <__alt_data_end+0xffff2e48>
   330a8:	39c03fcc 	andi	r7,r7,255
   330ac:	003f6706 	br	32e4c <__alt_data_end+0xffff2e4c>
   330b0:	4086b03a 	or	r3,r8,r2
   330b4:	18015226 	beq	r3,zero,33600 <__subdf3+0x820>
   330b8:	00c00434 	movhi	r3,16
   330bc:	41400234 	orhi	r5,r8,8
   330c0:	18ffffc4 	addi	r3,r3,-1
   330c4:	28ca703a 	and	r5,r5,r3
   330c8:	003f7e06 	br	32ec4 <__alt_data_end+0xffff2ec4>
   330cc:	10bfffc4 	addi	r2,r2,-1
   330d0:	1000491e 	bne	r2,zero,331f8 <__subdf3+0x418>
   330d4:	898fc83a 	sub	r7,r17,r6
   330d8:	89e3803a 	cmpltu	r17,r17,r7
   330dc:	1947c83a 	sub	r3,r3,r5
   330e0:	1c47c83a 	sub	r3,r3,r17
   330e4:	3823883a 	mov	r17,r7
   330e8:	003f9b06 	br	32f58 <__alt_data_end+0xffff2f58>
   330ec:	2988b03a 	or	r4,r5,r6
   330f0:	203f5c26 	beq	r4,zero,32e64 <__alt_data_end+0xffff2e64>
   330f4:	10bfffc4 	addi	r2,r2,-1
   330f8:	1000931e 	bne	r2,zero,33348 <__subdf3+0x568>
   330fc:	898d883a 	add	r6,r17,r6
   33100:	3463803a 	cmpltu	r17,r6,r17
   33104:	1947883a 	add	r3,r3,r5
   33108:	88c7883a 	add	r3,r17,r3
   3310c:	3023883a 	mov	r17,r6
   33110:	003fd306 	br	33060 <__alt_data_end+0xffff3060>
   33114:	1000541e 	bne	r2,zero,33268 <__subdf3+0x488>
   33118:	80800044 	addi	r2,r16,1
   3311c:	1081ffcc 	andi	r2,r2,2047
   33120:	01000044 	movi	r4,1
   33124:	2080a20e 	bge	r4,r2,333b0 <__subdf3+0x5d0>
   33128:	8989c83a 	sub	r4,r17,r6
   3312c:	8905803a 	cmpltu	r2,r17,r4
   33130:	1967c83a 	sub	r19,r3,r5
   33134:	98a7c83a 	sub	r19,r19,r2
   33138:	9880202c 	andhi	r2,r19,128
   3313c:	10006326 	beq	r2,zero,332cc <__subdf3+0x4ec>
   33140:	3463c83a 	sub	r17,r6,r17
   33144:	28c7c83a 	sub	r3,r5,r3
   33148:	344d803a 	cmpltu	r6,r6,r17
   3314c:	19a7c83a 	sub	r19,r3,r6
   33150:	3825883a 	mov	r18,r7
   33154:	983f861e 	bne	r19,zero,32f70 <__alt_data_end+0xffff2f70>
   33158:	8809883a 	mov	r4,r17
   3315c:	00338e00 	call	338e0 <__clzsi2>
   33160:	10800804 	addi	r2,r2,32
   33164:	113ffe04 	addi	r4,r2,-8
   33168:	00c007c4 	movi	r3,31
   3316c:	193f850e 	bge	r3,r4,32f84 <__alt_data_end+0xffff2f84>
   33170:	10bff604 	addi	r2,r2,-40
   33174:	8884983a 	sll	r2,r17,r2
   33178:	0023883a 	mov	r17,zero
   3317c:	243f880e 	bge	r4,r16,32fa0 <__alt_data_end+0xffff2fa0>
   33180:	00ffe034 	movhi	r3,65408
   33184:	18ffffc4 	addi	r3,r3,-1
   33188:	8121c83a 	sub	r16,r16,r4
   3318c:	10c6703a 	and	r3,r2,r3
   33190:	003f3406 	br	32e64 <__alt_data_end+0xffff2e64>
   33194:	9100004c 	andi	r4,r18,1
   33198:	000b883a 	mov	r5,zero
   3319c:	0005883a 	mov	r2,zero
   331a0:	003f4806 	br	32ec4 <__alt_data_end+0xffff2ec4>
   331a4:	298cb03a 	or	r6,r5,r6
   331a8:	300cc03a 	cmpne	r6,r6,zero
   331ac:	0005883a 	mov	r2,zero
   331b0:	003f6406 	br	32f44 <__alt_data_end+0xffff2f44>
   331b4:	10009a1e 	bne	r2,zero,33420 <__subdf3+0x640>
   331b8:	82400044 	addi	r9,r16,1
   331bc:	4881ffcc 	andi	r2,r9,2047
   331c0:	02800044 	movi	r10,1
   331c4:	5080670e 	bge	r10,r2,33364 <__subdf3+0x584>
   331c8:	0081ffc4 	movi	r2,2047
   331cc:	4880af26 	beq	r9,r2,3348c <__subdf3+0x6ac>
   331d0:	898d883a 	add	r6,r17,r6
   331d4:	1945883a 	add	r2,r3,r5
   331d8:	3447803a 	cmpltu	r3,r6,r17
   331dc:	1887883a 	add	r3,r3,r2
   331e0:	182297fa 	slli	r17,r3,31
   331e4:	300cd07a 	srli	r6,r6,1
   331e8:	1806d07a 	srli	r3,r3,1
   331ec:	4821883a 	mov	r16,r9
   331f0:	89a2b03a 	or	r17,r17,r6
   331f4:	003f1b06 	br	32e64 <__alt_data_end+0xffff2e64>
   331f8:	0101ffc4 	movi	r4,2047
   331fc:	813f441e 	bne	r16,r4,32f10 <__alt_data_end+0xffff2f10>
   33200:	003f1806 	br	32e64 <__alt_data_end+0xffff2e64>
   33204:	843ff844 	addi	r16,r16,-31
   33208:	01400804 	movi	r5,32
   3320c:	1408d83a 	srl	r4,r2,r16
   33210:	19405026 	beq	r3,r5,33354 <__subdf3+0x574>
   33214:	01401004 	movi	r5,64
   33218:	28c7c83a 	sub	r3,r5,r3
   3321c:	10c4983a 	sll	r2,r2,r3
   33220:	88a2b03a 	or	r17,r17,r2
   33224:	8822c03a 	cmpne	r17,r17,zero
   33228:	2462b03a 	or	r17,r4,r17
   3322c:	0007883a 	mov	r3,zero
   33230:	0021883a 	mov	r16,zero
   33234:	003f6d06 	br	32fec <__alt_data_end+0xffff2fec>
   33238:	11fff804 	addi	r7,r2,-32
   3323c:	01000804 	movi	r4,32
   33240:	29ced83a 	srl	r7,r5,r7
   33244:	11004526 	beq	r2,r4,3335c <__subdf3+0x57c>
   33248:	01001004 	movi	r4,64
   3324c:	2089c83a 	sub	r4,r4,r2
   33250:	2904983a 	sll	r2,r5,r4
   33254:	118cb03a 	or	r6,r2,r6
   33258:	300cc03a 	cmpne	r6,r6,zero
   3325c:	398cb03a 	or	r6,r7,r6
   33260:	0005883a 	mov	r2,zero
   33264:	003f3706 	br	32f44 <__alt_data_end+0xffff2f44>
   33268:	80002a26 	beq	r16,zero,33314 <__subdf3+0x534>
   3326c:	0101ffc4 	movi	r4,2047
   33270:	49006626 	beq	r9,r4,3340c <__subdf3+0x62c>
   33274:	0085c83a 	sub	r2,zero,r2
   33278:	18c02034 	orhi	r3,r3,128
   3327c:	01000e04 	movi	r4,56
   33280:	20807e16 	blt	r4,r2,3347c <__subdf3+0x69c>
   33284:	010007c4 	movi	r4,31
   33288:	2080e716 	blt	r4,r2,33628 <__subdf3+0x848>
   3328c:	01000804 	movi	r4,32
   33290:	2089c83a 	sub	r4,r4,r2
   33294:	1914983a 	sll	r10,r3,r4
   33298:	8890d83a 	srl	r8,r17,r2
   3329c:	8908983a 	sll	r4,r17,r4
   332a0:	1884d83a 	srl	r2,r3,r2
   332a4:	5222b03a 	or	r17,r10,r8
   332a8:	2006c03a 	cmpne	r3,r4,zero
   332ac:	88e2b03a 	or	r17,r17,r3
   332b0:	3463c83a 	sub	r17,r6,r17
   332b4:	2885c83a 	sub	r2,r5,r2
   332b8:	344d803a 	cmpltu	r6,r6,r17
   332bc:	1187c83a 	sub	r3,r2,r6
   332c0:	4821883a 	mov	r16,r9
   332c4:	3825883a 	mov	r18,r7
   332c8:	003f2306 	br	32f58 <__alt_data_end+0xffff2f58>
   332cc:	24d0b03a 	or	r8,r4,r19
   332d0:	40001b1e 	bne	r8,zero,33340 <__subdf3+0x560>
   332d4:	0005883a 	mov	r2,zero
   332d8:	0009883a 	mov	r4,zero
   332dc:	0021883a 	mov	r16,zero
   332e0:	003f4906 	br	33008 <__alt_data_end+0xffff3008>
   332e4:	010007c4 	movi	r4,31
   332e8:	20803a16 	blt	r4,r2,333d4 <__subdf3+0x5f4>
   332ec:	01000804 	movi	r4,32
   332f0:	2089c83a 	sub	r4,r4,r2
   332f4:	2912983a 	sll	r9,r5,r4
   332f8:	3090d83a 	srl	r8,r6,r2
   332fc:	3108983a 	sll	r4,r6,r4
   33300:	2884d83a 	srl	r2,r5,r2
   33304:	4a12b03a 	or	r9,r9,r8
   33308:	2008c03a 	cmpne	r4,r4,zero
   3330c:	4912b03a 	or	r9,r9,r4
   33310:	003f4e06 	br	3304c <__alt_data_end+0xffff304c>
   33314:	1c48b03a 	or	r4,r3,r17
   33318:	20003c26 	beq	r4,zero,3340c <__subdf3+0x62c>
   3331c:	0084303a 	nor	r2,zero,r2
   33320:	1000381e 	bne	r2,zero,33404 <__subdf3+0x624>
   33324:	3463c83a 	sub	r17,r6,r17
   33328:	28c5c83a 	sub	r2,r5,r3
   3332c:	344d803a 	cmpltu	r6,r6,r17
   33330:	1187c83a 	sub	r3,r2,r6
   33334:	4821883a 	mov	r16,r9
   33338:	3825883a 	mov	r18,r7
   3333c:	003f0606 	br	32f58 <__alt_data_end+0xffff2f58>
   33340:	2023883a 	mov	r17,r4
   33344:	003f0906 	br	32f6c <__alt_data_end+0xffff2f6c>
   33348:	0101ffc4 	movi	r4,2047
   3334c:	813f3a1e 	bne	r16,r4,33038 <__alt_data_end+0xffff3038>
   33350:	003ec406 	br	32e64 <__alt_data_end+0xffff2e64>
   33354:	0005883a 	mov	r2,zero
   33358:	003fb106 	br	33220 <__alt_data_end+0xffff3220>
   3335c:	0005883a 	mov	r2,zero
   33360:	003fbc06 	br	33254 <__alt_data_end+0xffff3254>
   33364:	1c44b03a 	or	r2,r3,r17
   33368:	80008e1e 	bne	r16,zero,335a4 <__subdf3+0x7c4>
   3336c:	1000c826 	beq	r2,zero,33690 <__subdf3+0x8b0>
   33370:	2984b03a 	or	r2,r5,r6
   33374:	103ebb26 	beq	r2,zero,32e64 <__alt_data_end+0xffff2e64>
   33378:	8989883a 	add	r4,r17,r6
   3337c:	1945883a 	add	r2,r3,r5
   33380:	2447803a 	cmpltu	r3,r4,r17
   33384:	1887883a 	add	r3,r3,r2
   33388:	1880202c 	andhi	r2,r3,128
   3338c:	2023883a 	mov	r17,r4
   33390:	103f1626 	beq	r2,zero,32fec <__alt_data_end+0xffff2fec>
   33394:	00bfe034 	movhi	r2,65408
   33398:	10bfffc4 	addi	r2,r2,-1
   3339c:	5021883a 	mov	r16,r10
   333a0:	1886703a 	and	r3,r3,r2
   333a4:	003eaf06 	br	32e64 <__alt_data_end+0xffff2e64>
   333a8:	3825883a 	mov	r18,r7
   333ac:	003f0f06 	br	32fec <__alt_data_end+0xffff2fec>
   333b0:	1c44b03a 	or	r2,r3,r17
   333b4:	8000251e 	bne	r16,zero,3344c <__subdf3+0x66c>
   333b8:	1000661e 	bne	r2,zero,33554 <__subdf3+0x774>
   333bc:	2990b03a 	or	r8,r5,r6
   333c0:	40009626 	beq	r8,zero,3361c <__subdf3+0x83c>
   333c4:	2807883a 	mov	r3,r5
   333c8:	3023883a 	mov	r17,r6
   333cc:	3825883a 	mov	r18,r7
   333d0:	003ea406 	br	32e64 <__alt_data_end+0xffff2e64>
   333d4:	127ff804 	addi	r9,r2,-32
   333d8:	01000804 	movi	r4,32
   333dc:	2a52d83a 	srl	r9,r5,r9
   333e0:	11008c26 	beq	r2,r4,33614 <__subdf3+0x834>
   333e4:	01001004 	movi	r4,64
   333e8:	2085c83a 	sub	r2,r4,r2
   333ec:	2884983a 	sll	r2,r5,r2
   333f0:	118cb03a 	or	r6,r2,r6
   333f4:	300cc03a 	cmpne	r6,r6,zero
   333f8:	4992b03a 	or	r9,r9,r6
   333fc:	0005883a 	mov	r2,zero
   33400:	003f1206 	br	3304c <__alt_data_end+0xffff304c>
   33404:	0101ffc4 	movi	r4,2047
   33408:	493f9c1e 	bne	r9,r4,3327c <__alt_data_end+0xffff327c>
   3340c:	2807883a 	mov	r3,r5
   33410:	3023883a 	mov	r17,r6
   33414:	4821883a 	mov	r16,r9
   33418:	3825883a 	mov	r18,r7
   3341c:	003e9106 	br	32e64 <__alt_data_end+0xffff2e64>
   33420:	80001f1e 	bne	r16,zero,334a0 <__subdf3+0x6c0>
   33424:	1c48b03a 	or	r4,r3,r17
   33428:	20005a26 	beq	r4,zero,33594 <__subdf3+0x7b4>
   3342c:	0084303a 	nor	r2,zero,r2
   33430:	1000561e 	bne	r2,zero,3358c <__subdf3+0x7ac>
   33434:	89a3883a 	add	r17,r17,r6
   33438:	1945883a 	add	r2,r3,r5
   3343c:	898d803a 	cmpltu	r6,r17,r6
   33440:	3087883a 	add	r3,r6,r2
   33444:	4821883a 	mov	r16,r9
   33448:	003f0506 	br	33060 <__alt_data_end+0xffff3060>
   3344c:	10002b1e 	bne	r2,zero,334fc <__subdf3+0x71c>
   33450:	2984b03a 	or	r2,r5,r6
   33454:	10008026 	beq	r2,zero,33658 <__subdf3+0x878>
   33458:	2807883a 	mov	r3,r5
   3345c:	3023883a 	mov	r17,r6
   33460:	3825883a 	mov	r18,r7
   33464:	0401ffc4 	movi	r16,2047
   33468:	003e7e06 	br	32e64 <__alt_data_end+0xffff2e64>
   3346c:	3809883a 	mov	r4,r7
   33470:	0011883a 	mov	r8,zero
   33474:	0005883a 	mov	r2,zero
   33478:	003ee306 	br	33008 <__alt_data_end+0xffff3008>
   3347c:	1c62b03a 	or	r17,r3,r17
   33480:	8822c03a 	cmpne	r17,r17,zero
   33484:	0005883a 	mov	r2,zero
   33488:	003f8906 	br	332b0 <__alt_data_end+0xffff32b0>
   3348c:	3809883a 	mov	r4,r7
   33490:	4821883a 	mov	r16,r9
   33494:	0011883a 	mov	r8,zero
   33498:	0005883a 	mov	r2,zero
   3349c:	003eda06 	br	33008 <__alt_data_end+0xffff3008>
   334a0:	0101ffc4 	movi	r4,2047
   334a4:	49003b26 	beq	r9,r4,33594 <__subdf3+0x7b4>
   334a8:	0085c83a 	sub	r2,zero,r2
   334ac:	18c02034 	orhi	r3,r3,128
   334b0:	01000e04 	movi	r4,56
   334b4:	20806e16 	blt	r4,r2,33670 <__subdf3+0x890>
   334b8:	010007c4 	movi	r4,31
   334bc:	20807716 	blt	r4,r2,3369c <__subdf3+0x8bc>
   334c0:	01000804 	movi	r4,32
   334c4:	2089c83a 	sub	r4,r4,r2
   334c8:	1914983a 	sll	r10,r3,r4
   334cc:	8890d83a 	srl	r8,r17,r2
   334d0:	8908983a 	sll	r4,r17,r4
   334d4:	1884d83a 	srl	r2,r3,r2
   334d8:	5222b03a 	or	r17,r10,r8
   334dc:	2006c03a 	cmpne	r3,r4,zero
   334e0:	88e2b03a 	or	r17,r17,r3
   334e4:	89a3883a 	add	r17,r17,r6
   334e8:	1145883a 	add	r2,r2,r5
   334ec:	898d803a 	cmpltu	r6,r17,r6
   334f0:	3087883a 	add	r3,r6,r2
   334f4:	4821883a 	mov	r16,r9
   334f8:	003ed906 	br	33060 <__alt_data_end+0xffff3060>
   334fc:	2984b03a 	or	r2,r5,r6
   33500:	10004226 	beq	r2,zero,3360c <__subdf3+0x82c>
   33504:	1808d0fa 	srli	r4,r3,3
   33508:	8822d0fa 	srli	r17,r17,3
   3350c:	1806977a 	slli	r3,r3,29
   33510:	2080022c 	andhi	r2,r4,8
   33514:	1c62b03a 	or	r17,r3,r17
   33518:	10000826 	beq	r2,zero,3353c <__subdf3+0x75c>
   3351c:	2812d0fa 	srli	r9,r5,3
   33520:	4880022c 	andhi	r2,r9,8
   33524:	1000051e 	bne	r2,zero,3353c <__subdf3+0x75c>
   33528:	300cd0fa 	srli	r6,r6,3
   3352c:	2804977a 	slli	r2,r5,29
   33530:	4809883a 	mov	r4,r9
   33534:	3825883a 	mov	r18,r7
   33538:	11a2b03a 	or	r17,r2,r6
   3353c:	8806d77a 	srli	r3,r17,29
   33540:	200890fa 	slli	r4,r4,3
   33544:	882290fa 	slli	r17,r17,3
   33548:	0401ffc4 	movi	r16,2047
   3354c:	1906b03a 	or	r3,r3,r4
   33550:	003e4406 	br	32e64 <__alt_data_end+0xffff2e64>
   33554:	2984b03a 	or	r2,r5,r6
   33558:	103e4226 	beq	r2,zero,32e64 <__alt_data_end+0xffff2e64>
   3355c:	8989c83a 	sub	r4,r17,r6
   33560:	8911803a 	cmpltu	r8,r17,r4
   33564:	1945c83a 	sub	r2,r3,r5
   33568:	1205c83a 	sub	r2,r2,r8
   3356c:	1200202c 	andhi	r8,r2,128
   33570:	403e9a26 	beq	r8,zero,32fdc <__alt_data_end+0xffff2fdc>
   33574:	3463c83a 	sub	r17,r6,r17
   33578:	28c5c83a 	sub	r2,r5,r3
   3357c:	344d803a 	cmpltu	r6,r6,r17
   33580:	1187c83a 	sub	r3,r2,r6
   33584:	3825883a 	mov	r18,r7
   33588:	003e3606 	br	32e64 <__alt_data_end+0xffff2e64>
   3358c:	0101ffc4 	movi	r4,2047
   33590:	493fc71e 	bne	r9,r4,334b0 <__alt_data_end+0xffff34b0>
   33594:	2807883a 	mov	r3,r5
   33598:	3023883a 	mov	r17,r6
   3359c:	4821883a 	mov	r16,r9
   335a0:	003e3006 	br	32e64 <__alt_data_end+0xffff2e64>
   335a4:	10003626 	beq	r2,zero,33680 <__subdf3+0x8a0>
   335a8:	2984b03a 	or	r2,r5,r6
   335ac:	10001726 	beq	r2,zero,3360c <__subdf3+0x82c>
   335b0:	1808d0fa 	srli	r4,r3,3
   335b4:	8822d0fa 	srli	r17,r17,3
   335b8:	1806977a 	slli	r3,r3,29
   335bc:	2080022c 	andhi	r2,r4,8
   335c0:	1c62b03a 	or	r17,r3,r17
   335c4:	10000726 	beq	r2,zero,335e4 <__subdf3+0x804>
   335c8:	2812d0fa 	srli	r9,r5,3
   335cc:	4880022c 	andhi	r2,r9,8
   335d0:	1000041e 	bne	r2,zero,335e4 <__subdf3+0x804>
   335d4:	300cd0fa 	srli	r6,r6,3
   335d8:	2804977a 	slli	r2,r5,29
   335dc:	4809883a 	mov	r4,r9
   335e0:	11a2b03a 	or	r17,r2,r6
   335e4:	8806d77a 	srli	r3,r17,29
   335e8:	200890fa 	slli	r4,r4,3
   335ec:	882290fa 	slli	r17,r17,3
   335f0:	3825883a 	mov	r18,r7
   335f4:	1906b03a 	or	r3,r3,r4
   335f8:	0401ffc4 	movi	r16,2047
   335fc:	003e1906 	br	32e64 <__alt_data_end+0xffff2e64>
   33600:	000b883a 	mov	r5,zero
   33604:	0005883a 	mov	r2,zero
   33608:	003e2e06 	br	32ec4 <__alt_data_end+0xffff2ec4>
   3360c:	0401ffc4 	movi	r16,2047
   33610:	003e1406 	br	32e64 <__alt_data_end+0xffff2e64>
   33614:	0005883a 	mov	r2,zero
   33618:	003f7506 	br	333f0 <__alt_data_end+0xffff33f0>
   3361c:	0005883a 	mov	r2,zero
   33620:	0009883a 	mov	r4,zero
   33624:	003e7806 	br	33008 <__alt_data_end+0xffff3008>
   33628:	123ff804 	addi	r8,r2,-32
   3362c:	01000804 	movi	r4,32
   33630:	1a10d83a 	srl	r8,r3,r8
   33634:	11002526 	beq	r2,r4,336cc <__subdf3+0x8ec>
   33638:	01001004 	movi	r4,64
   3363c:	2085c83a 	sub	r2,r4,r2
   33640:	1884983a 	sll	r2,r3,r2
   33644:	1444b03a 	or	r2,r2,r17
   33648:	1004c03a 	cmpne	r2,r2,zero
   3364c:	40a2b03a 	or	r17,r8,r2
   33650:	0005883a 	mov	r2,zero
   33654:	003f1606 	br	332b0 <__alt_data_end+0xffff32b0>
   33658:	02000434 	movhi	r8,16
   3365c:	0009883a 	mov	r4,zero
   33660:	423fffc4 	addi	r8,r8,-1
   33664:	00bfffc4 	movi	r2,-1
   33668:	0401ffc4 	movi	r16,2047
   3366c:	003e6606 	br	33008 <__alt_data_end+0xffff3008>
   33670:	1c62b03a 	or	r17,r3,r17
   33674:	8822c03a 	cmpne	r17,r17,zero
   33678:	0005883a 	mov	r2,zero
   3367c:	003f9906 	br	334e4 <__alt_data_end+0xffff34e4>
   33680:	2807883a 	mov	r3,r5
   33684:	3023883a 	mov	r17,r6
   33688:	0401ffc4 	movi	r16,2047
   3368c:	003df506 	br	32e64 <__alt_data_end+0xffff2e64>
   33690:	2807883a 	mov	r3,r5
   33694:	3023883a 	mov	r17,r6
   33698:	003df206 	br	32e64 <__alt_data_end+0xffff2e64>
   3369c:	123ff804 	addi	r8,r2,-32
   336a0:	01000804 	movi	r4,32
   336a4:	1a10d83a 	srl	r8,r3,r8
   336a8:	11000a26 	beq	r2,r4,336d4 <__subdf3+0x8f4>
   336ac:	01001004 	movi	r4,64
   336b0:	2085c83a 	sub	r2,r4,r2
   336b4:	1884983a 	sll	r2,r3,r2
   336b8:	1444b03a 	or	r2,r2,r17
   336bc:	1004c03a 	cmpne	r2,r2,zero
   336c0:	40a2b03a 	or	r17,r8,r2
   336c4:	0005883a 	mov	r2,zero
   336c8:	003f8606 	br	334e4 <__alt_data_end+0xffff34e4>
   336cc:	0005883a 	mov	r2,zero
   336d0:	003fdc06 	br	33644 <__alt_data_end+0xffff3644>
   336d4:	0005883a 	mov	r2,zero
   336d8:	003ff706 	br	336b8 <__alt_data_end+0xffff36b8>

000336dc <__fixdfsi>:
   336dc:	280cd53a 	srli	r6,r5,20
   336e0:	00c00434 	movhi	r3,16
   336e4:	18ffffc4 	addi	r3,r3,-1
   336e8:	3181ffcc 	andi	r6,r6,2047
   336ec:	01c0ff84 	movi	r7,1022
   336f0:	28c6703a 	and	r3,r5,r3
   336f4:	280ad7fa 	srli	r5,r5,31
   336f8:	3980120e 	bge	r7,r6,33744 <__fixdfsi+0x68>
   336fc:	00810744 	movi	r2,1053
   33700:	11800c16 	blt	r2,r6,33734 <__fixdfsi+0x58>
   33704:	00810cc4 	movi	r2,1075
   33708:	1185c83a 	sub	r2,r2,r6
   3370c:	01c007c4 	movi	r7,31
   33710:	18c00434 	orhi	r3,r3,16
   33714:	38800d16 	blt	r7,r2,3374c <__fixdfsi+0x70>
   33718:	31befb44 	addi	r6,r6,-1043
   3371c:	2084d83a 	srl	r2,r4,r2
   33720:	1986983a 	sll	r3,r3,r6
   33724:	1884b03a 	or	r2,r3,r2
   33728:	28000726 	beq	r5,zero,33748 <__fixdfsi+0x6c>
   3372c:	0085c83a 	sub	r2,zero,r2
   33730:	f800283a 	ret
   33734:	00a00034 	movhi	r2,32768
   33738:	10bfffc4 	addi	r2,r2,-1
   3373c:	2885883a 	add	r2,r5,r2
   33740:	f800283a 	ret
   33744:	0005883a 	mov	r2,zero
   33748:	f800283a 	ret
   3374c:	008104c4 	movi	r2,1043
   33750:	1185c83a 	sub	r2,r2,r6
   33754:	1884d83a 	srl	r2,r3,r2
   33758:	003ff306 	br	33728 <__alt_data_end+0xffff3728>

0003375c <__floatsidf>:
   3375c:	defffd04 	addi	sp,sp,-12
   33760:	dfc00215 	stw	ra,8(sp)
   33764:	dc400115 	stw	r17,4(sp)
   33768:	dc000015 	stw	r16,0(sp)
   3376c:	20002b26 	beq	r4,zero,3381c <__floatsidf+0xc0>
   33770:	2023883a 	mov	r17,r4
   33774:	2020d7fa 	srli	r16,r4,31
   33778:	20002d16 	blt	r4,zero,33830 <__floatsidf+0xd4>
   3377c:	8809883a 	mov	r4,r17
   33780:	00338e00 	call	338e0 <__clzsi2>
   33784:	01410784 	movi	r5,1054
   33788:	288bc83a 	sub	r5,r5,r2
   3378c:	01010cc4 	movi	r4,1075
   33790:	2149c83a 	sub	r4,r4,r5
   33794:	00c007c4 	movi	r3,31
   33798:	1900160e 	bge	r3,r4,337f4 <__floatsidf+0x98>
   3379c:	00c104c4 	movi	r3,1043
   337a0:	1947c83a 	sub	r3,r3,r5
   337a4:	88c6983a 	sll	r3,r17,r3
   337a8:	00800434 	movhi	r2,16
   337ac:	10bfffc4 	addi	r2,r2,-1
   337b0:	1886703a 	and	r3,r3,r2
   337b4:	2941ffcc 	andi	r5,r5,2047
   337b8:	800d883a 	mov	r6,r16
   337bc:	0005883a 	mov	r2,zero
   337c0:	280a953a 	slli	r5,r5,20
   337c4:	31803fcc 	andi	r6,r6,255
   337c8:	01000434 	movhi	r4,16
   337cc:	300c97fa 	slli	r6,r6,31
   337d0:	213fffc4 	addi	r4,r4,-1
   337d4:	1906703a 	and	r3,r3,r4
   337d8:	1946b03a 	or	r3,r3,r5
   337dc:	1986b03a 	or	r3,r3,r6
   337e0:	dfc00217 	ldw	ra,8(sp)
   337e4:	dc400117 	ldw	r17,4(sp)
   337e8:	dc000017 	ldw	r16,0(sp)
   337ec:	dec00304 	addi	sp,sp,12
   337f0:	f800283a 	ret
   337f4:	00c002c4 	movi	r3,11
   337f8:	1887c83a 	sub	r3,r3,r2
   337fc:	88c6d83a 	srl	r3,r17,r3
   33800:	8904983a 	sll	r2,r17,r4
   33804:	01000434 	movhi	r4,16
   33808:	213fffc4 	addi	r4,r4,-1
   3380c:	2941ffcc 	andi	r5,r5,2047
   33810:	1906703a 	and	r3,r3,r4
   33814:	800d883a 	mov	r6,r16
   33818:	003fe906 	br	337c0 <__alt_data_end+0xffff37c0>
   3381c:	000d883a 	mov	r6,zero
   33820:	000b883a 	mov	r5,zero
   33824:	0007883a 	mov	r3,zero
   33828:	0005883a 	mov	r2,zero
   3382c:	003fe406 	br	337c0 <__alt_data_end+0xffff37c0>
   33830:	0123c83a 	sub	r17,zero,r4
   33834:	003fd106 	br	3377c <__alt_data_end+0xffff377c>

00033838 <__floatunsidf>:
   33838:	defffe04 	addi	sp,sp,-8
   3383c:	dc000015 	stw	r16,0(sp)
   33840:	dfc00115 	stw	ra,4(sp)
   33844:	2021883a 	mov	r16,r4
   33848:	20002226 	beq	r4,zero,338d4 <__floatunsidf+0x9c>
   3384c:	00338e00 	call	338e0 <__clzsi2>
   33850:	01010784 	movi	r4,1054
   33854:	2089c83a 	sub	r4,r4,r2
   33858:	01810cc4 	movi	r6,1075
   3385c:	310dc83a 	sub	r6,r6,r4
   33860:	00c007c4 	movi	r3,31
   33864:	1980120e 	bge	r3,r6,338b0 <__floatunsidf+0x78>
   33868:	00c104c4 	movi	r3,1043
   3386c:	1907c83a 	sub	r3,r3,r4
   33870:	80ca983a 	sll	r5,r16,r3
   33874:	00800434 	movhi	r2,16
   33878:	10bfffc4 	addi	r2,r2,-1
   3387c:	2101ffcc 	andi	r4,r4,2047
   33880:	0021883a 	mov	r16,zero
   33884:	288a703a 	and	r5,r5,r2
   33888:	2008953a 	slli	r4,r4,20
   3388c:	00c00434 	movhi	r3,16
   33890:	18ffffc4 	addi	r3,r3,-1
   33894:	28c6703a 	and	r3,r5,r3
   33898:	8005883a 	mov	r2,r16
   3389c:	1906b03a 	or	r3,r3,r4
   338a0:	dfc00117 	ldw	ra,4(sp)
   338a4:	dc000017 	ldw	r16,0(sp)
   338a8:	dec00204 	addi	sp,sp,8
   338ac:	f800283a 	ret
   338b0:	00c002c4 	movi	r3,11
   338b4:	188bc83a 	sub	r5,r3,r2
   338b8:	814ad83a 	srl	r5,r16,r5
   338bc:	00c00434 	movhi	r3,16
   338c0:	18ffffc4 	addi	r3,r3,-1
   338c4:	81a0983a 	sll	r16,r16,r6
   338c8:	2101ffcc 	andi	r4,r4,2047
   338cc:	28ca703a 	and	r5,r5,r3
   338d0:	003fed06 	br	33888 <__alt_data_end+0xffff3888>
   338d4:	0009883a 	mov	r4,zero
   338d8:	000b883a 	mov	r5,zero
   338dc:	003fea06 	br	33888 <__alt_data_end+0xffff3888>

000338e0 <__clzsi2>:
   338e0:	00bfffd4 	movui	r2,65535
   338e4:	11000536 	bltu	r2,r4,338fc <__clzsi2+0x1c>
   338e8:	00803fc4 	movi	r2,255
   338ec:	11000f36 	bltu	r2,r4,3392c <__clzsi2+0x4c>
   338f0:	00800804 	movi	r2,32
   338f4:	0007883a 	mov	r3,zero
   338f8:	00000506 	br	33910 <__clzsi2+0x30>
   338fc:	00804034 	movhi	r2,256
   33900:	10bfffc4 	addi	r2,r2,-1
   33904:	11000c2e 	bgeu	r2,r4,33938 <__clzsi2+0x58>
   33908:	00800204 	movi	r2,8
   3390c:	00c00604 	movi	r3,24
   33910:	20c8d83a 	srl	r4,r4,r3
   33914:	00c000f4 	movhi	r3,3
   33918:	18d5b504 	addi	r3,r3,22228
   3391c:	1909883a 	add	r4,r3,r4
   33920:	20c00003 	ldbu	r3,0(r4)
   33924:	10c5c83a 	sub	r2,r2,r3
   33928:	f800283a 	ret
   3392c:	00800604 	movi	r2,24
   33930:	00c00204 	movi	r3,8
   33934:	003ff606 	br	33910 <__alt_data_end+0xffff3910>
   33938:	00800404 	movi	r2,16
   3393c:	1007883a 	mov	r3,r2
   33940:	003ff306 	br	33910 <__alt_data_end+0xffff3910>

00033944 <close>:
   33944:	defffd04 	addi	sp,sp,-12
   33948:	dfc00215 	stw	ra,8(sp)
   3394c:	dc400115 	stw	r17,4(sp)
   33950:	dc000015 	stw	r16,0(sp)
   33954:	20001c16 	blt	r4,zero,339c8 <close+0x84>
   33958:	2023883a 	mov	r17,r4
   3395c:	21000324 	muli	r4,r4,12
   33960:	008000f4 	movhi	r2,3
   33964:	109a1204 	addi	r2,r2,26696
   33968:	2089883a 	add	r4,r4,r2
   3396c:	20001626 	beq	r4,zero,339c8 <close+0x84>
   33970:	20800017 	ldw	r2,0(r4)
   33974:	10800417 	ldw	r2,16(r2)
   33978:	10000326 	beq	r2,zero,33988 <close+0x44>
   3397c:	103ee83a 	callr	r2
   33980:	1021883a 	mov	r16,r2
   33984:	00000106 	br	3398c <close+0x48>
   33988:	0021883a 	mov	r16,zero
   3398c:	8809883a 	mov	r4,r17
   33990:	0033ffc0 	call	33ffc <alt_release_fd>
   33994:	0005883a 	mov	r2,zero
   33998:	8000160e 	bge	r16,zero,339f4 <close+0xb0>
   3399c:	008000f4 	movhi	r2,3
   339a0:	109aa004 	addi	r2,r2,27264
   339a4:	10800017 	ldw	r2,0(r2)
   339a8:	10000226 	beq	r2,zero,339b4 <close+0x70>
   339ac:	103ee83a 	callr	r2
   339b0:	00000206 	br	339bc <close+0x78>
   339b4:	008000f4 	movhi	r2,3
   339b8:	109f5204 	addi	r2,r2,32072
   339bc:	0421c83a 	sub	r16,zero,r16
   339c0:	14000015 	stw	r16,0(r2)
   339c4:	00000a06 	br	339f0 <close+0xac>
   339c8:	008000f4 	movhi	r2,3
   339cc:	109aa004 	addi	r2,r2,27264
   339d0:	10800017 	ldw	r2,0(r2)
   339d4:	10000226 	beq	r2,zero,339e0 <close+0x9c>
   339d8:	103ee83a 	callr	r2
   339dc:	00000206 	br	339e8 <close+0xa4>
   339e0:	008000f4 	movhi	r2,3
   339e4:	109f5204 	addi	r2,r2,32072
   339e8:	00c01444 	movi	r3,81
   339ec:	10c00015 	stw	r3,0(r2)
   339f0:	00bfffc4 	movi	r2,-1
   339f4:	dfc00217 	ldw	ra,8(sp)
   339f8:	dc400117 	ldw	r17,4(sp)
   339fc:	dc000017 	ldw	r16,0(sp)
   33a00:	dec00304 	addi	sp,sp,12
   33a04:	f800283a 	ret

00033a08 <alt_dev_null_write>:
   33a08:	3005883a 	mov	r2,r6
   33a0c:	f800283a 	ret

00033a10 <fcntl>:
   33a10:	defffd04 	addi	sp,sp,-12
   33a14:	dfc00015 	stw	ra,0(sp)
   33a18:	d9800115 	stw	r6,4(sp)
   33a1c:	d9c00215 	stw	r7,8(sp)
   33a20:	20002116 	blt	r4,zero,33aa8 <fcntl+0x98>
   33a24:	21000324 	muli	r4,r4,12
   33a28:	008000f4 	movhi	r2,3
   33a2c:	109a1204 	addi	r2,r2,26696
   33a30:	2089883a 	add	r4,r4,r2
   33a34:	20001c26 	beq	r4,zero,33aa8 <fcntl+0x98>
   33a38:	008000c4 	movi	r2,3
   33a3c:	28800b26 	beq	r5,r2,33a6c <fcntl+0x5c>
   33a40:	00800104 	movi	r2,4
   33a44:	28800e1e 	bne	r5,r2,33a80 <fcntl+0x70>
   33a48:	21000204 	addi	r4,r4,8
   33a4c:	20c00017 	ldw	r3,0(r4)
   33a50:	00affdc4 	movi	r2,-16393
   33a54:	3190020c 	andi	r6,r6,16392
   33a58:	1884703a 	and	r2,r3,r2
   33a5c:	118cb03a 	or	r6,r2,r6
   33a60:	21800015 	stw	r6,0(r4)
   33a64:	0005883a 	mov	r2,zero
   33a68:	00001a06 	br	33ad4 <fcntl+0xc4>
   33a6c:	20c00217 	ldw	r3,8(r4)
   33a70:	00900034 	movhi	r2,16384
   33a74:	10bfffc4 	addi	r2,r2,-1
   33a78:	1884703a 	and	r2,r3,r2
   33a7c:	00001506 	br	33ad4 <fcntl+0xc4>
   33a80:	008000f4 	movhi	r2,3
   33a84:	109aa004 	addi	r2,r2,27264
   33a88:	10800017 	ldw	r2,0(r2)
   33a8c:	10000226 	beq	r2,zero,33a98 <fcntl+0x88>
   33a90:	103ee83a 	callr	r2
   33a94:	00000206 	br	33aa0 <fcntl+0x90>
   33a98:	008000f4 	movhi	r2,3
   33a9c:	109f5204 	addi	r2,r2,32072
   33aa0:	00c00584 	movi	r3,22
   33aa4:	00000906 	br	33acc <fcntl+0xbc>
   33aa8:	008000f4 	movhi	r2,3
   33aac:	109aa004 	addi	r2,r2,27264
   33ab0:	10800017 	ldw	r2,0(r2)
   33ab4:	10000226 	beq	r2,zero,33ac0 <fcntl+0xb0>
   33ab8:	103ee83a 	callr	r2
   33abc:	00000206 	br	33ac8 <fcntl+0xb8>
   33ac0:	008000f4 	movhi	r2,3
   33ac4:	109f5204 	addi	r2,r2,32072
   33ac8:	00c01444 	movi	r3,81
   33acc:	10c00015 	stw	r3,0(r2)
   33ad0:	00bfffc4 	movi	r2,-1
   33ad4:	dfc00017 	ldw	ra,0(sp)
   33ad8:	dec00304 	addi	sp,sp,12
   33adc:	f800283a 	ret

00033ae0 <fstat>:
   33ae0:	20000d16 	blt	r4,zero,33b18 <fstat+0x38>
   33ae4:	21000324 	muli	r4,r4,12
   33ae8:	008000f4 	movhi	r2,3
   33aec:	109a1204 	addi	r2,r2,26696
   33af0:	2089883a 	add	r4,r4,r2
   33af4:	20000826 	beq	r4,zero,33b18 <fstat+0x38>
   33af8:	20800017 	ldw	r2,0(r4)
   33afc:	10800817 	ldw	r2,32(r2)
   33b00:	10000126 	beq	r2,zero,33b08 <fstat+0x28>
   33b04:	1000683a 	jmp	r2
   33b08:	00880004 	movi	r2,8192
   33b0c:	28800115 	stw	r2,4(r5)
   33b10:	0005883a 	mov	r2,zero
   33b14:	f800283a 	ret
   33b18:	008000f4 	movhi	r2,3
   33b1c:	109aa004 	addi	r2,r2,27264
   33b20:	10800017 	ldw	r2,0(r2)
   33b24:	10000926 	beq	r2,zero,33b4c <fstat+0x6c>
   33b28:	deffff04 	addi	sp,sp,-4
   33b2c:	dfc00015 	stw	ra,0(sp)
   33b30:	103ee83a 	callr	r2
   33b34:	00c01444 	movi	r3,81
   33b38:	10c00015 	stw	r3,0(r2)
   33b3c:	00bfffc4 	movi	r2,-1
   33b40:	dfc00017 	ldw	ra,0(sp)
   33b44:	dec00104 	addi	sp,sp,4
   33b48:	f800283a 	ret
   33b4c:	008000f4 	movhi	r2,3
   33b50:	109f5204 	addi	r2,r2,32072
   33b54:	00c01444 	movi	r3,81
   33b58:	10c00015 	stw	r3,0(r2)
   33b5c:	00bfffc4 	movi	r2,-1
   33b60:	f800283a 	ret

00033b64 <isatty>:
   33b64:	defff004 	addi	sp,sp,-64
   33b68:	dfc00f15 	stw	ra,60(sp)
   33b6c:	20000d16 	blt	r4,zero,33ba4 <isatty+0x40>
   33b70:	20c00324 	muli	r3,r4,12
   33b74:	008000f4 	movhi	r2,3
   33b78:	109a1204 	addi	r2,r2,26696
   33b7c:	1885883a 	add	r2,r3,r2
   33b80:	10000826 	beq	r2,zero,33ba4 <isatty+0x40>
   33b84:	10800017 	ldw	r2,0(r2)
   33b88:	10800817 	ldw	r2,32(r2)
   33b8c:	10001126 	beq	r2,zero,33bd4 <isatty+0x70>
   33b90:	d80b883a 	mov	r5,sp
   33b94:	0033ae00 	call	33ae0 <fstat>
   33b98:	d8800117 	ldw	r2,4(sp)
   33b9c:	10880020 	cmpeqi	r2,r2,8192
   33ba0:	00000d06 	br	33bd8 <isatty+0x74>
   33ba4:	008000f4 	movhi	r2,3
   33ba8:	109aa004 	addi	r2,r2,27264
   33bac:	10800017 	ldw	r2,0(r2)
   33bb0:	10000226 	beq	r2,zero,33bbc <isatty+0x58>
   33bb4:	103ee83a 	callr	r2
   33bb8:	00000206 	br	33bc4 <isatty+0x60>
   33bbc:	008000f4 	movhi	r2,3
   33bc0:	109f5204 	addi	r2,r2,32072
   33bc4:	00c01444 	movi	r3,81
   33bc8:	10c00015 	stw	r3,0(r2)
   33bcc:	0005883a 	mov	r2,zero
   33bd0:	00000106 	br	33bd8 <isatty+0x74>
   33bd4:	00800044 	movi	r2,1
   33bd8:	dfc00f17 	ldw	ra,60(sp)
   33bdc:	dec01004 	addi	sp,sp,64
   33be0:	f800283a 	ret

00033be4 <alt_load>:
 * there is no bootloader, so this application is responsible for loading to
 * RAM any sections that are required.
 */  

void alt_load (void)
{
   33be4:	deffff04 	addi	sp,sp,-4
   33be8:	010000f4 	movhi	r4,3
   33bec:	014000f4 	movhi	r5,3
   33bf0:	dfc00015 	stw	ra,0(sp)
   33bf4:	2115ff04 	addi	r4,r4,22524
   33bf8:	295aa504 	addi	r5,r5,27284

static void ALT_INLINE alt_load_section (alt_u32* from, 
                                         alt_u32* to, 
                                         alt_u32* end)
{
  if (to != from)
   33bfc:	2140061e 	bne	r4,r5,33c18 <alt_load+0x34>
   33c00:	010000b4 	movhi	r4,2
   33c04:	014000b4 	movhi	r5,2
   33c08:	21000804 	addi	r4,r4,32
   33c0c:	29400804 	addi	r5,r5,32
   33c10:	2140121e 	bne	r4,r5,33c5c <alt_load+0x78>
   33c14:	00000b06 	br	33c44 <alt_load+0x60>
   33c18:	00c000f4 	movhi	r3,3
   33c1c:	18daa504 	addi	r3,r3,27284
   33c20:	1907c83a 	sub	r3,r3,r4
   33c24:	0005883a 	mov	r2,zero
  {
    while( to != end )
   33c28:	10fff526 	beq	r2,r3,33c00 <__alt_data_end+0xffff3c00>
    {
      *to++ = *from++;
   33c2c:	114f883a 	add	r7,r2,r5
   33c30:	39c00017 	ldw	r7,0(r7)
   33c34:	110d883a 	add	r6,r2,r4
   33c38:	10800104 	addi	r2,r2,4
   33c3c:	31c00015 	stw	r7,0(r6)
   33c40:	003ff906 	br	33c28 <__alt_data_end+0xffff3c28>
   33c44:	010000f4 	movhi	r4,3
   33c48:	014000f4 	movhi	r5,3
   33c4c:	2113b204 	addi	r4,r4,20168
   33c50:	2953b204 	addi	r5,r5,20168

static void ALT_INLINE alt_load_section (alt_u32* from, 
                                         alt_u32* to, 
                                         alt_u32* end)
{
  if (to != from)
   33c54:	2140101e 	bne	r4,r5,33c98 <alt_load+0xb4>
   33c58:	00000b06 	br	33c88 <alt_load+0xa4>
   33c5c:	00c000b4 	movhi	r3,2
   33c60:	18c06204 	addi	r3,r3,392
   33c64:	1907c83a 	sub	r3,r3,r4
   33c68:	0005883a 	mov	r2,zero
  {
    while( to != end )
   33c6c:	10fff526 	beq	r2,r3,33c44 <__alt_data_end+0xffff3c44>
    {
      *to++ = *from++;
   33c70:	114f883a 	add	r7,r2,r5
   33c74:	39c00017 	ldw	r7,0(r7)
   33c78:	110d883a 	add	r6,r2,r4
   33c7c:	10800104 	addi	r2,r2,4
   33c80:	31c00015 	stw	r7,0(r6)
   33c84:	003ff906 	br	33c6c <__alt_data_end+0xffff3c6c>
  
  /*
   * Now ensure that the caches are in synch.
   */
  
  alt_dcache_flush_all();
   33c88:	003456c0 	call	3456c <alt_dcache_flush_all>
  alt_icache_flush_all();
}
   33c8c:	dfc00017 	ldw	ra,0(sp)
   33c90:	dec00104 	addi	sp,sp,4
  /*
   * Now ensure that the caches are in synch.
   */
  
  alt_dcache_flush_all();
  alt_icache_flush_all();
   33c94:	00347f81 	jmpi	347f8 <alt_icache_flush_all>
   33c98:	00c000f4 	movhi	r3,3
   33c9c:	18d5ff04 	addi	r3,r3,22524
   33ca0:	1907c83a 	sub	r3,r3,r4

static void ALT_INLINE alt_load_section (alt_u32* from, 
                                         alt_u32* to, 
                                         alt_u32* end)
{
  if (to != from)
   33ca4:	0005883a 	mov	r2,zero
  {
    while( to != end )
   33ca8:	18bff726 	beq	r3,r2,33c88 <__alt_data_end+0xffff3c88>
    {
      *to++ = *from++;
   33cac:	114f883a 	add	r7,r2,r5
   33cb0:	39c00017 	ldw	r7,0(r7)
   33cb4:	110d883a 	add	r6,r2,r4
   33cb8:	10800104 	addi	r2,r2,4
   33cbc:	31c00015 	stw	r7,0(r6)
   33cc0:	003ff906 	br	33ca8 <__alt_data_end+0xffff3ca8>

00033cc4 <lseek>:
   33cc4:	defffe04 	addi	sp,sp,-8
   33cc8:	dfc00115 	stw	ra,4(sp)
   33ccc:	dc000015 	stw	r16,0(sp)
   33cd0:	20000c16 	blt	r4,zero,33d04 <lseek+0x40>
   33cd4:	21000324 	muli	r4,r4,12
   33cd8:	008000f4 	movhi	r2,3
   33cdc:	109a1204 	addi	r2,r2,26696
   33ce0:	2089883a 	add	r4,r4,r2
   33ce4:	20000726 	beq	r4,zero,33d04 <lseek+0x40>
   33ce8:	20800017 	ldw	r2,0(r4)
   33cec:	10800717 	ldw	r2,28(r2)
   33cf0:	10001126 	beq	r2,zero,33d38 <lseek+0x74>
   33cf4:	103ee83a 	callr	r2
   33cf8:	1021883a 	mov	r16,r2
   33cfc:	1000100e 	bge	r2,zero,33d40 <lseek+0x7c>
   33d00:	00000106 	br	33d08 <lseek+0x44>
   33d04:	043febc4 	movi	r16,-81
   33d08:	008000f4 	movhi	r2,3
   33d0c:	109aa004 	addi	r2,r2,27264
   33d10:	10800017 	ldw	r2,0(r2)
   33d14:	10000226 	beq	r2,zero,33d20 <lseek+0x5c>
   33d18:	103ee83a 	callr	r2
   33d1c:	00000206 	br	33d28 <lseek+0x64>
   33d20:	008000f4 	movhi	r2,3
   33d24:	109f5204 	addi	r2,r2,32072
   33d28:	0421c83a 	sub	r16,zero,r16
   33d2c:	14000015 	stw	r16,0(r2)
   33d30:	043fffc4 	movi	r16,-1
   33d34:	00000206 	br	33d40 <lseek+0x7c>
   33d38:	043fde84 	movi	r16,-134
   33d3c:	003ff206 	br	33d08 <__alt_data_end+0xffff3d08>
   33d40:	8005883a 	mov	r2,r16
   33d44:	dfc00117 	ldw	ra,4(sp)
   33d48:	dc000017 	ldw	r16,0(sp)
   33d4c:	dec00204 	addi	sp,sp,8
   33d50:	f800283a 	ret

00033d54 <alt_main>:
   33d54:	defffe04 	addi	sp,sp,-8
   33d58:	0009883a 	mov	r4,zero
   33d5c:	dfc00115 	stw	ra,4(sp)
   33d60:	dc000015 	stw	r16,0(sp)
   33d64:	00342040 	call	34204 <alt_irq_init>
   33d68:	00342240 	call	34224 <alt_sys_init>
   33d6c:	018000f4 	movhi	r6,3
   33d70:	3195f804 	addi	r6,r6,22496
   33d74:	010000f4 	movhi	r4,3
   33d78:	300b883a 	mov	r5,r6
   33d7c:	2115fc04 	addi	r4,r4,22512
   33d80:	00349780 	call	34978 <alt_io_redirect>
   33d84:	00345fc0 	call	345fc <_do_ctors>
   33d88:	010000f4 	movhi	r4,3
   33d8c:	21119104 	addi	r4,r4,17988
   33d90:	0034aa00 	call	34aa0 <atexit>
   33d94:	d1a4c717 	ldw	r6,-27876(gp)
   33d98:	d164c817 	ldw	r5,-27872(gp)
   33d9c:	d124c917 	ldw	r4,-27868(gp)
   33da0:	00218380 	call	21838 <main>
   33da4:	01000044 	movi	r4,1
   33da8:	1021883a 	mov	r16,r2
   33dac:	00339440 	call	33944 <close>
   33db0:	8009883a 	mov	r4,r16
   33db4:	0034ab40 	call	34ab4 <exit>

00033db8 <__malloc_lock>:
   33db8:	f800283a 	ret

00033dbc <__malloc_unlock>:
/*
 *
 */

void __malloc_unlock ( struct _reent *_r )
{
   33dbc:	f800283a 	ret

00033dc0 <open>:
   33dc0:	defff904 	addi	sp,sp,-28
   33dc4:	dc800215 	stw	r18,8(sp)
   33dc8:	2825883a 	mov	r18,r5
   33dcc:	014000f4 	movhi	r5,3
   33dd0:	295a9c04 	addi	r5,r5,27248
   33dd4:	dcc00315 	stw	r19,12(sp)
   33dd8:	dc000015 	stw	r16,0(sp)
   33ddc:	dfc00615 	stw	ra,24(sp)
   33de0:	dd400515 	stw	r21,20(sp)
   33de4:	dd000415 	stw	r20,16(sp)
   33de8:	dc400115 	stw	r17,4(sp)
   33dec:	2021883a 	mov	r16,r4
   33df0:	3027883a 	mov	r19,r6
   33df4:	003468c0 	call	3468c <alt_find_dev>
   33df8:	1000061e 	bne	r2,zero,33e14 <open+0x54>
   33dfc:	8009883a 	mov	r4,r16
   33e00:	00347000 	call	34700 <alt_find_file>
   33e04:	1029883a 	mov	r20,r2
   33e08:	10003c26 	beq	r2,zero,33efc <open+0x13c>
   33e0c:	05400044 	movi	r21,1
   33e10:	00000206 	br	33e1c <open+0x5c>
   33e14:	1029883a 	mov	r20,r2
   33e18:	002b883a 	mov	r21,zero
   33e1c:	a009883a 	mov	r4,r20
   33e20:	00347ac0 	call	347ac <alt_get_fd>
   33e24:	1023883a 	mov	r17,r2
   33e28:	10003716 	blt	r2,zero,33f08 <open+0x148>
   33e2c:	11000324 	muli	r4,r2,12
   33e30:	008000f4 	movhi	r2,3
   33e34:	109a1204 	addi	r2,r2,26696
   33e38:	00d00034 	movhi	r3,16384
   33e3c:	2089883a 	add	r4,r4,r2
   33e40:	18ffffc4 	addi	r3,r3,-1
   33e44:	90c6703a 	and	r3,r18,r3
   33e48:	21400204 	addi	r5,r4,8
   33e4c:	a8000526 	beq	r21,zero,33e64 <open+0xa4>
   33e50:	28c00015 	stw	r3,0(r5)
   33e54:	a0800317 	ldw	r2,12(r20)
   33e58:	1000131e 	bne	r2,zero,33ea8 <open+0xe8>
   33e5c:	8805883a 	mov	r2,r17
   33e60:	00002d06 	br	33f18 <open+0x158>
   33e64:	18d00034 	orhi	r3,r3,16384
   33e68:	28c00015 	stw	r3,0(r5)
   33e6c:	00c000f4 	movhi	r3,3
   33e70:	18da9b04 	addi	r3,r3,27244
   33e74:	19400017 	ldw	r5,0(r3)
   33e78:	200d883a 	mov	r6,r4
   33e7c:	0007883a 	mov	r3,zero
   33e80:	12000017 	ldw	r8,0(r2)
   33e84:	31c00017 	ldw	r7,0(r6)
   33e88:	41c0031e 	bne	r8,r7,33e98 <open+0xd8>
   33e8c:	11c00217 	ldw	r7,8(r2)
   33e90:	3800010e 	bge	r7,zero,33e98 <open+0xd8>
   33e94:	11001e1e 	bne	r2,r4,33f10 <open+0x150>
   33e98:	18c00044 	addi	r3,r3,1
   33e9c:	10800304 	addi	r2,r2,12
   33ea0:	28fff72e 	bgeu	r5,r3,33e80 <__alt_data_end+0xffff3e80>
   33ea4:	003feb06 	br	33e54 <__alt_data_end+0xffff3e54>
   33ea8:	800b883a 	mov	r5,r16
   33eac:	980f883a 	mov	r7,r19
   33eb0:	900d883a 	mov	r6,r18
   33eb4:	103ee83a 	callr	r2
   33eb8:	1021883a 	mov	r16,r2
   33ebc:	8805883a 	mov	r2,r17
   33ec0:	8000150e 	bge	r16,zero,33f18 <open+0x158>
   33ec4:	8809883a 	mov	r4,r17
   33ec8:	0033ffc0 	call	33ffc <alt_release_fd>
   33ecc:	008000f4 	movhi	r2,3
   33ed0:	109aa004 	addi	r2,r2,27264
   33ed4:	10800017 	ldw	r2,0(r2)
   33ed8:	10000226 	beq	r2,zero,33ee4 <open+0x124>
   33edc:	103ee83a 	callr	r2
   33ee0:	00000206 	br	33eec <open+0x12c>
   33ee4:	008000f4 	movhi	r2,3
   33ee8:	109f5204 	addi	r2,r2,32072
   33eec:	0421c83a 	sub	r16,zero,r16
   33ef0:	14000015 	stw	r16,0(r2)
   33ef4:	00bfffc4 	movi	r2,-1
   33ef8:	00000706 	br	33f18 <open+0x158>
   33efc:	043ffb44 	movi	r16,-19
   33f00:	047fffc4 	movi	r17,-1
   33f04:	003fef06 	br	33ec4 <__alt_data_end+0xffff3ec4>
   33f08:	1021883a 	mov	r16,r2
   33f0c:	003fed06 	br	33ec4 <__alt_data_end+0xffff3ec4>
   33f10:	043ffcc4 	movi	r16,-13
   33f14:	003feb06 	br	33ec4 <__alt_data_end+0xffff3ec4>
   33f18:	dfc00617 	ldw	ra,24(sp)
   33f1c:	dd400517 	ldw	r21,20(sp)
   33f20:	dd000417 	ldw	r20,16(sp)
   33f24:	dcc00317 	ldw	r19,12(sp)
   33f28:	dc800217 	ldw	r18,8(sp)
   33f2c:	dc400117 	ldw	r17,4(sp)
   33f30:	dc000017 	ldw	r16,0(sp)
   33f34:	dec00704 	addi	sp,sp,28
   33f38:	f800283a 	ret

00033f3c <alt_putstr>:
#else
#ifdef ALT_USE_DIRECT_DRIVERS
    ALT_DRIVER_WRITE_EXTERNS(ALT_STDOUT_DEV);
    return ALT_DRIVER_WRITE(ALT_STDOUT_DEV, str, strlen(str), 0);
#else
    return fputs(str, stdout);
   33f3c:	008000f4 	movhi	r2,3
   33f40:	109a9604 	addi	r2,r2,27224
   33f44:	10800017 	ldw	r2,0(r2)
   33f48:	11400217 	ldw	r5,8(r2)
   33f4c:	0034b881 	jmpi	34b88 <fputs>

00033f50 <alt_get_errno>:
   33f50:	008000f4 	movhi	r2,3
   33f54:	109aa004 	addi	r2,r2,27264
   33f58:	10800017 	ldw	r2,0(r2)
   33f5c:	10000126 	beq	r2,zero,33f64 <alt_get_errno+0x14>
   33f60:	1000683a 	jmp	r2
   33f64:	008000f4 	movhi	r2,3
   33f68:	109f5204 	addi	r2,r2,32072
   33f6c:	f800283a 	ret

00033f70 <read>:
   33f70:	defffe04 	addi	sp,sp,-8
   33f74:	dfc00115 	stw	ra,4(sp)
   33f78:	dc000015 	stw	r16,0(sp)
   33f7c:	20001616 	blt	r4,zero,33fd8 <read+0x68>
   33f80:	21000324 	muli	r4,r4,12
   33f84:	008000f4 	movhi	r2,3
   33f88:	109a1204 	addi	r2,r2,26696
   33f8c:	2089883a 	add	r4,r4,r2
   33f90:	20001126 	beq	r4,zero,33fd8 <read+0x68>
   33f94:	20800217 	ldw	r2,8(r4)
   33f98:	00c00044 	movi	r3,1
   33f9c:	108000cc 	andi	r2,r2,3
   33fa0:	10c00a26 	beq	r2,r3,33fcc <read+0x5c>
   33fa4:	20800017 	ldw	r2,0(r4)
   33fa8:	10800517 	ldw	r2,20(r2)
   33fac:	10000726 	beq	r2,zero,33fcc <read+0x5c>
   33fb0:	103ee83a 	callr	r2
   33fb4:	1021883a 	mov	r16,r2
   33fb8:	10000b0e 	bge	r2,zero,33fe8 <read+0x78>
   33fbc:	0033f500 	call	33f50 <alt_get_errno>
   33fc0:	0421c83a 	sub	r16,zero,r16
   33fc4:	14000015 	stw	r16,0(r2)
   33fc8:	00000606 	br	33fe4 <read+0x74>
   33fcc:	0033f500 	call	33f50 <alt_get_errno>
   33fd0:	00c00344 	movi	r3,13
   33fd4:	00000206 	br	33fe0 <read+0x70>
   33fd8:	0033f500 	call	33f50 <alt_get_errno>
   33fdc:	00c01444 	movi	r3,81
   33fe0:	10c00015 	stw	r3,0(r2)
   33fe4:	043fffc4 	movi	r16,-1
   33fe8:	8005883a 	mov	r2,r16
   33fec:	dfc00117 	ldw	ra,4(sp)
   33ff0:	dc000017 	ldw	r16,0(sp)
   33ff4:	dec00204 	addi	sp,sp,8
   33ff8:	f800283a 	ret

00033ffc <alt_release_fd>:
   33ffc:	00800084 	movi	r2,2
   34000:	1100060e 	bge	r2,r4,3401c <alt_release_fd+0x20>
   34004:	21000324 	muli	r4,r4,12
   34008:	008000f4 	movhi	r2,3
   3400c:	109a1204 	addi	r2,r2,26696
   34010:	1109883a 	add	r4,r2,r4
   34014:	20000215 	stw	zero,8(r4)
   34018:	20000015 	stw	zero,0(r4)
   3401c:	f800283a 	ret

00034020 <sbrk>:
   34020:	000b303a 	rdctl	r5,status
   34024:	00bfff84 	movi	r2,-2
   34028:	2884703a 	and	r2,r5,r2
   3402c:	1001703a 	wrctl	status,r2
   34030:	d0a00f17 	ldw	r2,-32708(gp)
   34034:	00ffff04 	movi	r3,-4
   34038:	108000c4 	addi	r2,r2,3
   3403c:	10c4703a 	and	r2,r2,r3
   34040:	00c00134 	movhi	r3,4
   34044:	d0a00f15 	stw	r2,-32708(gp)
   34048:	1109883a 	add	r4,r2,r4
   3404c:	18c00004 	addi	r3,r3,0
   34050:	1900032e 	bgeu	r3,r4,34060 <sbrk+0x40>
   34054:	2801703a 	wrctl	status,r5
   34058:	00bfffc4 	movi	r2,-1
   3405c:	f800283a 	ret
   34060:	d1200f15 	stw	r4,-32708(gp)
   34064:	2801703a 	wrctl	status,r5
   34068:	f800283a 	ret

0003406c <alt_alarm_stop>:
   3406c:	0007303a 	rdctl	r3,status
   34070:	00bfff84 	movi	r2,-2
   34074:	1884703a 	and	r2,r3,r2
   34078:	1001703a 	wrctl	status,r2
   3407c:	21400117 	ldw	r5,4(r4)
   34080:	20800017 	ldw	r2,0(r4)
   34084:	11400115 	stw	r5,4(r2)
   34088:	21400117 	ldw	r5,4(r4)
   3408c:	28800015 	stw	r2,0(r5)
   34090:	21000115 	stw	r4,4(r4)
   34094:	21000015 	stw	r4,0(r4)
   34098:	1801703a 	wrctl	status,r3
   3409c:	f800283a 	ret

000340a0 <alt_tick>:
   340a0:	d0a4ca17 	ldw	r2,-27864(gp)
   340a4:	defffb04 	addi	sp,sp,-20
   340a8:	dc000015 	stw	r16,0(sp)
   340ac:	d4201017 	ldw	r16,-32704(gp)
   340b0:	10800044 	addi	r2,r2,1
   340b4:	dc800215 	stw	r18,8(sp)
   340b8:	dc400115 	stw	r17,4(sp)
   340bc:	dfc00415 	stw	ra,16(sp)
   340c0:	dcc00315 	stw	r19,12(sp)
   340c4:	d0a4ca15 	stw	r2,-27864(gp)
   340c8:	d4601004 	addi	r17,gp,-32704
   340cc:	04800044 	movi	r18,1
   340d0:	84401a26 	beq	r16,r17,3413c <alt_tick+0x9c>
   340d4:	80800403 	ldbu	r2,16(r16)
   340d8:	84c00017 	ldw	r19,0(r16)
   340dc:	10000326 	beq	r2,zero,340ec <alt_tick+0x4c>
   340e0:	d0a4ca17 	ldw	r2,-27864(gp)
   340e4:	1000011e 	bne	r2,zero,340ec <alt_tick+0x4c>
   340e8:	80000405 	stb	zero,16(r16)
   340ec:	d0e4ca17 	ldw	r3,-27864(gp)
   340f0:	80800217 	ldw	r2,8(r16)
   340f4:	18800f36 	bltu	r3,r2,34134 <alt_tick+0x94>
   340f8:	80800403 	ldbu	r2,16(r16)
   340fc:	10000d1e 	bne	r2,zero,34134 <alt_tick+0x94>
   34100:	80800317 	ldw	r2,12(r16)
   34104:	81000517 	ldw	r4,20(r16)
   34108:	103ee83a 	callr	r2
   3410c:	1000031e 	bne	r2,zero,3411c <alt_tick+0x7c>
   34110:	8009883a 	mov	r4,r16
   34114:	003406c0 	call	3406c <alt_alarm_stop>
   34118:	00000606 	br	34134 <alt_tick+0x94>
   3411c:	80c00217 	ldw	r3,8(r16)
   34120:	10c5883a 	add	r2,r2,r3
   34124:	d0e4ca17 	ldw	r3,-27864(gp)
   34128:	80800215 	stw	r2,8(r16)
   3412c:	10c0012e 	bgeu	r2,r3,34134 <alt_tick+0x94>
   34130:	84800405 	stb	r18,16(r16)
   34134:	9821883a 	mov	r16,r19
   34138:	003fe506 	br	340d0 <__alt_data_end+0xffff40d0>
   3413c:	dfc00417 	ldw	ra,16(sp)
   34140:	dcc00317 	ldw	r19,12(sp)
   34144:	dc800217 	ldw	r18,8(sp)
   34148:	dc400117 	ldw	r17,4(sp)
   3414c:	dc000017 	ldw	r16,0(sp)
   34150:	dec00504 	addi	sp,sp,20
   34154:	f800283a 	ret

00034158 <usleep>:
int ALT_USLEEP (useconds_t us)
#else
unsigned int ALT_USLEEP (unsigned int us)
#endif
{
  return alt_busy_sleep(us);
   34158:	00344f41 	jmpi	344f4 <alt_busy_sleep>

0003415c <alt_get_errno>:
   3415c:	008000f4 	movhi	r2,3
   34160:	109aa004 	addi	r2,r2,27264
   34164:	10800017 	ldw	r2,0(r2)
   34168:	10000126 	beq	r2,zero,34170 <alt_get_errno+0x14>
   3416c:	1000683a 	jmp	r2
   34170:	008000f4 	movhi	r2,3
   34174:	109f5204 	addi	r2,r2,32072
   34178:	f800283a 	ret

0003417c <write>:
   3417c:	defffe04 	addi	sp,sp,-8
   34180:	dfc00115 	stw	ra,4(sp)
   34184:	dc000015 	stw	r16,0(sp)
   34188:	20001516 	blt	r4,zero,341e0 <write+0x64>
   3418c:	21000324 	muli	r4,r4,12
   34190:	008000f4 	movhi	r2,3
   34194:	109a1204 	addi	r2,r2,26696
   34198:	2089883a 	add	r4,r4,r2
   3419c:	20001026 	beq	r4,zero,341e0 <write+0x64>
   341a0:	20800217 	ldw	r2,8(r4)
   341a4:	108000cc 	andi	r2,r2,3
   341a8:	10000a26 	beq	r2,zero,341d4 <write+0x58>
   341ac:	20800017 	ldw	r2,0(r4)
   341b0:	10800617 	ldw	r2,24(r2)
   341b4:	10000726 	beq	r2,zero,341d4 <write+0x58>
   341b8:	103ee83a 	callr	r2
   341bc:	1021883a 	mov	r16,r2
   341c0:	10000b0e 	bge	r2,zero,341f0 <write+0x74>
   341c4:	003415c0 	call	3415c <alt_get_errno>
   341c8:	0421c83a 	sub	r16,zero,r16
   341cc:	14000015 	stw	r16,0(r2)
   341d0:	00000606 	br	341ec <write+0x70>
   341d4:	003415c0 	call	3415c <alt_get_errno>
   341d8:	00c00344 	movi	r3,13
   341dc:	00000206 	br	341e8 <write+0x6c>
   341e0:	003415c0 	call	3415c <alt_get_errno>
   341e4:	00c01444 	movi	r3,81
   341e8:	10c00015 	stw	r3,0(r2)
   341ec:	043fffc4 	movi	r16,-1
   341f0:	8005883a 	mov	r2,r16
   341f4:	dfc00117 	ldw	ra,4(sp)
   341f8:	dc000017 	ldw	r16,0(sp)
   341fc:	dec00204 	addi	sp,sp,8
   34200:	f800283a 	ret

00034204 <alt_irq_init>:
   34204:	deffff04 	addi	sp,sp,-4
   34208:	dfc00015 	stw	ra,0(sp)
   3420c:	00349ec0 	call	349ec <altera_nios2_gen2_irq_init>
   34210:	00800044 	movi	r2,1
   34214:	1001703a 	wrctl	status,r2
   34218:	dfc00017 	ldw	ra,0(sp)
   3421c:	dec00104 	addi	sp,sp,4
   34220:	f800283a 	ret

00034224 <alt_sys_init>:
   34224:	01000134 	movhi	r4,4
   34228:	defffe04 	addi	sp,sp,-8
   3422c:	01c0fa04 	movi	r7,1000
   34230:	018000c4 	movi	r6,3
   34234:	000b883a 	mov	r5,zero
   34238:	21040004 	addi	r4,r4,4096
   3423c:	dfc00115 	stw	ra,4(sp)
   34240:	dc000015 	stw	r16,0(sp)
   34244:	00343680 	call	34368 <alt_avalon_timer_sc_init>
   34248:	040000f4 	movhi	r16,3
   3424c:	841a9c04 	addi	r16,r16,27248
   34250:	010000f4 	movhi	r4,3
   34254:	800b883a 	mov	r5,r16
   34258:	211a8704 	addi	r4,r4,27164
   3425c:	00345840 	call	34584 <alt_dev_llist_insert>
   34260:	010000f4 	movhi	r4,3
   34264:	800b883a 	mov	r5,r16
   34268:	211a7c04 	addi	r4,r4,27120
   3426c:	dfc00117 	ldw	ra,4(sp)
   34270:	dc000017 	ldw	r16,0(sp)
   34274:	dec00204 	addi	sp,sp,8
   34278:	00345841 	jmpi	34584 <alt_dev_llist_insert>

0003427c <altera_avalon_jtag_uart_read_fd>:
   3427c:	20800017 	ldw	r2,0(r4)
   34280:	21c00217 	ldw	r7,8(r4)
   34284:	11000a04 	addi	r4,r2,40
   34288:	003429c1 	jmpi	3429c <altera_avalon_jtag_uart_read>

0003428c <altera_avalon_jtag_uart_write_fd>:
   3428c:	20800017 	ldw	r2,0(r4)
   34290:	21c00217 	ldw	r7,8(r4)
   34294:	11000a04 	addi	r4,r2,40
   34298:	00342f81 	jmpi	342f8 <altera_avalon_jtag_uart_write>

0003429c <altera_avalon_jtag_uart_read>:
   3429c:	21000017 	ldw	r4,0(r4)
   342a0:	298d883a 	add	r6,r5,r6
   342a4:	2805883a 	mov	r2,r5
   342a8:	3a10000c 	andi	r8,r7,16384
   342ac:	11800b2e 	bgeu	r2,r6,342dc <altera_avalon_jtag_uart_read+0x40>
   342b0:	20c00037 	ldwio	r3,0(r4)
   342b4:	1a60000c 	andi	r9,r3,32768
   342b8:	48000326 	beq	r9,zero,342c8 <altera_avalon_jtag_uart_read+0x2c>
   342bc:	10c00005 	stb	r3,0(r2)
   342c0:	10800044 	addi	r2,r2,1
   342c4:	003ff906 	br	342ac <__alt_data_end+0xffff42ac>
   342c8:	11400226 	beq	r2,r5,342d4 <altera_avalon_jtag_uart_read+0x38>
   342cc:	1145c83a 	sub	r2,r2,r5
   342d0:	f800283a 	ret
   342d4:	403ff526 	beq	r8,zero,342ac <__alt_data_end+0xffff42ac>
   342d8:	00000106 	br	342e0 <altera_avalon_jtag_uart_read+0x44>
   342dc:	117ffb1e 	bne	r2,r5,342cc <__alt_data_end+0xffff42cc>
   342e0:	39d0000c 	andi	r7,r7,16384
   342e4:	3800021e 	bne	r7,zero,342f0 <altera_avalon_jtag_uart_read+0x54>
   342e8:	00bffec4 	movi	r2,-5
   342ec:	f800283a 	ret
   342f0:	00bffd44 	movi	r2,-11
   342f4:	f800283a 	ret

000342f8 <altera_avalon_jtag_uart_write>:
   342f8:	21000017 	ldw	r4,0(r4)
   342fc:	3005883a 	mov	r2,r6
   34300:	298d883a 	add	r6,r5,r6
   34304:	21c00104 	addi	r7,r4,4
   34308:	2980072e 	bgeu	r5,r6,34328 <altera_avalon_jtag_uart_write+0x30>
   3430c:	38c00037 	ldwio	r3,0(r7)
   34310:	18ffffec 	andhi	r3,r3,65535
   34314:	183ffc26 	beq	r3,zero,34308 <__alt_data_end+0xffff4308>
   34318:	28c00007 	ldb	r3,0(r5)
   3431c:	20c00035 	stwio	r3,0(r4)
   34320:	29400044 	addi	r5,r5,1
   34324:	003ff806 	br	34308 <__alt_data_end+0xffff4308>
   34328:	f800283a 	ret

0003432c <alt_avalon_timer_sc_irq>:
   3432c:	defffe04 	addi	sp,sp,-8
   34330:	dfc00115 	stw	ra,4(sp)
   34334:	dc000015 	stw	r16,0(sp)
   34338:	20000035 	stwio	zero,0(r4)
   3433c:	20800137 	ldwio	r2,4(r4)
   34340:	0021303a 	rdctl	r16,status
   34344:	00bfff84 	movi	r2,-2
   34348:	8084703a 	and	r2,r16,r2
   3434c:	1001703a 	wrctl	status,r2
   34350:	00340a00 	call	340a0 <alt_tick>
   34354:	8001703a 	wrctl	status,r16
   34358:	dfc00117 	ldw	ra,4(sp)
   3435c:	dc000017 	ldw	r16,0(sp)
   34360:	dec00204 	addi	sp,sp,8
   34364:	f800283a 	ret

00034368 <alt_avalon_timer_sc_init>:
   34368:	00c000f4 	movhi	r3,3
   3436c:	18df5d04 	addi	r3,r3,32116
   34370:	2005883a 	mov	r2,r4
   34374:	2809883a 	mov	r4,r5
   34378:	300b883a 	mov	r5,r6
   3437c:	19800017 	ldw	r6,0(r3)
   34380:	defffe04 	addi	sp,sp,-8
   34384:	dfc00115 	stw	ra,4(sp)
   34388:	3000011e 	bne	r6,zero,34390 <alt_avalon_timer_sc_init+0x28>
   3438c:	19c00015 	stw	r7,0(r3)
   34390:	00c001c4 	movi	r3,7
   34394:	10c00135 	stwio	r3,4(r2)
   34398:	018000f4 	movhi	r6,3
   3439c:	d8000015 	stw	zero,0(sp)
   343a0:	100f883a 	mov	r7,r2
   343a4:	3190cb04 	addi	r6,r6,17196
   343a8:	00348040 	call	34804 <alt_ic_isr_register>
   343ac:	dfc00117 	ldw	ra,4(sp)
   343b0:	dec00204 	addi	sp,sp,8
   343b4:	f800283a 	ret

000343b8 <altera_avalon_uart_read_fd>:
   343b8:	20800017 	ldw	r2,0(r4)
   343bc:	21c00217 	ldw	r7,8(r4)
   343c0:	11000a04 	addi	r4,r2,40
   343c4:	00343d81 	jmpi	343d8 <altera_avalon_uart_read>

000343c8 <altera_avalon_uart_write_fd>:
   343c8:	20800017 	ldw	r2,0(r4)
   343cc:	21c00217 	ldw	r7,8(r4)
   343d0:	11000a04 	addi	r4,r2,40
   343d4:	00344641 	jmpi	34464 <altera_avalon_uart_write>

000343d8 <altera_avalon_uart_read>:
   343d8:	39d0000c 	andi	r7,r7,16384
   343dc:	20c00017 	ldw	r3,0(r4)
   343e0:	18c00204 	addi	r3,r3,8
   343e4:	18800037 	ldwio	r2,0(r3)
   343e8:	18000035 	stwio	zero,0(r3)
   343ec:	10c0200c 	andi	r3,r2,128
   343f0:	1800021e 	bne	r3,zero,343fc <altera_avalon_uart_read+0x24>
   343f4:	383ff926 	beq	r7,zero,343dc <__alt_data_end+0xffff43dc>
   343f8:	00000706 	br	34418 <altera_avalon_uart_read+0x40>
   343fc:	20c00017 	ldw	r3,0(r4)
   34400:	18c00037 	ldwio	r3,0(r3)
   34404:	28c00005 	stb	r3,0(r5)
   34408:	108000cc 	andi	r2,r2,3
   3440c:	103ff91e 	bne	r2,zero,343f4 <__alt_data_end+0xffff43f4>
   34410:	00800044 	movi	r2,1
   34414:	f800283a 	ret
   34418:	008000f4 	movhi	r2,3
   3441c:	109aa004 	addi	r2,r2,27264
   34420:	10800017 	ldw	r2,0(r2)
   34424:	10000926 	beq	r2,zero,3444c <altera_avalon_uart_read+0x74>
   34428:	deffff04 	addi	sp,sp,-4
   3442c:	dfc00015 	stw	ra,0(sp)
   34430:	103ee83a 	callr	r2
   34434:	00c002c4 	movi	r3,11
   34438:	10c00015 	stw	r3,0(r2)
   3443c:	0005883a 	mov	r2,zero
   34440:	dfc00017 	ldw	ra,0(sp)
   34444:	dec00104 	addi	sp,sp,4
   34448:	f800283a 	ret
   3444c:	008000f4 	movhi	r2,3
   34450:	109f5204 	addi	r2,r2,32072
   34454:	00c002c4 	movi	r3,11
   34458:	10c00015 	stw	r3,0(r2)
   3445c:	0005883a 	mov	r2,zero
   34460:	f800283a 	ret

00034464 <altera_avalon_uart_write>:
   34464:	defffd04 	addi	sp,sp,-12
   34468:	dc400115 	stw	r17,4(sp)
   3446c:	dc000015 	stw	r16,0(sp)
   34470:	dfc00215 	stw	ra,8(sp)
   34474:	3023883a 	mov	r17,r6
   34478:	39d0000c 	andi	r7,r7,16384
   3447c:	3021883a 	mov	r16,r6
   34480:	20c00017 	ldw	r3,0(r4)
   34484:	18800237 	ldwio	r2,8(r3)
   34488:	1080100c 	andi	r2,r2,64
   3448c:	10000526 	beq	r2,zero,344a4 <altera_avalon_uart_write+0x40>
   34490:	28800044 	addi	r2,r5,1
   34494:	29400007 	ldb	r5,0(r5)
   34498:	19400135 	stwio	r5,4(r3)
   3449c:	843fffc4 	addi	r16,r16,-1
   344a0:	100b883a 	mov	r5,r2
   344a4:	3800021e 	bne	r7,zero,344b0 <altera_avalon_uart_write+0x4c>
   344a8:	803ff51e 	bne	r16,zero,34480 <__alt_data_end+0xffff4480>
   344ac:	00000b06 	br	344dc <altera_avalon_uart_write+0x78>
   344b0:	80000a26 	beq	r16,zero,344dc <altera_avalon_uart_write+0x78>
   344b4:	008000f4 	movhi	r2,3
   344b8:	109aa004 	addi	r2,r2,27264
   344bc:	10800017 	ldw	r2,0(r2)
   344c0:	10000226 	beq	r2,zero,344cc <altera_avalon_uart_write+0x68>
   344c4:	103ee83a 	callr	r2
   344c8:	00000206 	br	344d4 <altera_avalon_uart_write+0x70>
   344cc:	008000f4 	movhi	r2,3
   344d0:	109f5204 	addi	r2,r2,32072
   344d4:	00c002c4 	movi	r3,11
   344d8:	10c00015 	stw	r3,0(r2)
   344dc:	8c05c83a 	sub	r2,r17,r16
   344e0:	dfc00217 	ldw	ra,8(sp)
   344e4:	dc400117 	ldw	r17,4(sp)
   344e8:	dc000017 	ldw	r16,0(sp)
   344ec:	dec00304 	addi	sp,sp,12
   344f0:	f800283a 	ret

000344f4 <alt_busy_sleep>:
   344f4:	01420034 	movhi	r5,2048
   344f8:	defffe04 	addi	sp,sp,-8
   344fc:	297fffc4 	addi	r5,r5,-1
   34500:	dc000015 	stw	r16,0(sp)
   34504:	dfc00115 	stw	ra,4(sp)
   34508:	2021883a 	mov	r16,r4
   3450c:	0022dc40 	call	22dc4 <__udivsi3>
   34510:	10000e26 	beq	r2,zero,3454c <alt_busy_sleep+0x58>
   34514:	01600034 	movhi	r5,32768
   34518:	013e0034 	movhi	r4,63488
   3451c:	0007883a 	mov	r3,zero
   34520:	297fffc4 	addi	r5,r5,-1
   34524:	21000044 	addi	r4,r4,1
   34528:	297fffc4 	addi	r5,r5,-1
   3452c:	283ffe1e 	bne	r5,zero,34528 <__alt_data_end+0xffff4528>
   34530:	18c00044 	addi	r3,r3,1
   34534:	8121883a 	add	r16,r16,r4
   34538:	18bffb16 	blt	r3,r2,34528 <__alt_data_end+0xffff4528>
   3453c:	8020913a 	slli	r16,r16,4
   34540:	843fffc4 	addi	r16,r16,-1
   34544:	803ffe1e 	bne	r16,zero,34540 <__alt_data_end+0xffff4540>
   34548:	00000306 	br	34558 <alt_busy_sleep+0x64>
   3454c:	8020913a 	slli	r16,r16,4
   34550:	843fffc4 	addi	r16,r16,-1
   34554:	043ffe16 	blt	zero,r16,34550 <__alt_data_end+0xffff4550>
   34558:	0005883a 	mov	r2,zero
   3455c:	dfc00117 	ldw	ra,4(sp)
   34560:	dc000017 	ldw	r16,0(sp)
   34564:	dec00204 	addi	sp,sp,8
   34568:	f800283a 	ret

0003456c <alt_dcache_flush_all>:
   3456c:	0005883a 	mov	r2,zero
   34570:	00c20004 	movi	r3,2048
   34574:	1000003b 	flushd	0(r2)
   34578:	10800804 	addi	r2,r2,32
   3457c:	10fffd1e 	bne	r2,r3,34574 <__alt_data_end+0xffff4574>
   34580:	f800283a 	ret

00034584 <alt_dev_llist_insert>:
{
  /*
   * check that the device exists, and that it has a valid name.
   */

  if (!dev || !dev->name)
   34584:	20000226 	beq	r4,zero,34590 <alt_dev_llist_insert+0xc>
   34588:	20800217 	ldw	r2,8(r4)
   3458c:	1000131e 	bne	r2,zero,345dc <alt_dev_llist_insert+0x58>

extern int errno;

static ALT_INLINE int* alt_get_errno(void)
{
  return ((alt_errno) ? alt_errno() : &errno);
   34590:	008000f4 	movhi	r2,3
   34594:	109aa004 	addi	r2,r2,27264
   34598:	10800017 	ldw	r2,0(r2)
   3459c:	10000926 	beq	r2,zero,345c4 <alt_dev_llist_insert+0x40>
/*
 *
 */

int alt_dev_llist_insert (alt_dev_llist* dev, alt_llist* list)
{
   345a0:	deffff04 	addi	sp,sp,-4
   345a4:	dfc00015 	stw	ra,0(sp)
   345a8:	103ee83a 	callr	r2
   * check that the device exists, and that it has a valid name.
   */

  if (!dev || !dev->name)
  {
    ALT_ERRNO = EINVAL;
   345ac:	00c00584 	movi	r3,22
   345b0:	10c00015 	stw	r3,0(r2)
    return -EINVAL;
   345b4:	00bffa84 	movi	r2,-22
   */
  
  alt_llist_insert(list, &dev->llist);

  return 0;  
}
   345b8:	dfc00017 	ldw	ra,0(sp)
   345bc:	dec00104 	addi	sp,sp,4
   345c0:	f800283a 	ret
   345c4:	008000f4 	movhi	r2,3
   345c8:	109f5204 	addi	r2,r2,32072
   * check that the device exists, and that it has a valid name.
   */

  if (!dev || !dev->name)
  {
    ALT_ERRNO = EINVAL;
   345cc:	00c00584 	movi	r3,22
   345d0:	10c00015 	stw	r3,0(r2)
    return -EINVAL;
   345d4:	00bffa84 	movi	r2,-22
   */
  
  alt_llist_insert(list, &dev->llist);

  return 0;  
}
   345d8:	f800283a 	ret

static ALT_INLINE void ALT_ALWAYS_INLINE alt_llist_insert(alt_llist* list, 
                alt_llist* entry)
{
  entry->previous = list;
  entry->next     = list->next;
   345dc:	28800017 	ldw	r2,0(r5)
 */

static ALT_INLINE void ALT_ALWAYS_INLINE alt_llist_insert(alt_llist* list, 
                alt_llist* entry)
{
  entry->previous = list;
   345e0:	21400115 	stw	r5,4(r4)
  entry->next     = list->next;
   345e4:	20800015 	stw	r2,0(r4)

  list->next->previous = entry;
   345e8:	28800017 	ldw	r2,0(r5)
   345ec:	11000115 	stw	r4,4(r2)
  list->next           = entry;
   345f0:	29000015 	stw	r4,0(r5)
   * register the device.
   */
  
  alt_llist_insert(list, &dev->llist);

  return 0;  
   345f4:	0005883a 	mov	r2,zero
   345f8:	f800283a 	ret

000345fc <_do_ctors>:
/*
 * Run the C++ static constructors.
 */

void _do_ctors(void)
{
   345fc:	defffd04 	addi	sp,sp,-12
   34600:	dc400115 	stw	r17,4(sp)
   34604:	dc000015 	stw	r16,0(sp)
  constructor* ctor;

  for (ctor = &__CTOR_END__[-1]; ctor >= __CTOR_LIST__; ctor--)
   34608:	044000f4 	movhi	r17,3
   3460c:	040000f4 	movhi	r16,3
/*
 * Run the C++ static constructors.
 */

void _do_ctors(void)
{
   34610:	dfc00215 	stw	ra,8(sp)
  constructor* ctor;

  for (ctor = &__CTOR_END__[-1]; ctor >= __CTOR_LIST__; ctor--)
   34614:	8413b104 	addi	r16,r16,20164
   34618:	8c53b204 	addi	r17,r17,20168
   3461c:	84400436 	bltu	r16,r17,34630 <_do_ctors+0x34>
        (*ctor) (); 
   34620:	80800017 	ldw	r2,0(r16)

void _do_ctors(void)
{
  constructor* ctor;

  for (ctor = &__CTOR_END__[-1]; ctor >= __CTOR_LIST__; ctor--)
   34624:	843fff04 	addi	r16,r16,-4
        (*ctor) (); 
   34628:	103ee83a 	callr	r2
   3462c:	003ffb06 	br	3461c <__alt_data_end+0xffff461c>
}
   34630:	dfc00217 	ldw	ra,8(sp)
   34634:	dc400117 	ldw	r17,4(sp)
   34638:	dc000017 	ldw	r16,0(sp)
   3463c:	dec00304 	addi	sp,sp,12
   34640:	f800283a 	ret

00034644 <_do_dtors>:
/*
 * Run the C++ static destructors.
 */

void _do_dtors(void)
{
   34644:	defffd04 	addi	sp,sp,-12
   34648:	dc400115 	stw	r17,4(sp)
   3464c:	dc000015 	stw	r16,0(sp)
  destructor* dtor;

  for (dtor = &__DTOR_END__[-1]; dtor >= __DTOR_LIST__; dtor--)
   34650:	044000f4 	movhi	r17,3
   34654:	040000f4 	movhi	r16,3
/*
 * Run the C++ static destructors.
 */

void _do_dtors(void)
{
   34658:	dfc00215 	stw	ra,8(sp)
  destructor* dtor;

  for (dtor = &__DTOR_END__[-1]; dtor >= __DTOR_LIST__; dtor--)
   3465c:	8413b104 	addi	r16,r16,20164
   34660:	8c53b204 	addi	r17,r17,20168
   34664:	84400436 	bltu	r16,r17,34678 <_do_dtors+0x34>
        (*dtor) (); 
   34668:	80800017 	ldw	r2,0(r16)

void _do_dtors(void)
{
  destructor* dtor;

  for (dtor = &__DTOR_END__[-1]; dtor >= __DTOR_LIST__; dtor--)
   3466c:	843fff04 	addi	r16,r16,-4
        (*dtor) (); 
   34670:	103ee83a 	callr	r2
   34674:	003ffb06 	br	34664 <__alt_data_end+0xffff4664>
}
   34678:	dfc00217 	ldw	ra,8(sp)
   3467c:	dc400117 	ldw	r17,4(sp)
   34680:	dc000017 	ldw	r16,0(sp)
   34684:	dec00304 	addi	sp,sp,12
   34688:	f800283a 	ret

0003468c <alt_find_dev>:
   3468c:	defffb04 	addi	sp,sp,-20
   34690:	dcc00315 	stw	r19,12(sp)
   34694:	dc800215 	stw	r18,8(sp)
   34698:	dc400115 	stw	r17,4(sp)
   3469c:	dc000015 	stw	r16,0(sp)
   346a0:	dfc00415 	stw	ra,16(sp)
   346a4:	2027883a 	mov	r19,r4
   346a8:	2823883a 	mov	r17,r5
   346ac:	2c000017 	ldw	r16,0(r5)
   346b0:	00247fc0 	call	247fc <strlen>
   346b4:	14800044 	addi	r18,r2,1
   346b8:	84400726 	beq	r16,r17,346d8 <alt_find_dev+0x4c>
   346bc:	81000217 	ldw	r4,8(r16)
   346c0:	900d883a 	mov	r6,r18
   346c4:	980b883a 	mov	r5,r19
   346c8:	0034ba00 	call	34ba0 <memcmp>
   346cc:	10000426 	beq	r2,zero,346e0 <alt_find_dev+0x54>
   346d0:	84000017 	ldw	r16,0(r16)
   346d4:	003ff806 	br	346b8 <__alt_data_end+0xffff46b8>
   346d8:	0005883a 	mov	r2,zero
   346dc:	00000106 	br	346e4 <alt_find_dev+0x58>
   346e0:	8005883a 	mov	r2,r16
   346e4:	dfc00417 	ldw	ra,16(sp)
   346e8:	dcc00317 	ldw	r19,12(sp)
   346ec:	dc800217 	ldw	r18,8(sp)
   346f0:	dc400117 	ldw	r17,4(sp)
   346f4:	dc000017 	ldw	r16,0(sp)
   346f8:	dec00504 	addi	sp,sp,20
   346fc:	f800283a 	ret

00034700 <alt_find_file>:
   34700:	008000f4 	movhi	r2,3
   34704:	defffa04 	addi	sp,sp,-24
   34708:	109a9e04 	addi	r2,r2,27256
   3470c:	dc000015 	stw	r16,0(sp)
   34710:	14000017 	ldw	r16,0(r2)
   34714:	dd000415 	stw	r20,16(sp)
   34718:	dcc00315 	stw	r19,12(sp)
   3471c:	dc800215 	stw	r18,8(sp)
   34720:	dfc00515 	stw	ra,20(sp)
   34724:	dc400115 	stw	r17,4(sp)
   34728:	2027883a 	mov	r19,r4
   3472c:	1025883a 	mov	r18,r2
   34730:	05000bc4 	movi	r20,47
   34734:	84801226 	beq	r16,r18,34780 <alt_find_file+0x80>
   34738:	84400217 	ldw	r17,8(r16)
   3473c:	8809883a 	mov	r4,r17
   34740:	00247fc0 	call	247fc <strlen>
   34744:	8887883a 	add	r3,r17,r2
   34748:	18ffffc7 	ldb	r3,-1(r3)
   3474c:	1d00011e 	bne	r3,r20,34754 <alt_find_file+0x54>
   34750:	10bfffc4 	addi	r2,r2,-1
   34754:	9887883a 	add	r3,r19,r2
   34758:	18c00007 	ldb	r3,0(r3)
   3475c:	1d000126 	beq	r3,r20,34764 <alt_find_file+0x64>
   34760:	1800051e 	bne	r3,zero,34778 <alt_find_file+0x78>
   34764:	100d883a 	mov	r6,r2
   34768:	980b883a 	mov	r5,r19
   3476c:	8809883a 	mov	r4,r17
   34770:	0034ba00 	call	34ba0 <memcmp>
   34774:	10000426 	beq	r2,zero,34788 <alt_find_file+0x88>
   34778:	84000017 	ldw	r16,0(r16)
   3477c:	003fed06 	br	34734 <__alt_data_end+0xffff4734>
   34780:	0005883a 	mov	r2,zero
   34784:	00000106 	br	3478c <alt_find_file+0x8c>
   34788:	8005883a 	mov	r2,r16
   3478c:	dfc00517 	ldw	ra,20(sp)
   34790:	dd000417 	ldw	r20,16(sp)
   34794:	dcc00317 	ldw	r19,12(sp)
   34798:	dc800217 	ldw	r18,8(sp)
   3479c:	dc400117 	ldw	r17,4(sp)
   347a0:	dc000017 	ldw	r16,0(sp)
   347a4:	dec00604 	addi	sp,sp,24
   347a8:	f800283a 	ret

000347ac <alt_get_fd>:
   347ac:	018000f4 	movhi	r6,3
   347b0:	0005883a 	mov	r2,zero
   347b4:	319a1204 	addi	r6,r6,26696
   347b8:	01400804 	movi	r5,32
   347bc:	10c00324 	muli	r3,r2,12
   347c0:	1987883a 	add	r3,r3,r6
   347c4:	19c00017 	ldw	r7,0(r3)
   347c8:	3800071e 	bne	r7,zero,347e8 <alt_get_fd+0x3c>
   347cc:	19000015 	stw	r4,0(r3)
   347d0:	00c000f4 	movhi	r3,3
   347d4:	18da9b04 	addi	r3,r3,27244
   347d8:	19000017 	ldw	r4,0(r3)
   347dc:	2080050e 	bge	r4,r2,347f4 <alt_get_fd+0x48>
   347e0:	18800015 	stw	r2,0(r3)
   347e4:	f800283a 	ret
   347e8:	10800044 	addi	r2,r2,1
   347ec:	117ff31e 	bne	r2,r5,347bc <__alt_data_end+0xffff47bc>
   347f0:	00bffa04 	movi	r2,-24
   347f4:	f800283a 	ret

000347f8 <alt_icache_flush_all>:
   347f8:	01440004 	movi	r5,4096
   347fc:	0009883a 	mov	r4,zero
   34800:	00349f41 	jmpi	349f4 <alt_icache_flush>

00034804 <alt_ic_isr_register>:
   34804:	00348a01 	jmpi	348a0 <alt_iic_isr_register>

00034808 <alt_ic_irq_enable>:
   34808:	000d303a 	rdctl	r6,status
   3480c:	00bfff84 	movi	r2,-2
   34810:	3084703a 	and	r2,r6,r2
   34814:	1001703a 	wrctl	status,r2
   34818:	008000f4 	movhi	r2,3
   3481c:	109f5e04 	addi	r2,r2,32120
   34820:	01000044 	movi	r4,1
   34824:	10c00017 	ldw	r3,0(r2)
   34828:	214a983a 	sll	r5,r4,r5
   3482c:	28cab03a 	or	r5,r5,r3
   34830:	11400015 	stw	r5,0(r2)
   34834:	10800017 	ldw	r2,0(r2)
   34838:	100170fa 	wrctl	ienable,r2
   3483c:	3001703a 	wrctl	status,r6
   34840:	0005883a 	mov	r2,zero
   34844:	f800283a 	ret

00034848 <alt_ic_irq_disable>:
   34848:	000d303a 	rdctl	r6,status
   3484c:	00bfff84 	movi	r2,-2
   34850:	3084703a 	and	r2,r6,r2
   34854:	1001703a 	wrctl	status,r2
   34858:	008000f4 	movhi	r2,3
   3485c:	109f5e04 	addi	r2,r2,32120
   34860:	013fff84 	movi	r4,-2
   34864:	10c00017 	ldw	r3,0(r2)
   34868:	214a183a 	rol	r5,r4,r5
   3486c:	28ca703a 	and	r5,r5,r3
   34870:	11400015 	stw	r5,0(r2)
   34874:	10800017 	ldw	r2,0(r2)
   34878:	100170fa 	wrctl	ienable,r2
   3487c:	3001703a 	wrctl	status,r6
   34880:	0005883a 	mov	r2,zero
   34884:	f800283a 	ret

00034888 <alt_ic_irq_enabled>:
   34888:	000730fa 	rdctl	r3,ienable
   3488c:	00800044 	movi	r2,1
   34890:	1144983a 	sll	r2,r2,r5
   34894:	10c4703a 	and	r2,r2,r3
   34898:	1004c03a 	cmpne	r2,r2,zero
   3489c:	f800283a 	ret

000348a0 <alt_iic_isr_register>:
   348a0:	00c007c4 	movi	r3,31
   348a4:	19401616 	blt	r3,r5,34900 <alt_iic_isr_register+0x60>
   348a8:	defffe04 	addi	sp,sp,-8
   348ac:	dfc00115 	stw	ra,4(sp)
   348b0:	dc000015 	stw	r16,0(sp)
   348b4:	0021303a 	rdctl	r16,status
   348b8:	00ffff84 	movi	r3,-2
   348bc:	80c6703a 	and	r3,r16,r3
   348c0:	1801703a 	wrctl	status,r3
   348c4:	280490fa 	slli	r2,r5,3
   348c8:	00c000f4 	movhi	r3,3
   348cc:	18df7204 	addi	r3,r3,32200
   348d0:	1885883a 	add	r2,r3,r2
   348d4:	11800015 	stw	r6,0(r2)
   348d8:	11c00115 	stw	r7,4(r2)
   348dc:	30000226 	beq	r6,zero,348e8 <alt_iic_isr_register+0x48>
   348e0:	00348080 	call	34808 <alt_ic_irq_enable>
   348e4:	00000106 	br	348ec <alt_iic_isr_register+0x4c>
   348e8:	00348480 	call	34848 <alt_ic_irq_disable>
   348ec:	8001703a 	wrctl	status,r16
   348f0:	dfc00117 	ldw	ra,4(sp)
   348f4:	dc000017 	ldw	r16,0(sp)
   348f8:	dec00204 	addi	sp,sp,8
   348fc:	f800283a 	ret
   34900:	00bffa84 	movi	r2,-22
   34904:	f800283a 	ret

00034908 <alt_open_fd.constprop.0>:
   34908:	defffe04 	addi	sp,sp,-8
   3490c:	dc000015 	stw	r16,0(sp)
   34910:	2021883a 	mov	r16,r4
   34914:	2809883a 	mov	r4,r5
   34918:	300b883a 	mov	r5,r6
   3491c:	01807fc4 	movi	r6,511
   34920:	dfc00115 	stw	ra,4(sp)
   34924:	0033dc00 	call	33dc0 <open>
   34928:	10000f16 	blt	r2,zero,34968 <alt_open_fd.constprop.0+0x60>
   3492c:	10c00324 	muli	r3,r2,12
   34930:	010000f4 	movhi	r4,3
   34934:	211a1204 	addi	r4,r4,26696
   34938:	20c7883a 	add	r3,r4,r3
   3493c:	19000017 	ldw	r4,0(r3)
   34940:	81000015 	stw	r4,0(r16)
   34944:	19000117 	ldw	r4,4(r3)
   34948:	18c00217 	ldw	r3,8(r3)
   3494c:	81000115 	stw	r4,4(r16)
   34950:	1009883a 	mov	r4,r2
   34954:	80c00215 	stw	r3,8(r16)
   34958:	dfc00117 	ldw	ra,4(sp)
   3495c:	dc000017 	ldw	r16,0(sp)
   34960:	dec00204 	addi	sp,sp,8
   34964:	0033ffc1 	jmpi	33ffc <alt_release_fd>
   34968:	dfc00117 	ldw	ra,4(sp)
   3496c:	dc000017 	ldw	r16,0(sp)
   34970:	dec00204 	addi	sp,sp,8
   34974:	f800283a 	ret

00034978 <alt_io_redirect>:
   34978:	defffb04 	addi	sp,sp,-20
   3497c:	dc000015 	stw	r16,0(sp)
   34980:	040000f4 	movhi	r16,3
   34984:	841a1504 	addi	r16,r16,26708
   34988:	dc400115 	stw	r17,4(sp)
   3498c:	04400044 	movi	r17,1
   34990:	dcc00315 	stw	r19,12(sp)
   34994:	dc800215 	stw	r18,8(sp)
   34998:	2827883a 	mov	r19,r5
   3499c:	3025883a 	mov	r18,r6
   349a0:	200b883a 	mov	r5,r4
   349a4:	880d883a 	mov	r6,r17
   349a8:	8009883a 	mov	r4,r16
   349ac:	dfc00415 	stw	ra,16(sp)
   349b0:	00349080 	call	34908 <alt_open_fd.constprop.0>
   349b4:	980b883a 	mov	r5,r19
   349b8:	813ffd04 	addi	r4,r16,-12
   349bc:	000d883a 	mov	r6,zero
   349c0:	00349080 	call	34908 <alt_open_fd.constprop.0>
   349c4:	880d883a 	mov	r6,r17
   349c8:	900b883a 	mov	r5,r18
   349cc:	81000304 	addi	r4,r16,12
   349d0:	dfc00417 	ldw	ra,16(sp)
   349d4:	dcc00317 	ldw	r19,12(sp)
   349d8:	dc800217 	ldw	r18,8(sp)
   349dc:	dc400117 	ldw	r17,4(sp)
   349e0:	dc000017 	ldw	r16,0(sp)
   349e4:	dec00504 	addi	sp,sp,20
   349e8:	00349081 	jmpi	34908 <alt_open_fd.constprop.0>

000349ec <altera_nios2_gen2_irq_init>:
   349ec:	000170fa 	wrctl	ienable,zero
   349f0:	f800283a 	ret

000349f4 <alt_icache_flush>:
   349f4:	00840004 	movi	r2,4096
   349f8:	1140012e 	bgeu	r2,r5,34a00 <alt_icache_flush+0xc>
   349fc:	100b883a 	mov	r5,r2
   34a00:	214b883a 	add	r5,r4,r5
   34a04:	2005883a 	mov	r2,r4
   34a08:	1140032e 	bgeu	r2,r5,34a18 <alt_icache_flush+0x24>
   34a0c:	1000603a 	flushi	r2
   34a10:	10800804 	addi	r2,r2,32
   34a14:	003ffc06 	br	34a08 <__alt_data_end+0xffff4a08>
   34a18:	210007cc 	andi	r4,r4,31
   34a1c:	20000126 	beq	r4,zero,34a24 <alt_icache_flush+0x30>
   34a20:	1000603a 	flushi	r2
   34a24:	0000203a 	flushp
   34a28:	f800283a 	ret

00034a2c <alt_exception_cause_generated_bad_addr>:
   34a2c:	213ffe84 	addi	r4,r4,-6
   34a30:	008003c4 	movi	r2,15
   34a34:	11001636 	bltu	r2,r4,34a90 <alt_exception_cause_generated_bad_addr+0x64>
   34a38:	200890ba 	slli	r4,r4,2
   34a3c:	008000f4 	movhi	r2,3
   34a40:	10929404 	addi	r2,r2,19024
   34a44:	2089883a 	add	r4,r4,r2
   34a48:	20800017 	ldw	r2,0(r4)
   34a4c:	1000683a 	jmp	r2
   34a50:	00034a98 	cmpnei	zero,zero,3370
   34a54:	00034a98 	cmpnei	zero,zero,3370
   34a58:	00034a90 	cmplti	zero,zero,3370
   34a5c:	00034a90 	cmplti	zero,zero,3370
   34a60:	00034a90 	cmplti	zero,zero,3370
   34a64:	00034a98 	cmpnei	zero,zero,3370
   34a68:	00034a90 	cmplti	zero,zero,3370
   34a6c:	00034a90 	cmplti	zero,zero,3370
   34a70:	00034a98 	cmpnei	zero,zero,3370
   34a74:	00034a98 	cmpnei	zero,zero,3370
   34a78:	00034a90 	cmplti	zero,zero,3370
   34a7c:	00034a98 	cmpnei	zero,zero,3370
   34a80:	00034a90 	cmplti	zero,zero,3370
   34a84:	00034a90 	cmplti	zero,zero,3370
   34a88:	00034a90 	cmplti	zero,zero,3370
   34a8c:	00034a98 	cmpnei	zero,zero,3370
   34a90:	0005883a 	mov	r2,zero
   34a94:	f800283a 	ret
   34a98:	00800044 	movi	r2,1
   34a9c:	f800283a 	ret

00034aa0 <atexit>:
   34aa0:	200b883a 	mov	r5,r4
   34aa4:	000f883a 	mov	r7,zero
   34aa8:	000d883a 	mov	r6,zero
   34aac:	0009883a 	mov	r4,zero
   34ab0:	0034c1c1 	jmpi	34c1c <__register_exitproc>

00034ab4 <exit>:
   34ab4:	defffe04 	addi	sp,sp,-8
   34ab8:	000b883a 	mov	r5,zero
   34abc:	dc000015 	stw	r16,0(sp)
   34ac0:	dfc00115 	stw	ra,4(sp)
   34ac4:	2021883a 	mov	r16,r4
   34ac8:	0034d340 	call	34d34 <__call_exitprocs>
   34acc:	008000f4 	movhi	r2,3
   34ad0:	109a9504 	addi	r2,r2,27220
   34ad4:	11000017 	ldw	r4,0(r2)
   34ad8:	20800f17 	ldw	r2,60(r4)
   34adc:	10000126 	beq	r2,zero,34ae4 <exit+0x30>
   34ae0:	103ee83a 	callr	r2
   34ae4:	8009883a 	mov	r4,r16
   34ae8:	0034eb40 	call	34eb4 <_exit>

00034aec <_fputs_r>:
   34aec:	defff804 	addi	sp,sp,-32
   34af0:	dc400615 	stw	r17,24(sp)
   34af4:	2023883a 	mov	r17,r4
   34af8:	2809883a 	mov	r4,r5
   34afc:	dc000515 	stw	r16,20(sp)
   34b00:	dfc00715 	stw	ra,28(sp)
   34b04:	3021883a 	mov	r16,r6
   34b08:	d9400315 	stw	r5,12(sp)
   34b0c:	00247fc0 	call	247fc <strlen>
   34b10:	d8800215 	stw	r2,8(sp)
   34b14:	d8800415 	stw	r2,16(sp)
   34b18:	d8800304 	addi	r2,sp,12
   34b1c:	d8800015 	stw	r2,0(sp)
   34b20:	00800044 	movi	r2,1
   34b24:	d8800115 	stw	r2,4(sp)
   34b28:	88000226 	beq	r17,zero,34b34 <_fputs_r+0x48>
   34b2c:	88800e17 	ldw	r2,56(r17)
   34b30:	10001226 	beq	r2,zero,34b7c <_fputs_r+0x90>
   34b34:	8080030b 	ldhu	r2,12(r16)
   34b38:	10c8000c 	andi	r3,r2,8192
   34b3c:	1800061e 	bne	r3,zero,34b58 <_fputs_r+0x6c>
   34b40:	81001917 	ldw	r4,100(r16)
   34b44:	00f7ffc4 	movi	r3,-8193
   34b48:	10880014 	ori	r2,r2,8192
   34b4c:	20c6703a 	and	r3,r4,r3
   34b50:	8080030d 	sth	r2,12(r16)
   34b54:	80c01915 	stw	r3,100(r16)
   34b58:	d80d883a 	mov	r6,sp
   34b5c:	800b883a 	mov	r5,r16
   34b60:	8809883a 	mov	r4,r17
   34b64:	002b2f40 	call	2b2f4 <__sfvwrite_r>
   34b68:	dfc00717 	ldw	ra,28(sp)
   34b6c:	dc400617 	ldw	r17,24(sp)
   34b70:	dc000517 	ldw	r16,20(sp)
   34b74:	dec00804 	addi	sp,sp,32
   34b78:	f800283a 	ret
   34b7c:	8809883a 	mov	r4,r17
   34b80:	002adc40 	call	2adc4 <__sinit>
   34b84:	003feb06 	br	34b34 <__alt_data_end+0xffff4b34>

00034b88 <fputs>:
   34b88:	008000f4 	movhi	r2,3
   34b8c:	109a9604 	addi	r2,r2,27224
   34b90:	280d883a 	mov	r6,r5
   34b94:	200b883a 	mov	r5,r4
   34b98:	11000017 	ldw	r4,0(r2)
   34b9c:	0034aec1 	jmpi	34aec <_fputs_r>

00034ba0 <memcmp>:
   34ba0:	01c000c4 	movi	r7,3
   34ba4:	3980192e 	bgeu	r7,r6,34c0c <memcmp+0x6c>
   34ba8:	2144b03a 	or	r2,r4,r5
   34bac:	11c4703a 	and	r2,r2,r7
   34bb0:	10000f26 	beq	r2,zero,34bf0 <memcmp+0x50>
   34bb4:	20800003 	ldbu	r2,0(r4)
   34bb8:	28c00003 	ldbu	r3,0(r5)
   34bbc:	10c0151e 	bne	r2,r3,34c14 <memcmp+0x74>
   34bc0:	31bfff84 	addi	r6,r6,-2
   34bc4:	01ffffc4 	movi	r7,-1
   34bc8:	00000406 	br	34bdc <memcmp+0x3c>
   34bcc:	20800003 	ldbu	r2,0(r4)
   34bd0:	28c00003 	ldbu	r3,0(r5)
   34bd4:	31bfffc4 	addi	r6,r6,-1
   34bd8:	10c00e1e 	bne	r2,r3,34c14 <memcmp+0x74>
   34bdc:	21000044 	addi	r4,r4,1
   34be0:	29400044 	addi	r5,r5,1
   34be4:	31fff91e 	bne	r6,r7,34bcc <__alt_data_end+0xffff4bcc>
   34be8:	0005883a 	mov	r2,zero
   34bec:	f800283a 	ret
   34bf0:	20c00017 	ldw	r3,0(r4)
   34bf4:	28800017 	ldw	r2,0(r5)
   34bf8:	18bfee1e 	bne	r3,r2,34bb4 <__alt_data_end+0xffff4bb4>
   34bfc:	31bfff04 	addi	r6,r6,-4
   34c00:	21000104 	addi	r4,r4,4
   34c04:	29400104 	addi	r5,r5,4
   34c08:	39bff936 	bltu	r7,r6,34bf0 <__alt_data_end+0xffff4bf0>
   34c0c:	303fe91e 	bne	r6,zero,34bb4 <__alt_data_end+0xffff4bb4>
   34c10:	003ff506 	br	34be8 <__alt_data_end+0xffff4be8>
   34c14:	10c5c83a 	sub	r2,r2,r3
   34c18:	f800283a 	ret

00034c1c <__register_exitproc>:
   34c1c:	defffa04 	addi	sp,sp,-24
   34c20:	dc000315 	stw	r16,12(sp)
   34c24:	040000f4 	movhi	r16,3
   34c28:	841a9504 	addi	r16,r16,27220
   34c2c:	80c00017 	ldw	r3,0(r16)
   34c30:	dc400415 	stw	r17,16(sp)
   34c34:	dfc00515 	stw	ra,20(sp)
   34c38:	18805217 	ldw	r2,328(r3)
   34c3c:	2023883a 	mov	r17,r4
   34c40:	10003726 	beq	r2,zero,34d20 <__register_exitproc+0x104>
   34c44:	10c00117 	ldw	r3,4(r2)
   34c48:	010007c4 	movi	r4,31
   34c4c:	20c00e16 	blt	r4,r3,34c88 <__register_exitproc+0x6c>
   34c50:	1a000044 	addi	r8,r3,1
   34c54:	8800221e 	bne	r17,zero,34ce0 <__register_exitproc+0xc4>
   34c58:	18c00084 	addi	r3,r3,2
   34c5c:	18c7883a 	add	r3,r3,r3
   34c60:	18c7883a 	add	r3,r3,r3
   34c64:	12000115 	stw	r8,4(r2)
   34c68:	10c7883a 	add	r3,r2,r3
   34c6c:	19400015 	stw	r5,0(r3)
   34c70:	0005883a 	mov	r2,zero
   34c74:	dfc00517 	ldw	ra,20(sp)
   34c78:	dc400417 	ldw	r17,16(sp)
   34c7c:	dc000317 	ldw	r16,12(sp)
   34c80:	dec00604 	addi	sp,sp,24
   34c84:	f800283a 	ret
   34c88:	008000b4 	movhi	r2,2
   34c8c:	108dc704 	addi	r2,r2,14108
   34c90:	10002626 	beq	r2,zero,34d2c <__register_exitproc+0x110>
   34c94:	01006404 	movi	r4,400
   34c98:	d9400015 	stw	r5,0(sp)
   34c9c:	d9800115 	stw	r6,4(sp)
   34ca0:	d9c00215 	stw	r7,8(sp)
   34ca4:	002371c0 	call	2371c <malloc>
   34ca8:	d9400017 	ldw	r5,0(sp)
   34cac:	d9800117 	ldw	r6,4(sp)
   34cb0:	d9c00217 	ldw	r7,8(sp)
   34cb4:	10001d26 	beq	r2,zero,34d2c <__register_exitproc+0x110>
   34cb8:	81000017 	ldw	r4,0(r16)
   34cbc:	10000115 	stw	zero,4(r2)
   34cc0:	02000044 	movi	r8,1
   34cc4:	22405217 	ldw	r9,328(r4)
   34cc8:	0007883a 	mov	r3,zero
   34ccc:	12400015 	stw	r9,0(r2)
   34cd0:	20805215 	stw	r2,328(r4)
   34cd4:	10006215 	stw	zero,392(r2)
   34cd8:	10006315 	stw	zero,396(r2)
   34cdc:	883fde26 	beq	r17,zero,34c58 <__alt_data_end+0xffff4c58>
   34ce0:	18c9883a 	add	r4,r3,r3
   34ce4:	2109883a 	add	r4,r4,r4
   34ce8:	1109883a 	add	r4,r2,r4
   34cec:	21802215 	stw	r6,136(r4)
   34cf0:	01800044 	movi	r6,1
   34cf4:	12406217 	ldw	r9,392(r2)
   34cf8:	30cc983a 	sll	r6,r6,r3
   34cfc:	4992b03a 	or	r9,r9,r6
   34d00:	12406215 	stw	r9,392(r2)
   34d04:	21c04215 	stw	r7,264(r4)
   34d08:	01000084 	movi	r4,2
   34d0c:	893fd21e 	bne	r17,r4,34c58 <__alt_data_end+0xffff4c58>
   34d10:	11006317 	ldw	r4,396(r2)
   34d14:	218cb03a 	or	r6,r4,r6
   34d18:	11806315 	stw	r6,396(r2)
   34d1c:	003fce06 	br	34c58 <__alt_data_end+0xffff4c58>
   34d20:	18805304 	addi	r2,r3,332
   34d24:	18805215 	stw	r2,328(r3)
   34d28:	003fc606 	br	34c44 <__alt_data_end+0xffff4c44>
   34d2c:	00bfffc4 	movi	r2,-1
   34d30:	003fd006 	br	34c74 <__alt_data_end+0xffff4c74>

00034d34 <__call_exitprocs>:
   34d34:	defff504 	addi	sp,sp,-44
   34d38:	df000915 	stw	fp,36(sp)
   34d3c:	dd400615 	stw	r21,24(sp)
   34d40:	dc800315 	stw	r18,12(sp)
   34d44:	dfc00a15 	stw	ra,40(sp)
   34d48:	ddc00815 	stw	r23,32(sp)
   34d4c:	dd800715 	stw	r22,28(sp)
   34d50:	dd000515 	stw	r20,20(sp)
   34d54:	dcc00415 	stw	r19,16(sp)
   34d58:	dc400215 	stw	r17,8(sp)
   34d5c:	dc000115 	stw	r16,4(sp)
   34d60:	d9000015 	stw	r4,0(sp)
   34d64:	2839883a 	mov	fp,r5
   34d68:	04800044 	movi	r18,1
   34d6c:	057fffc4 	movi	r21,-1
   34d70:	008000f4 	movhi	r2,3
   34d74:	109a9504 	addi	r2,r2,27220
   34d78:	12000017 	ldw	r8,0(r2)
   34d7c:	45005217 	ldw	r20,328(r8)
   34d80:	44c05204 	addi	r19,r8,328
   34d84:	a0001c26 	beq	r20,zero,34df8 <__call_exitprocs+0xc4>
   34d88:	a0800117 	ldw	r2,4(r20)
   34d8c:	15ffffc4 	addi	r23,r2,-1
   34d90:	b8000d16 	blt	r23,zero,34dc8 <__call_exitprocs+0x94>
   34d94:	14000044 	addi	r16,r2,1
   34d98:	8421883a 	add	r16,r16,r16
   34d9c:	8421883a 	add	r16,r16,r16
   34da0:	84402004 	addi	r17,r16,128
   34da4:	a463883a 	add	r17,r20,r17
   34da8:	a421883a 	add	r16,r20,r16
   34dac:	e0001e26 	beq	fp,zero,34e28 <__call_exitprocs+0xf4>
   34db0:	80804017 	ldw	r2,256(r16)
   34db4:	e0801c26 	beq	fp,r2,34e28 <__call_exitprocs+0xf4>
   34db8:	bdffffc4 	addi	r23,r23,-1
   34dbc:	843fff04 	addi	r16,r16,-4
   34dc0:	8c7fff04 	addi	r17,r17,-4
   34dc4:	bd7ff91e 	bne	r23,r21,34dac <__alt_data_end+0xffff4dac>
   34dc8:	008000b4 	movhi	r2,2
   34dcc:	108dcc04 	addi	r2,r2,14128
   34dd0:	10000926 	beq	r2,zero,34df8 <__call_exitprocs+0xc4>
   34dd4:	a0800117 	ldw	r2,4(r20)
   34dd8:	1000301e 	bne	r2,zero,34e9c <__call_exitprocs+0x168>
   34ddc:	a0800017 	ldw	r2,0(r20)
   34de0:	10003226 	beq	r2,zero,34eac <__call_exitprocs+0x178>
   34de4:	a009883a 	mov	r4,r20
   34de8:	98800015 	stw	r2,0(r19)
   34dec:	00237300 	call	23730 <free>
   34df0:	9d000017 	ldw	r20,0(r19)
   34df4:	a03fe41e 	bne	r20,zero,34d88 <__alt_data_end+0xffff4d88>
   34df8:	dfc00a17 	ldw	ra,40(sp)
   34dfc:	df000917 	ldw	fp,36(sp)
   34e00:	ddc00817 	ldw	r23,32(sp)
   34e04:	dd800717 	ldw	r22,28(sp)
   34e08:	dd400617 	ldw	r21,24(sp)
   34e0c:	dd000517 	ldw	r20,20(sp)
   34e10:	dcc00417 	ldw	r19,16(sp)
   34e14:	dc800317 	ldw	r18,12(sp)
   34e18:	dc400217 	ldw	r17,8(sp)
   34e1c:	dc000117 	ldw	r16,4(sp)
   34e20:	dec00b04 	addi	sp,sp,44
   34e24:	f800283a 	ret
   34e28:	a0800117 	ldw	r2,4(r20)
   34e2c:	80c00017 	ldw	r3,0(r16)
   34e30:	10bfffc4 	addi	r2,r2,-1
   34e34:	15c01426 	beq	r2,r23,34e88 <__call_exitprocs+0x154>
   34e38:	80000015 	stw	zero,0(r16)
   34e3c:	183fde26 	beq	r3,zero,34db8 <__alt_data_end+0xffff4db8>
   34e40:	95c8983a 	sll	r4,r18,r23
   34e44:	a0806217 	ldw	r2,392(r20)
   34e48:	a5800117 	ldw	r22,4(r20)
   34e4c:	2084703a 	and	r2,r4,r2
   34e50:	10000b26 	beq	r2,zero,34e80 <__call_exitprocs+0x14c>
   34e54:	a0806317 	ldw	r2,396(r20)
   34e58:	2088703a 	and	r4,r4,r2
   34e5c:	20000c1e 	bne	r4,zero,34e90 <__call_exitprocs+0x15c>
   34e60:	89400017 	ldw	r5,0(r17)
   34e64:	d9000017 	ldw	r4,0(sp)
   34e68:	183ee83a 	callr	r3
   34e6c:	a0800117 	ldw	r2,4(r20)
   34e70:	15bfbf1e 	bne	r2,r22,34d70 <__alt_data_end+0xffff4d70>
   34e74:	98800017 	ldw	r2,0(r19)
   34e78:	153fcf26 	beq	r2,r20,34db8 <__alt_data_end+0xffff4db8>
   34e7c:	003fbc06 	br	34d70 <__alt_data_end+0xffff4d70>
   34e80:	183ee83a 	callr	r3
   34e84:	003ff906 	br	34e6c <__alt_data_end+0xffff4e6c>
   34e88:	a5c00115 	stw	r23,4(r20)
   34e8c:	003feb06 	br	34e3c <__alt_data_end+0xffff4e3c>
   34e90:	89000017 	ldw	r4,0(r17)
   34e94:	183ee83a 	callr	r3
   34e98:	003ff406 	br	34e6c <__alt_data_end+0xffff4e6c>
   34e9c:	a0800017 	ldw	r2,0(r20)
   34ea0:	a027883a 	mov	r19,r20
   34ea4:	1029883a 	mov	r20,r2
   34ea8:	003fb606 	br	34d84 <__alt_data_end+0xffff4d84>
   34eac:	0005883a 	mov	r2,zero
   34eb0:	003ffb06 	br	34ea0 <__alt_data_end+0xffff4ea0>

00034eb4 <_exit>:
   34eb4:	20000226 	beq	r4,zero,34ec0 <_exit+0xc>
   34eb8:	002af070 	cmpltui	zero,zero,43969
   34ebc:	00000106 	br	34ec4 <_exit+0x10>
   34ec0:	002af0b0 	cmpltui	zero,zero,43970
   34ec4:	003fff06 	br	34ec4 <__alt_data_end+0xffff4ec4>
